
/home/share/samba/embed_linux/embeded_linux/sources/tf-a/alientek_tf-a/tf-a-stm32mp-2.2.r1/../build/serialboot/bl2/bl2.elf:     file format elf32-littlearm
/home/share/samba/embed_linux/embeded_linux/sources/tf-a/alientek_tf-a/tf-a-stm32mp-2.2.r1/../build/serialboot/bl2/bl2.elf
architecture: armv7, flags 0x00000112:
EXEC_P, HAS_SYMS, D_PAGED
start address 0x2ffd6000

Program Header:
    LOAD off    0x00000000 vaddr 0x2ffd0000 paddr 0x2ffd0000 align 2**16
         filesz 0x000162cc memsz 0x000181f0 flags rwx
   STACK off    0x00000000 vaddr 0x00000000 paddr 0x00000000 align 2**4
         filesz 0x00000000 memsz 0x00000000 flags rwx
private flags = 5000200: [Version5 EABI] [soft-float ABI]

Sections:
Idx Name          Size      VMA       LMA       File off  Algn
  0 ro            00010000  2ffd6000  2ffd6000  00006000  2**5
                  CONTENTS, ALLOC, LOAD, READONLY, CODE
  1 .data         000002cc  2ffe6000  2ffe6000  00016000  2**3
                  CONTENTS, ALLOC, LOAD, DATA
  2 stacks        00000c00  2ffe6300  2ffe6300  000162cc  2**6
                  ALLOC
  3 .bss          000012f0  2ffe6f00  2ffe6f00  000162cc  2**5
                  ALLOC
  4 .debug_info   000434cd  00000000  00000000  000162cc  2**0
                  CONTENTS, READONLY, DEBUGGING
  5 .debug_abbrev 0000b701  00000000  00000000  00059799  2**0
                  CONTENTS, READONLY, DEBUGGING
  6 .debug_aranges 00001ca8  00000000  00000000  00064ea0  2**3
                  CONTENTS, READONLY, DEBUGGING
  7 .debug_line   0001e6cb  00000000  00000000  00066b48  2**0
                  CONTENTS, READONLY, DEBUGGING
  8 .debug_str    0000980a  00000000  00000000  00085213  2**0
                  CONTENTS, READONLY, DEBUGGING
  9 .comment      0000005a  00000000  00000000  0008ea1d  2**0
                  CONTENTS, READONLY
 10 .ARM.attributes 0000003b  00000000  00000000  0008ea77  2**0
                  CONTENTS, READONLY
 11 .debug_loc    00028531  00000000  00000000  0008eab2  2**0
                  CONTENTS, READONLY, DEBUGGING
 12 .debug_ranges 00005140  00000000  00000000  000b6fe8  2**3
                  CONTENTS, READONLY, DEBUGGING
 13 .debug_frame  00004a4c  00000000  00000000  000bc128  2**2
                  CONTENTS, READONLY, DEBUGGING
SYMBOL TABLE:
2ffd6000 l    d  ro	00000000 ro
2ffe6000 l    d  .data	00000000 .data
2ffe6300 l    d  stacks	00000000 stacks
2ffe6f00 l    d  .bss	00000000 .bss
00000000 l    d  .debug_info	00000000 .debug_info
00000000 l    d  .debug_abbrev	00000000 .debug_abbrev
00000000 l    d  .debug_aranges	00000000 .debug_aranges
00000000 l    d  .debug_line	00000000 .debug_line
00000000 l    d  .debug_str	00000000 .debug_str
00000000 l    d  .comment	00000000 .comment
00000000 l    d  .ARM.attributes	00000000 .ARM.attributes
00000000 l    d  .debug_loc	00000000 .debug_loc
00000000 l    d  .debug_ranges	00000000 .debug_ranges
00000000 l    d  .debug_frame	00000000 .debug_frame
00000000 l    df *ABS*	00000000 /home/share/samba/embed_linux/embeded_linux/sources/tf-a/alientek_tf-a/tf-a-stm32mp-2.2.r1/../build/serialboot/bl2/bl2_el3_entrypoint.o
2ffd60e8 l       ro	00000000 do_primary_cold_boot
00000000 l    df *ABS*	00000000 /home/share/samba/embed_linux/embeded_linux/sources/tf-a/alientek_tf-a/tf-a-stm32mp-2.2.r1/../build/serialboot/bl2/spinlock.o
00000000 l    df *ABS*	00000000 /home/share/samba/embed_linux/embeded_linux/sources/tf-a/alientek_tf-a/tf-a-stm32mp-2.2.r1/../build/serialboot/bl2/platform_up_stack.o
2ffe6300 l       stacks	00000000 platform_normal_stacks
00000006 l       *ABS*	00000000 TZ_COUNT
00000000 l    df *ABS*	00000000 /home/share/samba/embed_linux/embeded_linux/sources/tf-a/alientek_tf-a/tf-a-stm32mp-2.2.r1/../build/serialboot/bl2/cpu_helpers.o
00000004 l       *ABS*	00000000 CPU_MIDR_SIZE
00000004 l       *ABS*	00000000 CPU_RESET_FUNC_SIZE
00000000 l       *ABS*	00000000 CPU_PWR_DWN_OPS_SIZE
00000000 l       *ABS*	00000000 CPU_ERRATA_FUNC_SIZE
00000000 l       *ABS*	00000000 CPU_ERRATA_LOCK_SIZE
00000000 l       *ABS*	00000000 CPU_ERRATA_PRINTED_SIZE
00000000 l       *ABS*	00000000 CPU_MIDR
00000004 l       *ABS*	00000000 CPU_RESET_FUNC
00000008 l       *ABS*	00000000 CPU_PWR_DWN_OPS
00000008 l       *ABS*	00000000 CPU_ERRATA_FUNC
00000008 l       *ABS*	00000000 CPU_ERRATA_LOCK
00000008 l       *ABS*	00000000 CPU_ERRATA_PRINTED
00000008 l       *ABS*	00000000 CPU_OPS_SIZE
2ffd6250 l       ro	00000000 error_exit
00000000 l    df *ABS*	00000000 /home/share/samba/embed_linux/embeded_linux/sources/tf-a/alientek_tf-a/tf-a-stm32mp-2.2.r1/../build/serialboot/bl2/debug.o
2ffe50eb l       ro	00000000 panic_msg
2ffe50fc l       ro	00000000 panic_end
2ffe50ff l       ro	00000000 assert_msg1
2ffe510d l       ro	00000000 assert_msg2
2ffd6324 l       ro	00000000 dec_print_loop
00000000 l    df *ABS*	00000000 /home/share/samba/embed_linux/embeded_linux/sources/tf-a/alientek_tf-a/tf-a-stm32mp-2.2.r1/../build/serialboot/bl2/cache_helpers.o
2ffd63e4 l       ro	00000000 exit_loop_cimvac
2ffd63d0 l       ro	00000000 loop_cimvac
2ffd6420 l       ro	00000000 exit_loop_cmvac
2ffd640c l       ro	00000000 loop_cmvac
2ffd645c l       ro	00000000 exit_loop_imvac
2ffd6448 l       ro	00000000 loop_imvac
00000000 l    df *ABS*	00000000 /home/share/samba/embed_linux/embeded_linux/sources/tf-a/alientek_tf-a/tf-a-stm32mp-2.2.r1/../build/serialboot/bl2/misc_helpers.o
2ffd64c8 l       ro	00000000 do_disable_mmu
00000000 l    df *ABS*	00000000 /home/share/samba/embed_linux/embeded_linux/sources/tf-a/alientek_tf-a/tf-a-stm32mp-2.2.r1/../build/serialboot/bl2/stm32_console.o
2ffd6560 l       ro	00000000 core_init_fail
2ffd6544 l       ro	00000000 teack_loop
2ffd65b4 l       ro	00000000 register_fail
2ffd6600 l       ro	00000000 putc_error
2ffd65cc l       ro	00000000 txe_loop
2ffd65e8 l       ro	00000000 tc_loop
2ffd6650 l       ro	00000000 flush_error
2ffd6634 l       ro	00000000 txe_loop_3
00000000 l    df *ABS*	00000000 /home/share/samba/embed_linux/embeded_linux/sources/tf-a/alientek_tf-a/tf-a-stm32mp-2.2.r1/../build/serialboot/bl2/enable_mmu.o
00000000 l    df *ABS*	00000000 /home/share/samba/embed_linux/embeded_linux/sources/tf-a/alientek_tf-a/tf-a-stm32mp-2.2.r1/../build/serialboot/bl2/cortex_a7.o
00000004 l       *ABS*	00000000 CPU_MIDR_SIZE
00000004 l       *ABS*	00000000 CPU_RESET_FUNC_SIZE
00000000 l       *ABS*	00000000 CPU_PWR_DWN_OPS_SIZE
00000000 l       *ABS*	00000000 CPU_ERRATA_FUNC_SIZE
00000000 l       *ABS*	00000000 CPU_ERRATA_LOCK_SIZE
00000000 l       *ABS*	00000000 CPU_ERRATA_PRINTED_SIZE
00000000 l       *ABS*	00000000 CPU_MIDR
00000004 l       *ABS*	00000000 CPU_RESET_FUNC
00000008 l       *ABS*	00000000 CPU_PWR_DWN_OPS
00000008 l       *ABS*	00000000 CPU_ERRATA_FUNC
00000008 l       *ABS*	00000000 CPU_ERRATA_LOCK
00000008 l       *ABS*	00000000 CPU_ERRATA_PRINTED
00000008 l       *ABS*	00000000 CPU_OPS_SIZE
2ffd66f8 l     F ro	00000014 cortex_a7_enable_smp
2ffd670c l     F ro	00000004 cortex_a7_reset_func
00000000 l    df *ABS*	00000000 /home/share/samba/embed_linux/embeded_linux/sources/tf-a/alientek_tf-a/tf-a-stm32mp-2.2.r1/../build/serialboot/bl2/stm32mp1_helper.o
2ffd672c l       ro	00000000 undef_inst_lbl
2ffe5164 l       ro	00000000 abort_str
2ffd675c l       ro	00000000 print_excpetion_info
2ffd6740 l       ro	00000000 other_excpetion_lbl
2ffe519c l       ro	00000000 undefined_str
2ffe51ba l       ro	00000000 exception_start_str
2ffe51cd l       ro	00000000 exception_end_str
2ffe5201 l       ro	00000000 end_error_str
2ffe5172 l       ro	00000000 prefetch_abort_str
2ffe51eb l       ro	00000000 ifsr_str
2ffe51f6 l       ro	00000000 ifar_str
2ffe5189 l       ro	00000000 data_abort_str
2ffe51d5 l       ro	00000000 dfsr_str
2ffe51e0 l       ro	00000000 dfar_str
00000000 l    df *ABS*	00000000 io_dummy.c
2ffd6970 l     F ro	00000004 device_type_dummy
2ffd6974 l     F ro	00000004 dummy_dev_close
2ffd6978 l     F ro	0000001c dummy_dev_open
2ffd6994 l     F ro	00000020 dummy_block_close
2ffd69b4 l     F ro	00000018 dummy_block_read
2ffd69cc l     F ro	00000020 dummy_block_len
2ffd69ec l     F ro	0000003c dummy_block_open
2ffe7078 l     O .bss	00000008 current_file
2ffe1914 l     O ro	00000004 dummy_dev_connector
2ffe1918 l     O ro	00000024 dummy_dev_funcs
2ffe193c l     O ro	00000008 dummy_dev_info
00000000 l    df *ABS*	00000000 io_storage.c
2ffd6a50 l     F ro	00000018 is_valid_dev
2ffd6a68 l     F ro	00000012 is_valid_entity
2ffd6a7c l     F ro	00000044 free_entity
2ffe7080 l     O .bss	00000004 dev_count
2ffe7084 l     O .bss	00000004 entity_count
2ffe7088 l     O .bss	00000010 entity_map
2ffe7098 l     O .bss	00000020 entity_pool
00000000 l    df *ABS*	00000000 stm32_hash.c
2ffd6cb8 l     F ro	00000068 hash_write_data
2ffe70b8 l     O .bss	0000000c stm32_hash
2ffe70c4 l     O .bss	00000008 stm32_remain
2ffe19a0 l     O ro	0000000f __func__.7021
2ffe19af l     O ro	00000016 __func__.7029
00000000 l    df *ABS*	00000000 bl2_io_storage.c
2ffd6fcc l     F ro	00000010 open_storage
2ffd6fdc l     F ro	00000010 open_image
2ffd6fec l     F ro	00000010 open_dummy
2ffe70cc l     O .bss	00000004 backup_nb.7602
2ffe70d0 l     O .bss	00000004 dummy_dev_con
2ffe70d4 l     O .bss	00000004 dummy_dev_handle
2ffe70d8 l     O .bss	00000004 image_dev_handle
2ffe70dc l     O .bss	000003d0 pcd_handle
2ffe74ac l     O .bss	00000008 stm32image_block_spec
2ffe74b4 l     O .bss	00000004 storage_dev_handle
2ffe74b8 l     O .bss	00000004 uart_dev_con
2ffe74bc l     O .bss	00000234 usb_core_handle
2ffe76f0 l     O .bss	00000004 usb_dev_con
2ffe76f4 l     O .bss	00000024 usb_dfu_handle
2ffe6000 l     O .data	00000004 backup_id.7603
2ffe6008 l     O .data	00000048 stm32image_dev_info_spec
2ffe6050 l     O .data	00000080 uart_programmer
2ffe1ae4 l     O ro	00000008 bl2_block_spec
2ffe1aec l     O ro	00000008 bl32_block_spec
2ffe1af4 l     O ro	00000034 bl33_partition_spec
2ffe1b28 l     O ro	00000168 policies
00000000 l    df *ABS*	00000000 bl2_plat_setup.c
2ffe7718 l     O .bss	00000018 console
2ffe8056 l     O .bss	00000001 wakeup_standby
2ffe60d0 l     O .data	00000004 boot_device
2ffe1fdc l     O ro	00000272 debug_msg
00000000 l    df *ABS*	00000000 auth_mod.c
2ffd7834 l     F ro	0000003e auth_get_param.isra.0
00000000 l    df *ABS*	00000000 crypto_mod.c
00000000 l    df *ABS*	00000000 img_parser_mod.c
2ffe7730 l     O .bss	00000004 parser_lib_descs
2ffe7734 l     O .bss	0000000c parser_lib_indices
00000000 l    df *ABS*	00000000 stm32mp_crypto_lib.c
2ffd7da0 l     F ro	00000046 crypto_verify_hash
2ffd7de8 l     F ro	00000100 crypto_verify_signature
2ffd7ee8 l     F ro	00000060 crypto_lib_init
2ffe7740 l     O .bss	00000008 auth_ops
00000000 l    df *ABS*	00000000 stm32mp_img_parser_lib.c
2ffd7f48 l     F ro	00000002 img_lib_init
2ffd7f4a l     F ro	00000074 img_get_auth_param
2ffd7fbe l     F ro	00000012 img_check_integrity
2ffe52a0 l     O ro	00000014 __img_parser_lib_desc_IMG_PLAT
00000000 l    df *ABS*	00000000 stm32mp_trusted_boot.c
2ffe7748 l     O .bss	00000020 root_pk_hash
00000000 l    df *ABS*	00000000 io_programmer_uart.c
2ffd807e l     F ro	00000004 device_type_uart
2ffd8082 l     F ro	00000004 uart_dev_init
2ffd8086 l     F ro	00000004 uart_dev_close
2ffd808c l     F ro	00000010 uart_block_close
2ffd809c l     F ro	00000044 uart_read_byte
2ffd80e0 l     F ro	00000034 uart_flush_rx_fifo
2ffd8114 l     F ro	00000030 uart_write_byte
2ffd8144 l     F ro	00000040 uart_dev_open
2ffd8184 l     F ro	0000035c uart_block_read
2ffd84e0 l     F ro	00000064 uart_block_len
2ffd8544 l     F ro	00000094 uart_block_open
2ffe7768 l     O .bss	00000200 header_buffer
2ffe7968 l     O .bss	00000004 header_length_read
2ffe796c l     O .bss	00000004 uart_handle_programmer
2ffe60f4 l     O .data	00000010 current_phase
2ffe2718 l     O ro	00000004 uart_dev_connector
2ffe271c l     O ro	00000024 uart_dev_funcs
2ffe2740 l     O ro	00000008 uart_dev_info
00000000 l    df *ABS*	00000000 stm32mp1xx_hal_uart.c
2ffe2748 l     O ro	00000018 presc_table
00000000 l    df *ABS*	00000000 stm32mp1_ddr.c
2ffd89e4 l     F ro	00000054 set_reg
2ffd8a38 l     F ro	0000001a board_ddr_power_init
2ffd8a52 l     F ro	00000022 stm32mp1_mode_register_write.isra.0
2ffd8a74 l     F ro	00000054 stm32mp1_wait_sw_done_ack
2ffd8ac8 l     F ro	0000006c stm32mp1_wait_operating_mode.isra.0
2ffd8b34 l     F ro	00000064 stm32mp1_ddrphy_idone_wait
2ffe2aa4 l     O ro	00000048 ddr_map
2ffe2aec l     O ro	00000088 ddr_perf
2ffe2b74 l     O ro	000000c8 ddr_reg
2ffe2c3c l     O ro	00000070 ddr_registers
2ffe2cac l     O ro	00000060 ddr_timing
2ffe2d6c l     O ro	00000058 ddrphy_reg
2ffe2dc4 l     O ro	00000050 ddrphy_timing
2ffe2d0c l     O ro	00000060 ddrphy_cal
00000000 l    df *ABS*	00000000 stm32mp1_ram.c
2ffd9078 l     F ro	0000036c stm32mp1_ddr_setup
2ffe6f20 l     O .bss	00000020 ddr_priv_data
2ffe2fcc l     O ro	00000013 __func__.6742
00000000 l    df *ABS*	00000000 desc_image_load.c
2ffe7970 l     O .bss	0000000c bl_load_info
2ffe797c l     O .bss	0000000c next_bl_params
00000000 l    df *ABS*	00000000 plat_image_load.c
00000000 l    df *ABS*	00000000 io_programmer_st_usb.c
2ffd96c0 l     F ro	00000004 device_type_usb
2ffd96c4 l     F ro	00000010 usb_callback_write_done
2ffd96d4 l     F ro	00000004 usb_dev_init
2ffd96d8 l     F ro	00000004 usb_dev_close
2ffd96dc l     F ro	00000004 usb_block_seek
2ffd96e0 l     F ro	00000010 usb_block_close
2ffd96f0 l     F ro	00000020 usb_callback_read
2ffd9710 l     F ro	00000070 usb_partition_size
2ffd9780 l     F ro	00000054 usb_dev_open
2ffd97d4 l     F ro	00000034 usb_callback_get_status
2ffd9808 l     F ro	0000011c usb_block_read
2ffd9924 l     F ro	000000c0 usb_block_open
2ffe8057 l     O .bss	00000001 checksum_is_wrong
2ffe7988 l     O .bss	00000401 first_usb_buffer
2ffe7d8c l     O .bss	0000000c usb_dfu_fops
2ffe8058 l     O .bss	00000001 usb_status
2ffe61c4 l     O .data	00000010 current_phase
2ffe61d4 l     O .data	00000008 usb_dev_info
2ffe30fc l     O ro	00000024 usb_dev_funcs
2ffe30d3 l     O ro	00000012 __func__.6780
2ffe30e5 l     O ro	00000013 __func__.6822
2ffe30f8 l     O ro	00000004 usb_dev_connector
00000000 l    df *ABS*	00000000 usb_dwc2.c
2ffe7d98 l     O .bss	000000c8 dwc2_handle
2ffe3200 l     O ro	00000030 usb_dwc2driver
00000000 l    df *ABS*	00000000 usb_core.c
2ffda0b0 l     F ro	0000003e usb_core_set_stall
2ffe8059 l     O .bss	00000001 cfgidx.4053
2ffe32d1 l     O ro	00000013 __func__.4167
00000000 l    df *ABS*	00000000 usb_st_dfu.c
2ffda70a l     F ro	00000004 usb_dfu_init
2ffda70e l     F ro	00000004 usb_dfu_ep0_rx_ready
2ffda714 l     F ro	0000010c usb_dfu_upload
2ffda820 l     F ro	00000090 usb_dfu_get_status
2ffda8b0 l     F ro	000000b6 usb_dfu_ep0_tx_ready
2ffda966 l     F ro	00000026 usb_dfu_abort.isra.0
2ffda98c l     F ro	00000040 usb_dfu_detach.isra.0
2ffda9cc l     F ro	00000004 usb_dfu_iso_out_incomplete
2ffda9d0 l     F ro	00000004 usb_dfu_data_out
2ffda9d4 l     F ro	00000004 usb_dfu_de_init
2ffda9d8 l     F ro	00000004 usb_dfu_data_in
2ffda9dc l     F ro	00000004 usb_dfu_iso_in_incomplete
2ffda9e0 l     F ro	00000004 usb_dfu_sof
2ffda9e4 l     F ro	000002b4 usb_dfu_setup
2ffe7e60 l     O .bss	00000004 usbd_detach_req
2ffe7e64 l     O .bss	00000004 usbd_dfu_current_req
2ffe7e68 l     O .bss	00000004 usbd_dfu_download_address
2ffe7e6c l     O .bss	00000004 usbd_dfu_operation_complete
2ffe7e70 l     O .bss	00000004 usbd_dfu_phase_id
2ffe3540 l     O ro	0000002c USBD_DFU_initvalue
00000000 l    df *ABS*	00000000 stm32mp1_usb_desc.c
2ffdacf4 l     F ro	0000000c stm32mp1_get_qualifier_desc
2ffdad00 l     F ro	0000000c stm32mp1_get_dfu_desc
2ffdad0c l     F ro	0000000c stm32mp1_get_config_desc
2ffdad18 l     F ro	0000000c stm32mp1_device_desc
2ffdad24 l     F ro	0000000c stm32mp1_lang_id_desc
2ffdad30 l     F ro	0000003c stm32mp1_get_string.part.0.constprop.0
2ffdad6c l     F ro	00000018 stm32mp1_manufacturer_desc
2ffdad84 l     F ro	00000018 stm32mp1_product_desc
2ffdad9c l     F ro	00000018 stm32mp1_config_desc
2ffdadb4 l     F ro	00000018 stm32mp1_interface_desc
2ffdadcc l     F ro	00000054 stm32mp1_get_usr_desc
2ffdae20 l     F ro	00000026 int_to_unicode.constprop.0
2ffdae48 l     F ro	00000090 stm32mp1_serial_desc
2ffe805a l     O .bss	00000100 usb_local_string_dec
2ffe61dc l     O .data	00000048 usb_stm32mp1_config_desc
2ffe6224 l     O .data	00000033 usb_stm32mp1_serial
2ffe36bc l     O ro	00000034 dfu_desc
2ffe36f0 l     O ro	00000012 usb_stm32mp1_desc
2ffe3702 l     O ro	00000004 usb_stm32mp1_lang_id_desc
2ffe3706 l     O ro	0000000a usbd_stm32mp1_qualifier_desc
00000000 l    df *ABS*	00000000 bl2_image_load_v2.c
00000000 l    df *ABS*	00000000 bl2_main.c
00000000 l    df *ABS*	00000000 bl2_arch_setup.c
00000000 l    df *ABS*	00000000 bl_common.c
2ffdb058 l     F ro	00000138 load_auth_image_internal
00000000 l    df *ABS*	00000000 tf_log.c
2ffe6258 l     O .data	00000004 max_log_level
00000000 l    df *ABS*	00000000 multi_console.c
00000000 l    df *ABS*	00000000 plat_bl_common.c
00000000 l    df *ABS*	00000000 plat_log_common.c
2ffe3a00 l     O ro	00000014 plat_prefix_str
00000000 l    df *ABS*	00000000 ctzdi2.c
00000000 l    df *ABS*	00000000 udivmoddi4.c
00000000 l    df *ABS*	00000000 stm32mp_common.c
2ffe7e74 l     O .bss	00000004 boot_ctx_address
2ffe7e78 l     O .bss	00000004 latest_stm32_header
00000000 l    df *ABS*	00000000 stm32mp1_private.c
2ffdb808 l     F ro	0000004c get_part_number
2ffe7e7c l     O .bss	00000004 part_number.7235
2ffe3bdc l     O ro	00000010 CSWTCH.53
2ffe3bf0 l     O ro	00000078 stm32mp1_mmap
2ffe3c68 l     O ro	00000020 stm32mp1_uart_addresses
00000000 l    df *ABS*	00000000 xlat_tables_arch.c
00000000 l    df *ABS*	00000000 xlat_tables_context.c
2ffe6f00 l     O .bss	00000020 tf_base_xlat_table
2ffe7e80 l     O .bss	00000014 tf_mapped_regions
2ffe6f40 l     O .bss	00000138 tf_mmap
2ffe6260 l     O .data	00000048 tf_xlat_ctx
00000000 l    df *ABS*	00000000 xlat_tables_core.c
2ffdbe24 l     F ro	00000158 mmap_add_region_check
2ffdbf7c l     F ro	0000001a xlat_clean_dcache_range
2ffdbf98 l     F ro	00000028 xlat_table_get_index
2ffdbfc0 l     F ro	00000158 xlat_tables_unmap_region
2ffdc1cc l     F ro	000001b4 xlat_tables_map_region
00000000 l    df *ABS*	00000000 xlat_tables_utils.c
00000000 l    df *ABS*	00000000 tzc400.c
2ffe7e94 l     O .bss	00000008 tzc400
00000000 l    df *ABS*	00000000 delay_timer.c
2ffe7e9c l     O .bss	00000004 timer_ops
00000000 l    df *ABS*	00000000 generic_delay_timer.c
2ffdcad4 l     F ro	00000008 get_timer_value
2ffe7ea0 l     O .bss	0000000c ops
00000000 l    df *ABS*	00000000 bsec2.c
2ffdcb38 l     F ro	00000018 bsec_lock
2ffdcb50 l     F ro	00000018 bsec_unlock
2ffdcb68 l     F ro	00000018 otp_bank_offset
2ffdcb80 l     F ro	00000034 bsec_check_error
2ffdccf0 l     F ro	00000064 bsec_power_safmem
2ffe7eac l     O .bss	00000004 bsec_base
2ffe7eb0 l     O .bss	00000004 bsec_spinlock
00000000 l    df *ABS*	00000000 stm32mp_clkfunc.c
00000000 l    df *ABS*	00000000 stm32mp1_clk.c
2ffdd410 l     F ro	0000001c clock_is_always_on
2ffdd42c l     F ro	000000b8 stm32mp1_read_pll_freq
2ffdd4e4 l     F ro	00000198 get_clock_rate
2ffdd67c l     F ro	0000008c stm32mp1_pll_compute_pllxcfgr1
2ffdd708 l     F ro	00000024 stm32mp1_pll_start
2ffdd72c l     F ro	0000003a stm32mp1_mco_csg
2ffdd766 l     F ro	00000016 stm32mp1_clk_lock
2ffdd77c l     F ro	00000016 stm32mp1_clk_unlock
2ffdd794 l     F ro	00000080 stm32mp1_pll_stop
2ffdd814 l     F ro	00000022 __clk_enable
2ffdd836 l     F ro	00000024 __clk_disable
2ffdd85c l     F ro	00000114 stm32mp1_check_pll_conf
2ffdd970 l     F ro	00000034 stm32mp1_clk_get_gated_id
2ffdd9a4 l     F ro	00000078 stm32mp1_clk_get_parent
2ffdda1c l     F ro	00000078 __stm32mp1_clk_enable
2ffdda94 l     F ro	00000074 __stm32mp1_clk_disable
2ffddb08 l     F ro	00000026 stm32mp1_pkcs_config
2ffddb30 l     F ro	0000006c stm32mp1_set_clkdiv
2ffddb9c l     F ro	00000084 stm32mp1_osc_wait
2ffddc20 l     F ro	00000080 stm32mp1_set_clksrc
2ffddca0 l     F ro	00000088 stm32mp1_pll_output
2ffddd28 l     F ro	00000034 stm32mp1_pll_config_output
2ffddd5c l     F ro	00000050 stm32mp1_pll_config
2ffdddf0 l     F ro	0000021c clk_get_pll1_settings.part.0
2ffe7eb4 l     O .bss	00000004 current_opp_khz
2ffe7eb8 l     O .bss	000000dc gate_refcounts
2ffe7f94 l     O .bss	0000004c pll1_settings
2ffe7fe0 l     O .bss	00000004 refcount_lock
2ffe7fe4 l     O .bss	00000004 reg_lock
2ffe7fe8 l     O .bss	00000018 stm32mp1_osc
2ffe424b l     O ro	0000001a __func__.7252
2ffe4265 l     O ro	00000003 axiss_parents
2ffe4268 l     O ro	00000004 fmc_parents
2ffe426c l     O ro	00000004 i2c12_parents
2ffe4270 l     O ro	00000004 i2c35_parents
2ffe4274 l     O ro	00000004 i2c46_parents
2ffe4278 l     O ro	00000004 mcuss_parents
2ffe427c l     O ro	00000004 mpu_parents
2ffe4280 l     O ro	00000022 parent_id_clock_id
2ffe42a2 l     O ro	00000003 per_parents
2ffe42a5 l     O ro	00000003 pllncfgr2
2ffe42a8 l     O ro	00000004 qspi_parents
2ffe42ac l     O ro	00000004 rng1_parents
2ffe42b0 l     O ro	00000004 rtc_parents
2ffe42b4 l     O ro	00000004 sdmmc12_parents
2ffe42b8 l     O ro	00000004 sdmmc3_parents
2ffe42bc l     O ro	00000006 spi6_parents
2ffe42c2 l     O ro	00000002 stgen_parents
2ffe42c4 l     O ro	00000008 stm32mp1_axi_div
2ffe42cc l     O ro	000001b8 stm32mp1_clk_gate
2ffe4484 l     O ro	00000080 stm32mp1_clk_pll
2ffe4504 l     O ro	00000108 stm32mp1_clk_sel
2ffe4634 l     O ro	00000006 usart1_parents
2ffe462f l     O ro	00000005 uart6_parents
2ffe462a l     O ro	00000005 uart234578_parents
2ffe463c l     O ro	00000003 usbphy_parents
2ffe463a l     O ro	00000002 usbo_parents
2ffe460c l     O ro	00000010 stm32mp1_mcu_div
2ffe461c l     O ro	00000008 stm32mp1_mpu_apbx_div
2ffe4624 l     O ro	00000006 stm32mp1_pll
00000000 l    df *ABS*	00000000 stm32mp1_ddr_helpers.c
2ffe465b l     O ro	0000000a CSWTCH.26
00000000 l    df *ABS*	00000000 stm32_gpio.c
2ffde9dc l     F ro	00000004 fdt32_to_cpu
00000000 l    df *ABS*	00000000 stm32_i2c.c
2ffdecc0 l     F ro	0000002c i2c_transfer_config.isra.0
2ffdecec l     F ro	00000044 i2c_wait_flag
2ffded30 l     F ro	00000090 i2c_ack_failed
2ffdedc0 l     F ro	00000042 i2c_wait_txis
2ffdee02 l     F ro	00000042 i2c_wait_stop
2ffdee44 l     F ro	00000218 i2c_write
2ffdf05c l     F ro	000001ec i2c_read.isra.0
2ffe488c l     O ro	00000060 i2c_specs
00000000 l    df *ABS*	00000000 stm32_iwdg.c
2ffe8000 l     O .bss	00000020 stm32_iwdg
00000000 l    df *ABS*	00000000 stm32mp_pmic.c
2ffdf9c4 l     F ro	00000020 dt_get_pmic_node
2ffdf9e4 l     F ro	00000084 dt_pmic_get_regulator_voltage
2ffdfa68 l     F ro	0000017c pmic_operate
2ffe8020 l     O .bss	00000024 i2c_handle
2ffe8044 l     O .bss	00000004 pmic_i2c_addr
2ffe62c0 l     O .data	00000004 i2c_node.6740
2ffe62c4 l     O .data	00000004 node.6690
2ffe62c8 l     O .data	00000004 status.6694
00000000 l    df *ABS*	00000000 stpmic1.c
2ffdff58 l     F ro	0000003c get_regulator_data
2ffdff94 l     F ro	0000002a voltage_to_index
2ffe8054 l     O .bss	00000002 pmic_i2c_addr
2ffe8048 l     O .bss	00000004 pmic_i2c_handle
2ffe4af0 l     O ro	00000080 buck1_voltage_table
2ffe4b70 l     O ro	0000004a buck2_voltage_table
2ffe4bba l     O ro	00000070 buck3_voltage_table
2ffe4c2a l     O ro	0000007a buck4_voltage_table
2ffe4ca4 l     O ro	00000002 fixed_5v_voltage_table
2ffe4ca6 l     O ro	00000032 ldo1_voltage_table
2ffe4cd8 l     O ro	00000032 ldo2_voltage_table
2ffe4d0a l     O ro	00000042 ldo3_voltage_table
2ffe4d4c l     O ro	00000002 ldo4_voltage_table
2ffe4d4e l     O ro	0000003e ldo5_voltage_table
2ffe4d8c l     O ro	00000032 ldo6_voltage_table
2ffe4dc0 l     O ro	000000e0 regulators_table
2ffe4ea0 l     O ro	00000002 vref_ddr_voltage_table
00000000 l    df *ABS*	00000000 stm32mp1_reset.c
00000000 l    df *ABS*	00000000 stm32mp_dt.c
2ffe02d4 l     F ro	00000004 fdt32_to_cpu
2ffe02d8 l     F ro	00000024 fdt_get_node_parent_address_cells
2ffe02fc l     F ro	0000007c dt_get_stdout_node_offset
2ffe0378 l     F ro	000000cc dt_get_opp_freqvolt_from_subnode
2ffe804c l     O .bss	00000004 fdt_checked
00000000 l    df *ABS*	00000000 stm32mp_shres_helpers.c
2ffe8050 l     O .bss	00000004 shregs_lock
00000000 l    df *ABS*	00000000 stm32mp1_context.c
00000000 l    df *ABS*	00000000 stm32mp1_dbgmcu.c
2ffe0960 l     F ro	0000002c stm32mp1_dbgmcu_init
00000000 l    df *ABS*	00000000 stm32mp1_security.c
00000000 l    df *ABS*	00000000 stm32mp1_syscfg.c
00000000 l    df *ABS*	00000000 /home/share/samba/embed_linux/embeded_linux/sources/tf-a/alientek_tf-a/tf-a-stm32mp-2.2.r1/../build/serialboot/bl2/aeabi_uldivmod.o
00000000 l    df *ABS*	00000000 fdt.c
2ffe0b90 l     F ro	00000004 fdt32_to_cpu
00000000 l    df *ABS*	00000000 fdt_addresses.c
00000000 l    df *ABS*	00000000 fdt_ro.c
2ffe0e40 l     F ro	00000004 fdt32_to_cpu
2ffe0e44 l     F ro	00000032 nextprop_
2ffe0e76 l     F ro	00000036 fdt_get_property_by_offset_
2ffe0fe8 l     F ro	00000078 fdt_get_property_namelen_
00000000 l    df *ABS*	00000000 assert.c
00000000 l    df *ABS*	00000000 memchr.c
00000000 l    df *ABS*	00000000 memcmp.c
00000000 l    df *ABS*	00000000 memcpy.c
00000000 l    df *ABS*	00000000 memmove.c
00000000 l    df *ABS*	00000000 memset.c
00000000 l    df *ABS*	00000000 printf.c
2ffe147a l     F ro	00000080 unsigned_num_print
00000000 l    df *ABS*	00000000 putchar.c
00000000 l    df *ABS*	00000000 snprintf.c
2ffe16cc l     F ro	0000004a unsigned_dec_print
00000000 l    df *ABS*	00000000 strchr.c
00000000 l    df *ABS*	00000000 strcmp.c
00000000 l    df *ABS*	00000000 strlen.c
00000000 l    df *ABS*	00000000 strncmp.c
00000000 l    df *ABS*	00000000 strnlen.c
00000000 l    df *ABS*	00000000 strrchr.c
00000000 l    df *ABS*	00000000 
00000000 l    df *ABS*	00000000 stm32mp_cot.c
2ffe60d4 l     O .data	00000008 stm32_header_pk
2ffe60dc l     O .data	00000008 stm32_header_sig
2ffe60e4 l     O .data	00000008 stm32_header_sig_alg
2ffe60ec l     O .data	00000008 stm32_load
2ffe22fc l     O ro	00000050 __compound_literal.0
2ffe234c l     O ro	00000050 __compound_literal.1
2ffe239c l     O ro	00000014 bl32_image
2ffe23b0 l     O ro	00000014 bl33_image
2ffe23c4 l     O ro	00000018 cot_desc
00000000 l    df *ABS*	00000000 /home/share/samba/embed_linux/embeded_linux/sources/tf-a/alientek_tf-a/tf-a-stm32mp-2.2.r1/../build/serialboot/bl2/bl2_el3_exceptions.o
00000000 l    df *ABS*	00000000 plat_bl2_mem_params_desc.c
2ffe6104 l     O .data	000000b8 bl2_mem_params_descs
2ffe52e0 l     F ro	00000008 __zeromem_from_thumb
2ffe52e8 l     F ro	00000008 __spin_unlock_from_thumb
2ffe52f0 l     F ro	00000008 __enable_mmu_direct_svc_mon_from_thumb
2ffe52f8 l     F ro	00000008 __clean_dcache_range_from_thumb
2ffe5300 l     F ro	00000008 __console_register_from_arm
2ffe5308 l     F ro	00000008 __bl2_run_next_image_from_thumb
2ffe5310 l     F ro	00000008 __flush_dcache_range_from_thumb
2ffe5318 l     F ro	00000008 __spin_lock_from_thumb
2ffe16b6 g     F ro	00000016 putchar
2ffdaed8 g     F ro	0000000c stm32mp_usb_init_desc
2ffd9c0c g     F ro	000000a0 usb_dwc2_write_empty_tx_fifo
2ffdb29c g     F ro	0000001c console_set_scope
2ffe0df8 g     F ro	00000048 fdt_address_cells
2ffdcaa0 g     F ro	0000000a mdelay
2ffe0bec g     F ro	0000003c fdt_offset_ptr
2ffdf714 g     F ro	00000012 stm32_i2c_mem_read
2ffe0898 g     F ro	0000001a stm32mp_mmio_clrbits_32_shregs
2ffde060 g     F ro	00000020 stm32mp1_clk_lp_load_opp_pll1_settings
2ffe62a8 g     O .data	00000018 stm32mp_osc_node_label
2ffdb25c g     F ro	00000040 console_register
2ffd61e4 g     F ro	00000034 reset_handler
2ffd6460 g     F ro	00000064 zeromem
2ffdddd6 g     F ro	00000016 stm32mp_clk_get_rate
2ffe18aa g     O ro	00000021 version_string
2ffdd308 g     F ro	00000018 fdt_get_rcc_secure_status
2ffdcdfc g     F ro	00000038 bsec_read_sr_lock
2ffdc470 g     F ro	00000018 mmap_add_ctx
2ffdb1b4 g     F ro	00000020 print_entry_point_info
2ffe169c g     F ro	0000001a printf
2ffdc488 g     F ro	00000168 mmap_add_dynamic_region_ctx
2ffdb550 g     F ro	0000000c stm32mp_get_boot_ctx_address
2ffe81d8 g     O .bss	00000018 mmu_cfg_params
2ffdc852 g     F ro	00000002 xlat_tables_print
2ffe6000 g       ro	00000000 __RW_START__
2ffd6d20 g     F ro	000000b0 stm32_hash_update
2ffdcee8 g     F ro	00000038 bsec_read_sw_lock
2ffdf870 g     F ro	00000040 stm32_iwdg_refresh
2ffe1060 g     F ro	0000003e fdt_getprop_namelen
2ffdb718 g     F ro	0000001c configure_mmu
2ffe0fb8 g     F ro	00000018 fdt_first_property_offset
2ffd8604 g     F ro	00000008 HAL_UART_GetState
2ffd72d4 g     F ro	00000004 bl2_el3_early_platform_setup
2ffe0658 g     F ro	00000028 dt_get_node_by_compatible
2ffdbd7c g     F ro	00000028 mmap_add_dynamic_region
2ffd62e0 g     F ro	0000006c asm_assert
2ffdcf20 g     F ro	00000044 bsec_write_otp
2ffda6b8 g     F ro	0000003c usb_core_stop
2ffd6260 g     F ro	00000034 do_panic
2ffda6f4 g     F ro	0000000e register_usb_driver
2ffd62d0 g     F ro	00000010 report_data_abort
2ffe1262 g     F ro	00000020 fdt_parent_offset
2ffe143e g     F ro	0000002c memmove
2ffdbc9c g     F ro	000000ac setup_mmu_cfg
2ffe1718 g     F ro	000000e0 snprintf
2ffd9bf8 g     F ro	00000014 usb_dwc2_dev_disconnect
2ffdc5f0 g     F ro	0000010c mmap_remove_dynamic_region_ctx
2ffdeabc g     F ro	00000204 dt_set_pinctrl_config
2ffdc9f8 g     F ro	0000004c tzc400_disable_filters
2ffe11c2 g     F ro	0000001a fdt_path_offset
2ffe08ca g     F ro	0000001e stm32_get_zdata_from_context
2ffd6ee8 g     F ro	0000005c stm32_hash_init
2ffdb35c  w    F ro	00000024 plat_log_get_prefix
2ffdffc0 g     F ro	00000028 stpmic1_register_read
2ffd6714 g     F ro	00000060 plat_report_exception
2ffd6788 g     F ro	00000028 plat_report_undef_inst
2ffe188c g     O ro	0000001e build_message
2ffd7ce0 g     F ro	00000048 img_parser_check_integrity
2ffdd278 g     F ro	0000000c fdt_get_rcc_node
2ffdbdb4 g     F ro	0000003c init_xlat_tables
2ffde9e0 g     F ro	000000dc set_gpio
2ffda068 g     F ro	00000048 usb_dwc2_init_driver
2ffdb748 g     F ro	00000020 stm32_get_gpio_bank_clock
2ffd94f4 g     F ro	00000030 get_bl_mem_params_node
2ffdccd8 g     F ro	0000000c bsec_read_debug_conf
2ffd6568 g     F ro	00000050 console_stm32_register
2ffdddd0 g     F ro	00000006 stm32mp1_clk_force_enable
2ffd78e0 g     F ro	00000284 auth_mod_verify_img
2ffd7d28 g     F ro	00000078 img_parser_get_auth_param
2ffdbbb8 g     F ro	00000028 xlat_arch_regime_get_xn_desc
2ffd9bdc g     F ro	0000001c usb_dwc2_set_address
2ffdfc94 g     F ro	00000118 initialize_pmic_i2c
2ffdddb8 g     F ro	0000000c stm32mp1_clk_rcc_regs_unlock
2ffe1398 g     F ro	00000040 fdt_node_offset_by_compatible
2ffd72d8 g     F ro	0000009c bl2_platform_setup
2ffe07ec g     F ro	00000050 dt_get_cpu_regulator_name
2ffd93e4 g     F ro	00000044 stm32mp1_ddr_clk_enable
2ffd6970 g       ro	00000000 __TEXT_RESIDENT_END__
2ffd72c8 g     F ro	0000000c get_boot_device
2ffdce34 g     F ro	0000007c bsec_shadow_register
2ffdac98 g     F ro	0000000c usb_dfu_register_callback
2ffe1428 g     F ro	00000016 memcpy
2ffd78b8 g     F ro	00000028 auth_mod_init
2ffdcdc4 g     F ro	00000038 bsec_set_sr_lock
2ffd9498 g     F ro	0000001c flush_bl_params_desc
2ffdb564 g     F ro	00000008 stm32mp_ddrphyc_base
2ffd6460 g     F ro	00000064 zero_normalmem
2ffe0b6c g     F ro	00000024 __aeabi_uldivmod
2ffdfdac g     F ro	00000012 initialize_pmic
2ffe01bc g     F ro	00000014 stpmic1_bind_i2c
2ffd6710 g     F ro	00000004 platform_mem_init
2ffd62c0 g     F ro	00000010 report_prefetch_abort
2ffdba3c g     F ro	00000024 stm32mp_is_closed_device
2ffdcd74 g     F ro	00000050 bsec_probe
2ffdccb8 g     F ro	00000020 bsec_read_otp
2ffdbd70 g     F ro	0000000c mmap_add
2ffe098c g     F ro	0000002c stm32mp1_dbgmcu_get_chip_version
2ffe00dc g     F ro	0000002e stpmic1_register_update
2ffdb56c g     F ro	00000008 stm32mp_pwr_base
2ffdb53e g     F ro	00000006 plat_get_syscnt_freq2
2ffd9fb4 g     F ro	00000084 usb_dwc2_ep0_start_xfer
2ffdb5b4 g     F ro	00000020 stm32_get_gpio_bank_offset
2ffd695c g     F ro	00000014 plat_panic_handler
2ffe0a64 g     F ro	00000068 stm32mp1_syscfg_enable_io_compensation
2ffd9638 g     F ro	00000004 plat_flush_next_bl_params
2ffe0880 g     F ro	00000018 stm32mp_unlock_shregs
2ffe0f1a g     F ro	00000080 fdt_subnode_offset_namelen
2ffe09e8 g     F ro	0000002c stm32mp1_dbgmcu_freeze_iwdg2
2ffe08e8 g     F ro	00000020 stm32_get_pll1_settings_from_context
2ffde7f8 g     F ro	00000018 ddr_read_sr_mode
2ffe6f00 g       stacks	00000000 __STACKS_END__
2ffe1244 g     F ro	0000001e fdt_node_depth
2ffdbaa0 g     F ro	00000028 stm32_iwdg_get_instance
2ffdb3a0 g     F ro	0000019e __udivmoddi4
2ffd63e8 g     F ro	0000003c clean_dcache_range
2ffdb734 g     F ro	00000014 get_uart_address
2ffd7c14 g     F ro	00000038 crypto_mod_verify_hash
2ffe058c g     F ro	00000088 dt_fill_device_info
2ffdddc4 g     F ro	00000006 stm32mp_clk_enable
2ffd7fd0 g     F ro	0000008c plat_get_rotpk_info
2ffd860c g     F ro	000000c0 UART_SetConfig
2ffe0574 g     F ro	00000018 dt_set_stdout_pinctrl
2ffe61c0 g     O .data	00000004 bl_mem_params_desc_ptr
2ffd6c0c g     F ro	00000034 io_size
2ffe01d0 g     F ro	00000002 stpmic1_dump_regulators
2ffd6ae8 g     F ro	00000028 io_dev_open
2ffe01f0 g     F ro	00000070 stm32mp_reset_assert_to
2ffd6810 g     F ro	00000048 plat_report_data_abort
2ffd61d4  w    F ro	0000000c plat_set_my_stack
2ffdcf9c g     F ro	00000038 bsec_read_permanent_lock
2ffe0cf0 g     F ro	00000024 fdt_check_node_offset_
2ffd94b4 g     F ro	00000040 get_bl_params_node_index
2ffdb6e0 g     F ro	0000001c stm32mp_delete_loaded_header
2ffd6378 g     F ro	00000034 asm_print_hex
000012f0 g       *ABS*	00000000 __BSS_SIZE__
2ffdcd64 g     F ro	00000010 bsec_get_id
2ffd635c g     F ro	0000001c asm_print_str
2ffe815c g     O .bss	00000078 auth_img_flags
2ffd7878 g     F ro	00000040 auth_mod_get_parent_id
2ffdacc4 g     F ro	0000000c usb_dfu_download_is_completed
2ffd6944 g     F ro	00000008 plat_crash_console_flush
2ffd9b74 g     F ro	0000002c usb_dwc2_read_packet
2ffdacb8 g     F ro	0000000c usb_dfu_set_download_addr
2ffdb352  w    F ro	00000004 plat_error_handler
2ffd9cac g     F ro	00000308 usb_dwc2_it_handler
2ffdb55c g     F ro	00000008 stm32mp_ddrctrl_base
2ffe185e g     F ro	00000014 strnlen
2ffe109e g     F ro	00000022 fdt_getprop
2ffde730 g     F ro	000000a4 stm32mp1_clk_probe
2ffd7804 g     F ro	00000030 bl2_plat_handle_post_image_load
2ffe5320 g       ro	00000000 __RO_END_UNALIGNED__
2ffdd0f0 g     F ro	000000a0 fdt_osc_read_freq
2ffd8868 g     F ro	000000ce HAL_UART_Receive
2ffdb2b8 g     F ro	00000058 console_putc
2ffda038 g     F ro	00000030 usb_dwc2_ep_set_stall
2ffd6874 g     F ro	00000004 plat_secondary_cold_boot_setup
2ffd8b98 g     F ro	000004e0 stm32mp1_ddr_init
2ffe1872 g     F ro	0000001a strrchr
2ffda16c g     F ro	00000028 usb_core_ctl_error
2ffd6898 g     F ro	00000090 plat_crash_console_init
2ffd63ac g     F ro	0000003c flush_dcache_range
2ffdf728 g     F ro	00000148 stm32_i2c_is_device_ready
2ffdb854 g     F ro	00000040 stm32mp_supports_cpu_opp
2ffdcaac g     F ro	00000028 timer_init
2ffd9578 g     F ro	000000c0 get_next_bl_params_from_mem_params_desc
2ffe12c4 g     F ro	00000046 fdt_stringlist_contains
2ffdba60 g     F ro	00000040 stm32mp_is_auth_supported
2ffe010a g     F ro	00000014 stpmic1_regulator_enable
2ffd8776 g     F ro	0000004a UART_WaitOnFlagUntilTimeout
2ffdcd54 g     F ro	00000010 bsec_get_version
2ffdbb94 g     F ro	00000006 xlat_get_min_virt_addr_space_size
2ffd6ed0 g     F ro	00000016 stm32_hash_final_update
2ffd86cc g     F ro	000000aa UART_AdvFeatureConfig
2ffe0010 g     F ro	00000074 stpmic1_regulator_voltage_get
2ffe14fc g     F ro	000001a0 vprintf
2ffe0524 g     F ro	00000050 fdt_read_uint32_array
2ffdbb9a g     F ro	0000001c is_dcache_enabled
2ffd6868 g     F ro	00000004 plat_reset_handler
2ffd805c g     F ro	0000001c plat_get_nv_ctr
2ffe0f9a g     F ro	0000001e fdt_subnode_offset
2ffd8078 g     F ro	00000006 plat_set_nv_ctr
2ffd621c g     F ro	00000038 get_cpu_ops_ptr
2ffd963c g     F ro	00000080 plat_get_bl_image_load_info
2ffdb544 g     F ro	0000000c stm32mp_save_boot_ctx_address
2ffe0868 g     F ro	00000018 stm32mp_lock_shregs
2ffdb6fc g     F ro	0000001c stm32mp_get_loaded_header
2ffdb190 g     F ro	00000022 load_auth_image
2ffe13f0 g     F ro	0000001c memchr
2ffe01d2 g     F ro	0000001e stpmic1_get_version
2ffe81f0 g       .bss	00000000 __BL2_END__
2ffd85d8 g     F ro	0000002c register_io_dev_uart
2ffdbc20 g     F ro	0000003c xlat_arch_current_el
2ffdcbb4 g     F ro	00000104 bsec_find_otp_name_in_dt
2ffdd3bc g     F ro	00000054 stm32mp_stgen_config
2ffe11dc g     F ro	00000068 fdt_supernode_atdepth_offset
2ffe083c g     F ro	0000002c dt_get_board_model
2ffe04fc g     F ro	00000028 fdt_read_uint32_default
2ffe0dcc g     F ro	0000002a fdt_next_subnode
2ffd7c4c g     F ro	00000094 img_parser_init
2ffd8936 g     F ro	00000058 UART_CheckIdleState
2ffdb790 g     F ro	00000030 stm32_get_otp_value_from_idx
2ffe62cc g       .data	00000000 __DATA_RAM_END__
2ffe2480 g     O ro	00000010 crypto_lib_desc
2ffdb004 g     F ro	00000050 bl2_main
2ffe1836 g     F ro	00000028 strncmp
2ffd62b0 g     F ro	00000010 report_undef_inst
2ffe5298 g       ro	00000000 __CPU_OPS_START__
2ffdca44 g     F ro	0000005c udelay
2ffe0638 g     F ro	0000001e dt_get_stdout_uart_info
2ffe0d14 g     F ro	00000024 fdt_check_prop_offset_
2ffdd2d8 g     F ro	00000030 fdt_rcc_read_prop
2ffda0ee g     F ro	00000042 usb_core_receive
2ffd6424 g     F ro	0000003c inv_dcache_range
2ffe625c g     O .data	00000001 console_state
2ffd65c0 g     F ro	00000048 console_stm32_core_putc
2ffe0938 g     F ro	00000028 stm32_restore_ddr_training_area
2ffd6000 g     F ro	00000134 bl2_entrypoint
2ffd7ba8 g     F ro	0000006c crypto_mod_verify_signature
2ffd99e4 g     F ro	0000002c register_io_dev_usb
2ffdb5d4 g     F ro	000000c0 stm32mp_check_header
2ffd6628 g     F ro	00000030 console_stm32_core_flush
2ffdcaf4 g     F ro	00000044 generic_delay_timer_init
2ffdb350  w    F ro	00000002 bl2_el3_plat_prepare_exit
2ffdcce4 g     F ro	0000000c bsec_get_status
2ffdcadc g     F ro	00000018 generic_delay_timer_init_args
2ffe140c g     F ro	0000001c memcmp
2ffdb574 g     F ro	00000006 stm32mp_rcc_base
2ffe0798 g     F ro	00000054 dt_get_pwr_vdd_voltage
2ffdc118 g     F ro	000000b4 xlat_desc
2ffe1130 g     F ro	00000092 fdt_path_offset_namelen
2ffe0fd0 g     F ro	00000018 fdt_next_property_offset
2ffe09b8 g     F ro	00000030 stm32mp1_dbgmcu_get_chip_dev_id
2ffd6878 g     F ro	0000001c plat_is_my_cpu_primary
2ffe0614 g     F ro	00000024 dt_get_node
2ffd7872  w    F ro	00000006 plat_set_nv_ctr2
2ffd87c0 g     F ro	000000a8 HAL_UART_Transmit
2ffe81f0 g       .bss	00000000 __BSS_END__
2ffe52a0 g       ro	00000000 __CPU_OPS_END__
2ffe0a14 g     F ro	00000050 stm32mp1_arch_security_setup
2ffdc990 g     F ro	00000068 tzc400_enable_filters
2ffd686c g     F ro	00000008 plat_get_my_entrypoint
2ffe1282 g     F ro	00000042 fdt_node_offset_by_phandle
2ffd6c88 g     F ro	00000030 io_close
2ffdb380 g     F ro	00000020 __ctzdi2
2ffdd320 g     F ro	00000048 fdt_get_clock_id
2ffdc8d4 g     F ro	000000bc tzc400_configure_region
2ffe0444 g     F ro	0000001c dt_open_and_check
2ffd64e0 g     F ro	00000008 disable_mmu_icache_secure
2ffda702 g     F ro	00000008 register_platform
2ffe146a g     F ro	00000010 memset
2ffe52b4 g       ro	00000000 __PARSER_LIB_DESCS_END__
2ffd7374 g     F ro	00000490 bl2_el3_plat_arch_setup
2ffdb694 g     F ro	0000002e stm32mp_get_cpu_supply_name
2ffe52c0 g       ro	00000000 bl2_vector_table
2ffd6158 g     F ro	00000040 bl2_run_next_image
2ffd6608 g     F ro	0000001c console_stm32_putc
2ffe61bc g     O .data	00000004 bl_mem_params_desc_num
2ffdb356  w    F ro	00000002 bl2_plat_preload_setup
2ffdbb8c g     F ro	00000008 xlat_arch_get_max_supported_pa
2ffdaee4 g     F ro	00000110 bl2_load_images
2ffdbdf0 g     F ro	00000034 enable_mmu_svc_mon
2ffde810 g     F ro	000001cc ddr_set_sr_mode
2ffdb054 g     F ro	00000002 bl2_arch_setup
2ffe10c0 g     F ro	00000044 fdt_get_phandle
2ffd7b64 g     F ro	00000044 crypto_mod_init
2ffe180e g     F ro	00000018 strcmp
2ffdd284 g     F ro	00000024 fdt_rcc_read_uint32_array
2ffdf8b0 g     F ro	00000114 stm32_iwdg_init
2ffd9a10 g     F ro	0000000e usb_dwc2_disable_int
2ffdc854 g     F ro	00000024 tzc400_set_action
2ffe0120 g     F ro	0000005c stpmic1_regulator_voltage_set
2ffdaca4 g     F ro	00000014 usb_dfu_set_phase_id
2ffd6a28 g     F ro	00000028 register_io_dev_dummy
2ffdb6c4 g     F ro	0000001c stm32mp_save_loaded_header
2ffe23dc g     O ro	00000004 cot_desc_ptr
2ffd64ec g     F ro	0000007c console_stm32_core_init
2ffd9464 g     F ro	00000034 flush_bl_params_desc_args
2ffd64c4 g     F ro	0000001c disable_mmu_secure
2ffdf248 g     F ro	00000060 stm32_i2c_get_setup_from_fdt
2ffde00c g     F ro	00000054 stm32mp1_clk_get_maxfreq_opp
2ffe0084 g     F ro	00000058 stpmic1_register_write
2ffdffe8 g     F ro	00000028 stpmic1_is_regulator_enabled
2ffd6658 g     F ro	0000001c console_stm32_flush
2ffe0b94 g     F ro	00000058 fdt_check_header
2ffdb310 g     F ro	00000040 console_flush
2ffdbc10 g     F ro	00000010 xlat_arch_tlbi_va_sync
2ffdddca g     F ro	00000006 stm32mp_clk_disable
2ffe6000 g       ro	00000000 __RO_END__
2ffd6b10 g     F ro	00000034 io_dev_init
2ffe0ebc g     F ro	0000005e fdt_get_name
2ffe0478 g     F ro	00000020 fdt_check_node
2ffd6c40 g     F ro	00000048 io_read
2ffdacd0 g     F ro	0000000c usb_dfu_get_current_req
2ffdfe08 g     F ro	00000150 pmic_ddr_power_init
2ffd61bc g     F ro	00000018 spin_unlock
2ffe0da6 g     F ro	00000026 fdt_first_subnode
2ffdfdbe g     F ro	00000014 configure_pmic
2ffe6f00 g       .bss	00000000 __BSS_START__
2ffe6000 g       .data	00000000 __DATA_RAM_START__
2ffd6000 g       ro	00000000 __RO_START__
2ffe01a0 g     F ro	0000001a stpmic1_regulator_mask_reset_set
2ffe0710 g     F ro	00000088 dt_get_max_opp_freqvolt
2ffdc380 g     F ro	000000f0 mmap_add_region_ctx
2ffd7248 g     F ro	00000080 plat_try_next_boot_source
2ffd6dd0 g     F ro	00000100 stm32_hash_final
2ffd6950 g     F ro	00000008 plat_crash_console_putc
2ffdcfd4 g     F ro	000000e0 bsec_program_otp
2ffd6b74 g     F ro	00000098 io_open
2ffe0d38 g     F ro	0000006e fdt_next_node
2ffd9a70 g     F ro	00000104 usb_dwc2_ep_start_xfer
2ffdaff4 g     F ro	0000000e bl2_el3_setup
2ffe0460 g     F ro	00000018 fdt_get_address
2ffd6198 g     F ro	00000024 spin_lock
2ffdb230 g     F ro	0000002c console_is_registered
2ffe0680 g     F ro	0000006c dt_match_instance_by_compatible
2ffde7d4 g     F ro	00000022 ddr_enable_clock
2ffdd204 g     F ro	00000074 fdt_osc_read_uint32_default
2ffe06ec g     F ro	00000024 dt_get_ddr_size
2ffdbc5c g     F ro	00000040 is_mmu_enabled_ctx
2ffdd0b4 g     F ro	0000003c bsec_shadow_read_otp
2ffd7208 g     F ro	00000040 plat_get_image_source
2ffdc878 g     F ro	0000005c tzc400_init
2ffdb1d4 g     F ro	0000005c tf_log
2ffd6ac0 g     F ro	00000028 io_register_device
2ffdd190 g     F ro	00000074 fdt_osc_read_bool
2ffdd2a8 g     F ro	00000030 fdt_rcc_subnode_offset
2ffdace8 g     F ro	0000000c usb_dfu_request_detach
2ffd9a34 g     F ro	0000003c usb_dwc2_write_packet
2ffe81f0 g       .bss	00000000 __RW_END__
2ffdb58c g     F ro	00000028 stm32_get_gpio_bank_base
2ffe0908 g     F ro	00000030 stm32_save_boot_interface
2ffe0498 g     F ro	00000064 fdt_get_status
2ffda194 g     F ro	00000524 usb_core_handle_it
2ffdddac g     F ro	0000000c stm32mp1_clk_rcc_regs_lock
2ffe08b2 g     F ro	00000018 stm32mp_mmio_setbits_32_shregs
2ffe0eac g     F ro	00000010 fdt_string
2ffdbb18 g     F ro	00000074 stm32_iwdg_shadow_update
2ffd67b8 g     F ro	00000048 plat_report_prefetch_abort
2ffd9524 g     F ro	00000054 get_bl_load_info_from_mem_params_desc
2ffe6300 g       stacks	00000000 __STACKS_START__
2ffe0c28 g     F ro	000000c6 fdt_next_tag
2ffdb894 g     F ro	0000015c stm32mp_print_cpuinfo
2ffd6000 g       ro	00000000 __TEXT_RESIDENT_START__
2ffdc6fc g     F ro	00000154 init_xlat_tables_ctx
2ffdfdd4 g     F ro	00000034 print_pmic_info_and_debug
2ffd6f44 g     F ro	00000088 stm32_hash_register
2ffdf2a8 g     F ro	00000450 stm32_i2c_init
2ffdf6f8 g     F ro	0000001c stm32_i2c_mem_write
2ffd9a20 g     F ro	00000014 usb_dwc2_ep0_out_start
2ffdb358  w    F ro	00000004 bl2_plat_handle_pre_image_load
2ffe1104 g     F ro	0000002c fdt_get_alias_namelen
2ffdd3ac g     F ro	00000010 stm32mp_stgen_get_counter
2ffdb57a g     F ro	00000010 stm32mp_lock_available
2ffdd368 g     F ro	00000030 fdt_get_uart_clock_freq
2ffe1826 g     F ro	00000010 strlen
2ffe0260 g     F ro	00000074 stm32mp_reset_deassert_to
2ffde080 g     F ro	000006b0 stm32mp1_clk_init
2ffd629c g     F ro	00000014 report_exception
2ffdb768 g     F ro	00000028 stm32_get_otp_index
2ffdbbe0 g     F ro	00000030 xlat_arch_tlbi_va
2ffdbac8 g     F ro	00000050 stm32_iwdg_get_otp_config
2ffdfbe4 g     F ro	00000028 dt_pmic_status
2ffd6b44 g     F ro	00000030 io_dev_close
2ffd898e g     F ro	00000056 HAL_UART_Init
2ffe13d8 g     F ro	00000018 __assert
2ffdceb0 g     F ro	00000038 bsec_set_sw_lock
2ffe17f8 g     F ro	00000016 strchr
2ffdc850 g     F ro	00000002 xlat_mmap_print
2ffd9428 g     F ro	0000003c stm32mp1_ddr_probe
2ffe017c g     F ro	00000024 stpmic1_regulator_pull_down_set
2ffd6678 g     F ro	00000074 enable_mmu_direct_svc_mon
2ffe130a g     F ro	00000066 fdt_stringlist_search
2ffdd398 g     F ro	00000014 fdt_is_pll1_predefined
2ffe1370 g     F ro	00000028 fdt_node_check_compatible
2ffd6ffc g     F ro	0000020c stm32mp_io_setup
2ffdbda4 g     F ro	00000010 mmap_remove_dynamic_region
2ffdfc18 g     F ro	0000007c dt_pmic_find_supply
2ffdb7c0 g     F ro	00000048 stm32_get_otp_value
2ffe81d4 g     O .bss	00000004 console_list
2ffdb9f0 g     F ro	0000004c stm32mp_print_boardinfo
2ffd96bc g     F ro	00000004 plat_get_next_bl_params
2ffe0acc g     F ro	000000a0 stm32mp1_syscfg_init
2ffdcf64 g     F ro	00000038 bsec_read_sp_lock
2ffdbd48 g     F ro	00000028 mmap_add_region
2ffd9ba0 g     F ro	0000003c usb_dwc2_stop_device
2ffdacdc g     F ro	0000000c usb_dfu_detach_req
2ffe52a0 g       ro	00000000 __PARSER_LIB_DESCS_START__
2ffdfc0c g     F ro	0000000a pmic_configure_boot_on_regulators
2ffda130 g     F ro	0000003c usb_core_transmit



Disassembly of section ro:

2ffd6000 <bl2_entrypoint>:
2ffd6000:	e1a09000 	mov	r9, r0
2ffd6004:	e1a0a001 	mov	sl, r1
2ffd6008:	e1a0b002 	mov	fp, r2
2ffd600c:	e1a0c003 	mov	ip, r3
2ffd6010:	ee110f11 	mrc	15, 0, r0, cr1, cr1, {0}
2ffd6014:	e3100001 	tst	r0, #1
2ffd6018:	0a000002 	beq	2ffd6028 <bl2_entrypoint+0x28>
2ffd601c:	e59f0110 	ldr	r0, [pc, #272]	; 2ffd6134 <do_primary_cold_boot+0x4c>
2ffd6020:	e3a010d4 	mov	r1, #212	; 0xd4
2ffd6024:	ea0000ad 	b	2ffd62e0 <asm_assert>
2ffd6028:	e59f0108 	ldr	r0, [pc, #264]	; 2ffd6138 <do_primary_cold_boot+0x50>
2ffd602c:	ee010f10 	mcr	15, 0, r0, cr1, cr0, {0}
2ffd6030:	f57ff06f 	isb	sy
2ffd6034:	f1020016 	cps	#22
2ffd6038:	f57ff06f 	isb	sy
2ffd603c:	eb00020a 	bl	2ffd686c <plat_get_my_entrypoint>
2ffd6040:	e3500000 	cmp	r0, #0
2ffd6044:	112fff10 	bxne	r0
2ffd6048:	e59f00ec 	ldr	r0, [pc, #236]	; 2ffd613c <do_primary_cold_boot+0x54>
2ffd604c:	ee0c0f10 	mcr	15, 0, r0, cr12, cr0, {0}
2ffd6050:	ee0c0f30 	mcr	15, 0, r0, cr12, cr0, {1}
2ffd6054:	f57ff06f 	isb	sy
2ffd6058:	eb000061 	bl	2ffd61e4 <reset_handler>
2ffd605c:	e59f10dc 	ldr	r1, [pc, #220]	; 2ffd6140 <do_primary_cold_boot+0x58>
2ffd6060:	ee110f10 	mrc	15, 0, r0, cr1, cr0, {0}
2ffd6064:	e1800001 	orr	r0, r0, r1
2ffd6068:	ee010f10 	mcr	15, 0, r0, cr1, cr0, {0}
2ffd606c:	f57ff06f 	isb	sy
2ffd6070:	e3a00c02 	mov	r0, #512	; 0x200
2ffd6074:	ee010f11 	mcr	15, 0, r0, cr1, cr1, {0}
2ffd6078:	f1080100 	cpsie	a
2ffd607c:	f57ff06f 	isb	sy
2ffd6080:	ee110f51 	mrc	15, 0, r0, cr1, cr1, {2}
2ffd6084:	e2000807 	and	r0, r0, #458752	; 0x70000
2ffd6088:	e3800b03 	orr	r0, r0, #3072	; 0xc00
2ffd608c:	ee010f51 	mcr	15, 0, r0, cr1, cr1, {2}
2ffd6090:	f57ff06f 	isb	sy
2ffd6094:	e3a0060f 	mov	r0, #15728640	; 0xf00000
2ffd6098:	ee010f50 	mcr	15, 0, r0, cr1, cr0, {2}
2ffd609c:	f57ff06f 	isb	sy
2ffd60a0:	e59f009c 	ldr	r0, [pc, #156]	; 2ffd6144 <do_primary_cold_boot+0x5c>
2ffd60a4:	eee80a10 	vmsr	fpexc, r0
2ffd60a8:	f57ff06f 	isb	sy
2ffd60ac:	e3a00020 	mov	r0, #32
2ffd60b0:	ee090f1c 	mcr	15, 0, r0, cr9, cr12, {0}
2ffd60b4:	ee100f11 	mrc	15, 0, r0, cr0, cr1, {0}
2ffd60b8:	e200040f 	and	r0, r0, #251658240	; 0xf000000
2ffd60bc:	e3500401 	cmp	r0, #16777216	; 0x1000000
2ffd60c0:	1a000002 	bne	2ffd60d0 <bl2_entrypoint+0xd0>
2ffd60c4:	e10f0000 	mrs	r0, CPSR
2ffd60c8:	e3800602 	orr	r0, r0, #2097152	; 0x200000
2ffd60cc:	e12ff000 	msr	CPSR_fsxc, r0
2ffd60d0:	eb0001e8 	bl	2ffd6878 <plat_is_my_cpu_primary>
2ffd60d4:	e3500000 	cmp	r0, #0
2ffd60d8:	1a000002 	bne	2ffd60e8 <do_primary_cold_boot>
2ffd60dc:	eb0001e4 	bl	2ffd6874 <plat_secondary_cold_boot_setup>
2ffd60e0:	eb00021d 	bl	2ffd695c <plat_panic_handler>
2ffd60e4:	e320f000 	nop	{0}

2ffd60e8 <do_primary_cold_boot>:
2ffd60e8:	eb000188 	bl	2ffd6710 <platform_mem_init>
2ffd60ec:	e59f0054 	ldr	r0, [pc, #84]	; 2ffd6148 <do_primary_cold_boot+0x60>
2ffd60f0:	e59f1054 	ldr	r1, [pc, #84]	; 2ffd614c <do_primary_cold_boot+0x64>
2ffd60f4:	e0411000 	sub	r1, r1, r0
2ffd60f8:	eb0000c9 	bl	2ffd6424 <inv_dcache_range>
2ffd60fc:	e1a0700c 	mov	r7, ip
2ffd6100:	e59f0048 	ldr	r0, [pc, #72]	; 2ffd6150 <do_primary_cold_boot+0x68>
2ffd6104:	e59f1048 	ldr	r1, [pc, #72]	; 2ffd6154 <do_primary_cold_boot+0x6c>
2ffd6108:	eb0000d4 	bl	2ffd6460 <zero_normalmem>
2ffd610c:	e1a0c007 	mov	ip, r7
2ffd6110:	eb00002f 	bl	2ffd61d4 <plat_set_my_stack>
2ffd6114:	e1a00009 	mov	r0, r9
2ffd6118:	e1a0100a 	mov	r1, sl
2ffd611c:	e1a0200b 	mov	r2, fp
2ffd6120:	e1a0300c 	mov	r3, ip
2ffd6124:	fa0013b2 	blx	2ffdaff4 <bl2_el3_setup>
2ffd6128:	fa0013b5 	blx	2ffdb004 <bl2_main>
2ffd612c:	eb00020a 	bl	2ffd695c <plat_panic_handler>
2ffd6130:	e320f000 	nop	{0}
2ffd6134:	2ffe50a3 	.word	0x2ffe50a3
2ffd6138:	00c50038 	.word	0x00c50038
2ffd613c:	2ffe52c0 	.word	0x2ffe52c0
2ffd6140:	00001002 	.word	0x00001002
2ffd6144:	40000700 	.word	0x40000700
2ffd6148:	2ffe6000 	.word	0x2ffe6000
2ffd614c:	2ffe81f0 	.word	0x2ffe81f0
2ffd6150:	2ffe6f00 	.word	0x2ffe6f00
2ffd6154:	000012f0 	.word	0x000012f0

2ffd6158 <bl2_run_next_image>:
2ffd6158:	e1a08000 	mov	r8, r0
2ffd615c:	eb0000df 	bl	2ffd64e0 <disable_mmu_icache_secure>
2ffd6160:	ee080f17 	mcr	15, 0, r0, cr8, cr7, {0}
2ffd6164:	f57ff04f 	dsb	sy
2ffd6168:	f57ff06f 	isb	sy
2ffd616c:	e1a00008 	mov	r0, r8
2ffd6170:	fa001476 	blx	2ffdb350 <bl2_el3_plat_prepare_exit>
2ffd6174:	e598e008 	ldr	lr, [r8, #8]
2ffd6178:	e598100c 	ldr	r1, [r8, #12]
2ffd617c:	e163f001 	msr	SPSR_xc, r1
2ffd6180:	f1020013 	cps	#19
2ffd6184:	e598e010 	ldr	lr, [r8, #16]
2ffd6188:	f1020016 	cps	#22
2ffd618c:	e2888014 	add	r8, r8, #20
2ffd6190:	e898000f 	ldm	r8, {r0, r1, r2, r3}
2ffd6194:	e160006e 	eret

2ffd6198 <spin_lock>:
2ffd6198:	e3a02001 	mov	r2, #1
2ffd619c:	e1901f9f 	ldrex	r1, [r0]
2ffd61a0:	e3510000 	cmp	r1, #0
2ffd61a4:	1320f002 	wfene
2ffd61a8:	01801f92 	strexeq	r1, r2, [r0]
2ffd61ac:	03510000 	cmpeq	r1, #0
2ffd61b0:	1afffff9 	bne	2ffd619c <spin_lock+0x4>
2ffd61b4:	f57ff05f 	dmb	sy
2ffd61b8:	e12fff1e 	bx	lr

2ffd61bc <spin_unlock>:
2ffd61bc:	e3a01000 	mov	r1, #0
2ffd61c0:	f57ff05f 	dmb	sy
2ffd61c4:	e5801000 	str	r1, [r0]
2ffd61c8:	f57ff04f 	dsb	sy
2ffd61cc:	e320f004 	sev
2ffd61d0:	e12fff1e 	bx	lr

2ffd61d4 <plat_set_my_stack>:
2ffd61d4:	e59f0004 	ldr	r0, [pc, #4]	; 2ffd61e0 <plat_set_my_stack+0xc>
2ffd61d8:	e1a0d000 	mov	sp, r0
2ffd61dc:	e12fff1e 	bx	lr
2ffd61e0:	2ffe6f00 	.word	0x2ffe6f00

2ffd61e4 <reset_handler>:
2ffd61e4:	e1a0800e 	mov	r8, lr
2ffd61e8:	eb00019e 	bl	2ffd6868 <plat_reset_handler>
2ffd61ec:	eb00000a 	bl	2ffd621c <get_cpu_ops_ptr>
2ffd61f0:	e3500000 	cmp	r0, #0
2ffd61f4:	1a000002 	bne	2ffd6204 <reset_handler+0x20>
2ffd61f8:	e59f0018 	ldr	r0, [pc, #24]	; 2ffd6218 <reset_handler+0x34>
2ffd61fc:	e3a01023 	mov	r1, #35	; 0x23
2ffd6200:	ea000036 	b	2ffd62e0 <asm_assert>
2ffd6204:	e5901004 	ldr	r1, [r0, #4]
2ffd6208:	e3510000 	cmp	r1, #0
2ffd620c:	e1a0e008 	mov	lr, r8
2ffd6210:	112fff11 	bxne	r1
2ffd6214:	e12fff1e 	bx	lr
2ffd6218:	2ffe50cc 	.word	0x2ffe50cc

2ffd621c <get_cpu_ops_ptr>:
2ffd621c:	e59f4030 	ldr	r4, [pc, #48]	; 2ffd6254 <error_exit+0x4>
2ffd6220:	e59f5030 	ldr	r5, [pc, #48]	; 2ffd6258 <error_exit+0x8>
2ffd6224:	e3a00000 	mov	r0, #0
2ffd6228:	ee102f10 	mrc	15, 0, r2, cr0, cr0, {0}
2ffd622c:	e59f3028 	ldr	r3, [pc, #40]	; 2ffd625c <error_exit+0xc>
2ffd6230:	e0022003 	and	r2, r2, r3
2ffd6234:	e1540005 	cmp	r4, r5
2ffd6238:	2a000004 	bcs	2ffd6250 <error_exit>
2ffd623c:	e4941008 	ldr	r1, [r4], #8
2ffd6240:	e0011003 	and	r1, r1, r3
2ffd6244:	e1510002 	cmp	r1, r2
2ffd6248:	1afffff9 	bne	2ffd6234 <get_cpu_ops_ptr+0x18>
2ffd624c:	e2440008 	sub	r0, r4, #8

2ffd6250 <error_exit>:
2ffd6250:	e12fff1e 	bx	lr
2ffd6254:	2ffe5298 	.word	0x2ffe5298
2ffd6258:	2ffe52a0 	.word	0x2ffe52a0
2ffd625c:	ff00fff0 	.word	0xff00fff0

2ffd6260 <do_panic>:
2ffd6260:	e24e6004 	sub	r6, lr, #4
2ffd6264:	eb00018b 	bl	2ffd6898 <plat_crash_console_init>
2ffd6268:	e3500000 	cmp	r0, #0
2ffd626c:	0a000006 	beq	2ffd628c <do_panic+0x2c>
2ffd6270:	e59f401c 	ldr	r4, [pc, #28]	; 2ffd6294 <do_panic+0x34>
2ffd6274:	eb000038 	bl	2ffd635c <asm_print_str>
2ffd6278:	e1a04006 	mov	r4, r6
2ffd627c:	eb00003d 	bl	2ffd6378 <asm_print_hex>
2ffd6280:	e59f4010 	ldr	r4, [pc, #16]	; 2ffd6298 <do_panic+0x38>
2ffd6284:	eb000034 	bl	2ffd635c <asm_print_str>
2ffd6288:	eb0001ad 	bl	2ffd6944 <plat_crash_console_flush>
2ffd628c:	e1a0e006 	mov	lr, r6
2ffd6290:	ea0001b1 	b	2ffd695c <plat_panic_handler>
2ffd6294:	2ffe50eb 	.word	0x2ffe50eb
2ffd6298:	2ffe50fc 	.word	0x2ffe50fc

2ffd629c <report_exception>:
2ffd629c:	e10f0000 	mrs	r0, CPSR
2ffd62a0:	e200001f 	and	r0, r0, #31
2ffd62a4:	eb00011a 	bl	2ffd6714 <plat_report_exception>
2ffd62a8:	eb0001ab 	bl	2ffd695c <plat_panic_handler>
2ffd62ac:	e320f000 	nop	{0}

2ffd62b0 <report_undef_inst>:
2ffd62b0:	e1060300 	mrs	r0, LR_und
2ffd62b4:	eb000133 	bl	2ffd6788 <plat_report_undef_inst>
2ffd62b8:	eb0001a7 	bl	2ffd695c <plat_panic_handler>
2ffd62bc:	e320f000 	nop	{0}

2ffd62c0 <report_prefetch_abort>:
2ffd62c0:	e1040300 	mrs	r0, LR_abt
2ffd62c4:	eb00013b 	bl	2ffd67b8 <plat_report_prefetch_abort>
2ffd62c8:	eb0001a3 	bl	2ffd695c <plat_panic_handler>
2ffd62cc:	e320f000 	nop	{0}

2ffd62d0 <report_data_abort>:
2ffd62d0:	e1040300 	mrs	r0, LR_abt
2ffd62d4:	eb00014d 	bl	2ffd6810 <plat_report_data_abort>
2ffd62d8:	eb00019f 	bl	2ffd695c <plat_panic_handler>
2ffd62dc:	e320f000 	nop	{0}

2ffd62e0 <asm_assert>:
2ffd62e0:	e1a05000 	mov	r5, r0
2ffd62e4:	e1a06001 	mov	r6, r1
2ffd62e8:	eb00016a 	bl	2ffd6898 <plat_crash_console_init>
2ffd62ec:	e3500000 	cmp	r0, #0
2ffd62f0:	0a000013 	beq	2ffd6344 <dec_print_loop+0x20>
2ffd62f4:	e59f4050 	ldr	r4, [pc, #80]	; 2ffd634c <dec_print_loop+0x28>
2ffd62f8:	eb000017 	bl	2ffd635c <asm_print_str>
2ffd62fc:	e1a04005 	mov	r4, r5
2ffd6300:	eb000015 	bl	2ffd635c <asm_print_str>
2ffd6304:	e59f4044 	ldr	r4, [pc, #68]	; 2ffd6350 <dec_print_loop+0x2c>
2ffd6308:	eb000013 	bl	2ffd635c <asm_print_str>
2ffd630c:	e59f4040 	ldr	r4, [pc, #64]	; 2ffd6354 <dec_print_loop+0x30>
2ffd6310:	e1160004 	tst	r6, r4
2ffd6314:	1a00000a 	bne	2ffd6344 <dec_print_loop+0x20>
2ffd6318:	e1a04006 	mov	r4, r6
2ffd631c:	e3a0600a 	mov	r6, #10
2ffd6320:	e59f5030 	ldr	r5, [pc, #48]	; 2ffd6358 <dec_print_loop+0x34>

2ffd6324 <dec_print_loop>:
2ffd6324:	e730f514 	udiv	r0, r4, r5
2ffd6328:	e0644590 	mls	r4, r0, r5, r4
2ffd632c:	e2800030 	add	r0, r0, #48	; 0x30
2ffd6330:	eb000186 	bl	2ffd6950 <plat_crash_console_putc>
2ffd6334:	e735f615 	udiv	r5, r5, r6
2ffd6338:	e3550000 	cmp	r5, #0
2ffd633c:	1afffff8 	bne	2ffd6324 <dec_print_loop>
2ffd6340:	eb00017f 	bl	2ffd6944 <plat_crash_console_flush>
2ffd6344:	eb000184 	bl	2ffd695c <plat_panic_handler>
2ffd6348:	e320f000 	nop	{0}
2ffd634c:	2ffe50ff 	.word	0x2ffe50ff
2ffd6350:	2ffe510d 	.word	0x2ffe510d
2ffd6354:	ffff0000 	.word	0xffff0000
2ffd6358:	00002710 	.word	0x00002710

2ffd635c <asm_print_str>:
2ffd635c:	e1a0700e 	mov	r7, lr
2ffd6360:	e4d40001 	ldrb	r0, [r4], #1
2ffd6364:	e3500000 	cmp	r0, #0
2ffd6368:	0a000001 	beq	2ffd6374 <asm_print_str+0x18>
2ffd636c:	eb000177 	bl	2ffd6950 <plat_crash_console_putc>
2ffd6370:	eafffffa 	b	2ffd6360 <asm_print_str+0x4>
2ffd6374:	e12fff17 	bx	r7

2ffd6378 <asm_print_hex>:
2ffd6378:	e1a0700e 	mov	r7, lr
2ffd637c:	e3a05020 	mov	r5, #32
2ffd6380:	e2455004 	sub	r5, r5, #4
2ffd6384:	e1a00534 	lsr	r0, r4, r5
2ffd6388:	e200000f 	and	r0, r0, #15
2ffd638c:	e350000a 	cmp	r0, #10
2ffd6390:	3a000000 	bcc	2ffd6398 <asm_print_hex+0x20>
2ffd6394:	e2800027 	add	r0, r0, #39	; 0x27
2ffd6398:	e2800030 	add	r0, r0, #48	; 0x30
2ffd639c:	eb00016b 	bl	2ffd6950 <plat_crash_console_putc>
2ffd63a0:	e3550000 	cmp	r5, #0
2ffd63a4:	1afffff5 	bne	2ffd6380 <asm_print_hex+0x8>
2ffd63a8:	e12fff17 	bx	r7

2ffd63ac <flush_dcache_range>:
2ffd63ac:	e3510000 	cmp	r1, #0
2ffd63b0:	0a00000b 	beq	2ffd63e4 <exit_loop_cimvac>
2ffd63b4:	ee103f30 	mrc	15, 0, r3, cr0, cr0, {1}
2ffd63b8:	e7e33853 	ubfx	r3, r3, #16, #4
2ffd63bc:	e3a02004 	mov	r2, #4
2ffd63c0:	e1a02312 	lsl	r2, r2, r3
2ffd63c4:	e0801001 	add	r1, r0, r1
2ffd63c8:	e2423001 	sub	r3, r2, #1
2ffd63cc:	e1c00003 	bic	r0, r0, r3

2ffd63d0 <loop_cimvac>:
2ffd63d0:	ee070f3e 	mcr	15, 0, r0, cr7, cr14, {1}
2ffd63d4:	e0800002 	add	r0, r0, r2
2ffd63d8:	e1500001 	cmp	r0, r1
2ffd63dc:	3afffffb 	bcc	2ffd63d0 <loop_cimvac>
2ffd63e0:	f57ff04f 	dsb	sy

2ffd63e4 <exit_loop_cimvac>:
2ffd63e4:	e12fff1e 	bx	lr

2ffd63e8 <clean_dcache_range>:
2ffd63e8:	e3510000 	cmp	r1, #0
2ffd63ec:	0a00000b 	beq	2ffd6420 <exit_loop_cmvac>
2ffd63f0:	ee103f30 	mrc	15, 0, r3, cr0, cr0, {1}
2ffd63f4:	e7e33853 	ubfx	r3, r3, #16, #4
2ffd63f8:	e3a02004 	mov	r2, #4
2ffd63fc:	e1a02312 	lsl	r2, r2, r3
2ffd6400:	e0801001 	add	r1, r0, r1
2ffd6404:	e2423001 	sub	r3, r2, #1
2ffd6408:	e1c00003 	bic	r0, r0, r3

2ffd640c <loop_cmvac>:
2ffd640c:	ee070f3a 	mcr	15, 0, r0, cr7, cr10, {1}
2ffd6410:	e0800002 	add	r0, r0, r2
2ffd6414:	e1500001 	cmp	r0, r1
2ffd6418:	3afffffb 	bcc	2ffd640c <loop_cmvac>
2ffd641c:	f57ff04f 	dsb	sy

2ffd6420 <exit_loop_cmvac>:
2ffd6420:	e12fff1e 	bx	lr

2ffd6424 <inv_dcache_range>:
2ffd6424:	e3510000 	cmp	r1, #0
2ffd6428:	0a00000b 	beq	2ffd645c <exit_loop_imvac>
2ffd642c:	ee103f30 	mrc	15, 0, r3, cr0, cr0, {1}
2ffd6430:	e7e33853 	ubfx	r3, r3, #16, #4
2ffd6434:	e3a02004 	mov	r2, #4
2ffd6438:	e1a02312 	lsl	r2, r2, r3
2ffd643c:	e0801001 	add	r1, r0, r1
2ffd6440:	e2423001 	sub	r3, r2, #1
2ffd6444:	e1c00003 	bic	r0, r0, r3

2ffd6448 <loop_imvac>:
2ffd6448:	ee070f36 	mcr	15, 0, r0, cr7, cr6, {1}
2ffd644c:	e0800002 	add	r0, r0, r2
2ffd6450:	e1500001 	cmp	r0, r1
2ffd6454:	3afffffb 	bcc	2ffd6448 <loop_imvac>
2ffd6458:	f57ff04f 	dsb	sy

2ffd645c <exit_loop_imvac>:
2ffd645c:	e12fff1e 	bx	lr

2ffd6460 <zero_normalmem>:
2ffd6460:	e3a02000 	mov	r2, #0
2ffd6464:	e0801001 	add	r1, r0, r1
2ffd6468:	e3100007 	tst	r0, #7
2ffd646c:	0a000007 	beq	2ffd6490 <zero_normalmem+0x30>
2ffd6470:	e380c007 	orr	ip, r0, #7
2ffd6474:	e29cc001 	adds	ip, ip, #1
2ffd6478:	0a00000b 	beq	2ffd64ac <zero_normalmem+0x4c>
2ffd647c:	e15c0001 	cmp	ip, r1
2ffd6480:	2a000009 	bcs	2ffd64ac <zero_normalmem+0x4c>
2ffd6484:	e4c02001 	strb	r2, [r0], #1
2ffd6488:	e150000c 	cmp	r0, ip
2ffd648c:	1afffffc 	bne	2ffd6484 <zero_normalmem+0x24>
2ffd6490:	e3c1c007 	bic	ip, r1, #7
2ffd6494:	e150000c 	cmp	r0, ip
2ffd6498:	2a000003 	bcs	2ffd64ac <zero_normalmem+0x4c>
2ffd649c:	e3a03000 	mov	r3, #0
2ffd64a0:	e8a0000c 	stmia	r0!, {r2, r3}
2ffd64a4:	e150000c 	cmp	r0, ip
2ffd64a8:	3afffffc 	bcc	2ffd64a0 <zero_normalmem+0x40>
2ffd64ac:	e1500001 	cmp	r0, r1
2ffd64b0:	0a000002 	beq	2ffd64c0 <zero_normalmem+0x60>
2ffd64b4:	e4c02001 	strb	r2, [r0], #1
2ffd64b8:	e1500001 	cmp	r0, r1
2ffd64bc:	1afffffc 	bne	2ffd64b4 <zero_normalmem+0x54>
2ffd64c0:	e12fff1e 	bx	lr

2ffd64c4 <disable_mmu_secure>:
2ffd64c4:	e3a01005 	mov	r1, #5

2ffd64c8 <do_disable_mmu>:
2ffd64c8:	ee110f10 	mrc	15, 0, r0, cr1, cr0, {0}
2ffd64cc:	e1c00001 	bic	r0, r0, r1
2ffd64d0:	ee010f10 	mcr	15, 0, r0, cr1, cr0, {0}
2ffd64d4:	f57ff06f 	isb	sy
2ffd64d8:	f57ff04f 	dsb	sy
2ffd64dc:	e12fff1e 	bx	lr

2ffd64e0 <disable_mmu_icache_secure>:
2ffd64e0:	e51f1000 	ldr	r1, [pc, #-0]	; 2ffd64e8 <disable_mmu_icache_secure+0x8>
2ffd64e4:	eafffff7 	b	2ffd64c8 <do_disable_mmu>
2ffd64e8:	00001005 	.word	0x00001005

2ffd64ec <console_stm32_core_init>:
2ffd64ec:	e3500000 	cmp	r0, #0
2ffd64f0:	0a00001a 	beq	2ffd6560 <core_init_fail>
2ffd64f4:	e3510000 	cmp	r1, #0
2ffd64f8:	0a000018 	beq	2ffd6560 <core_init_fail>
2ffd64fc:	e3520000 	cmp	r2, #0
2ffd6500:	0a000016 	beq	2ffd6560 <core_init_fail>
2ffd6504:	e5903000 	ldr	r3, [r0]
2ffd6508:	e3c33001 	bic	r3, r3, #1
2ffd650c:	e5803000 	str	r3, [r0]
2ffd6510:	e3833282 	orr	r3, r3, #536870920	; 0x20000008
2ffd6514:	e5803000 	str	r3, [r0]
2ffd6518:	e5903004 	ldr	r3, [r0, #4]
2ffd651c:	e3c33a03 	bic	r3, r3, #12288	; 0x3000
2ffd6520:	e5803004 	str	r3, [r0, #4]
2ffd6524:	e1a03082 	lsl	r3, r2, #1
2ffd6528:	e0813003 	add	r3, r1, r3
2ffd652c:	e733f213 	udiv	r3, r3, r2
2ffd6530:	e580300c 	str	r3, [r0, #12]
2ffd6534:	e5903000 	ldr	r3, [r0]
2ffd6538:	e3833001 	orr	r3, r3, #1
2ffd653c:	e5803000 	str	r3, [r0]
2ffd6540:	e3a02a01 	mov	r2, #4096	; 0x1000

2ffd6544 <teack_loop>:
2ffd6544:	e2522001 	subs	r2, r2, #1
2ffd6548:	0a000004 	beq	2ffd6560 <core_init_fail>
2ffd654c:	e590301c 	ldr	r3, [r0, #28]
2ffd6550:	e3130602 	tst	r3, #2097152	; 0x200000
2ffd6554:	0afffffa 	beq	2ffd6544 <teack_loop>
2ffd6558:	e3a00001 	mov	r0, #1
2ffd655c:	e12fff1e 	bx	lr

2ffd6560 <core_init_fail>:
2ffd6560:	e3a00000 	mov	r0, #0
2ffd6564:	e12fff1e 	bx	lr

2ffd6568 <console_stm32_register>:
2ffd6568:	e92d4010 	push	{r4, lr}
2ffd656c:	e1a04003 	mov	r4, r3
2ffd6570:	e3540000 	cmp	r4, #0
2ffd6574:	0a00000e 	beq	2ffd65b4 <register_fail>
2ffd6578:	e5840014 	str	r0, [r4, #20]
2ffd657c:	ebffffda 	bl	2ffd64ec <console_stm32_core_init>
2ffd6580:	e3500000 	cmp	r0, #0
2ffd6584:	0a00000a 	beq	2ffd65b4 <register_fail>
2ffd6588:	e1a00004 	mov	r0, r4
2ffd658c:	e8bd4010 	pop	{r4, lr}
2ffd6590:	e59f1020 	ldr	r1, [pc, #32]	; 2ffd65b8 <register_fail+0x4>
2ffd6594:	e5801008 	str	r1, [r0, #8]
2ffd6598:	e3a01000 	mov	r1, #0
2ffd659c:	e580100c 	str	r1, [r0, #12]
2ffd65a0:	e59f1014 	ldr	r1, [pc, #20]	; 2ffd65bc <register_fail+0x8>
2ffd65a4:	e5801010 	str	r1, [r0, #16]
2ffd65a8:	e3a01005 	mov	r1, #5
2ffd65ac:	e5801004 	str	r1, [r0, #4]
2ffd65b0:	ea003b52 	b	2ffe5300 <__console_register_from_arm>

2ffd65b4 <register_fail>:
2ffd65b4:	e8bd8010 	pop	{r4, pc}
2ffd65b8:	2ffd6608 	.word	0x2ffd6608
2ffd65bc:	2ffd6658 	.word	0x2ffd6658

2ffd65c0 <console_stm32_core_putc>:
2ffd65c0:	e3510000 	cmp	r1, #0
2ffd65c4:	0a00000d 	beq	2ffd6600 <putc_error>
2ffd65c8:	e3a03a01 	mov	r3, #4096	; 0x1000

2ffd65cc <txe_loop>:
2ffd65cc:	e2533001 	subs	r3, r3, #1
2ffd65d0:	0a00000a 	beq	2ffd6600 <putc_error>
2ffd65d4:	e591201c 	ldr	r2, [r1, #28]
2ffd65d8:	e3120080 	tst	r2, #128	; 0x80
2ffd65dc:	0afffffa 	beq	2ffd65cc <txe_loop>
2ffd65e0:	e5810028 	str	r0, [r1, #40]	; 0x28
2ffd65e4:	e3a03a01 	mov	r3, #4096	; 0x1000

2ffd65e8 <tc_loop>:
2ffd65e8:	e2533001 	subs	r3, r3, #1
2ffd65ec:	0a000003 	beq	2ffd6600 <putc_error>
2ffd65f0:	e591201c 	ldr	r2, [r1, #28]
2ffd65f4:	e3120040 	tst	r2, #64	; 0x40
2ffd65f8:	0afffffa 	beq	2ffd65e8 <tc_loop>
2ffd65fc:	e12fff1e 	bx	lr

2ffd6600 <putc_error>:
2ffd6600:	e3e00000 	mvn	r0, #0
2ffd6604:	e12fff1e 	bx	lr

2ffd6608 <console_stm32_putc>:
2ffd6608:	e3510000 	cmp	r1, #0
2ffd660c:	1a000002 	bne	2ffd661c <console_stm32_putc+0x14>
2ffd6610:	e59f000c 	ldr	r0, [pc, #12]	; 2ffd6624 <console_stm32_putc+0x1c>
2ffd6614:	e3a010b0 	mov	r1, #176	; 0xb0
2ffd6618:	eaffff30 	b	2ffd62e0 <asm_assert>
2ffd661c:	e5911014 	ldr	r1, [r1, #20]
2ffd6620:	eaffffe6 	b	2ffd65c0 <console_stm32_core_putc>
2ffd6624:	2ffe5114 	.word	0x2ffe5114

2ffd6628 <console_stm32_core_flush>:
2ffd6628:	e3500000 	cmp	r0, #0
2ffd662c:	0a000007 	beq	2ffd6650 <flush_error>
2ffd6630:	e3a02a01 	mov	r2, #4096	; 0x1000

2ffd6634 <txe_loop_3>:
2ffd6634:	e2522001 	subs	r2, r2, #1
2ffd6638:	0a000004 	beq	2ffd6650 <flush_error>
2ffd663c:	e590101c 	ldr	r1, [r0, #28]
2ffd6640:	e3110080 	tst	r1, #128	; 0x80
2ffd6644:	0afffffa 	beq	2ffd6634 <txe_loop_3>
2ffd6648:	e3a00000 	mov	r0, #0
2ffd664c:	e12fff1e 	bx	lr

2ffd6650 <flush_error>:
2ffd6650:	e3e00000 	mvn	r0, #0
2ffd6654:	e12fff1e 	bx	lr

2ffd6658 <console_stm32_flush>:
2ffd6658:	e3500000 	cmp	r0, #0
2ffd665c:	1a000002 	bne	2ffd666c <console_stm32_flush+0x14>
2ffd6660:	e59f000c 	ldr	r0, [pc, #12]	; 2ffd6674 <console_stm32_flush+0x1c>
2ffd6664:	e3a010f0 	mov	r1, #240	; 0xf0
2ffd6668:	eaffff1c 	b	2ffd62e0 <asm_assert>
2ffd666c:	e5900014 	ldr	r0, [r0, #20]
2ffd6670:	eaffffec 	b	2ffd6628 <console_stm32_core_flush>
2ffd6674:	2ffe5114 	.word	0x2ffe5114

2ffd6678 <enable_mmu_direct_svc_mon>:
2ffd6678:	ee111f10 	mrc	15, 0, r1, cr1, cr0, {0}
2ffd667c:	e3110001 	tst	r1, #1
2ffd6680:	0a000002 	beq	2ffd6690 <enable_mmu_direct_svc_mon+0x18>
2ffd6684:	e59f0060 	ldr	r0, [pc, #96]	; 2ffd66ec <enable_mmu_direct_svc_mon+0x74>
2ffd6688:	e3a01014 	mov	r1, #20
2ffd668c:	eaffff13 	b	2ffd62e0 <asm_assert>
2ffd6690:	ee080f17 	mcr	15, 0, r0, cr8, cr7, {0}
2ffd6694:	e1a03000 	mov	r3, r0
2ffd6698:	e59f0050 	ldr	r0, [pc, #80]	; 2ffd66f0 <enable_mmu_direct_svc_mon+0x78>
2ffd669c:	e5901000 	ldr	r1, [r0]
2ffd66a0:	ee0a1f12 	mcr	15, 0, r1, cr10, cr2, {0}
2ffd66a4:	e5902008 	ldr	r2, [r0, #8]
2ffd66a8:	ee022f50 	mcr	15, 0, r2, cr2, cr0, {2}
2ffd66ac:	e5901010 	ldr	r1, [r0, #16]
2ffd66b0:	e5902014 	ldr	r2, [r0, #20]
2ffd66b4:	ec421f02 	mcrr	15, 0, r1, r2, cr2
2ffd66b8:	e3a01000 	mov	r1, #0
2ffd66bc:	e3a02000 	mov	r2, #0
2ffd66c0:	ec421f12 	mcrr	15, 1, r1, r2, cr2
2ffd66c4:	f57ff04b 	dsb	ish
2ffd66c8:	f57ff06f 	isb	sy
2ffd66cc:	ee111f10 	mrc	15, 0, r1, cr1, cr0, {0}
2ffd66d0:	e59f201c 	ldr	r2, [pc, #28]	; 2ffd66f4 <enable_mmu_direct_svc_mon+0x7c>
2ffd66d4:	e1811002 	orr	r1, r1, r2
2ffd66d8:	e3130001 	tst	r3, #1
2ffd66dc:	13c11004 	bicne	r1, r1, #4
2ffd66e0:	ee011f10 	mcr	15, 0, r1, cr1, cr0, {0}
2ffd66e4:	f57ff06f 	isb	sy
2ffd66e8:	e12fff1e 	bx	lr
2ffd66ec:	2ffe513c 	.word	0x2ffe513c
2ffd66f0:	2ffe81d8 	.word	0x2ffe81d8
2ffd66f4:	00080005 	.word	0x00080005

2ffd66f8 <cortex_a7_enable_smp>:
2ffd66f8:	ee110f30 	mrc	15, 0, r0, cr1, cr0, {1}
2ffd66fc:	e3800040 	orr	r0, r0, #64	; 0x40
2ffd6700:	ee010f30 	mcr	15, 0, r0, cr1, cr0, {1}
2ffd6704:	f57ff06f 	isb	sy
2ffd6708:	e12fff1e 	bx	lr

2ffd670c <cortex_a7_reset_func>:
2ffd670c:	eafffff9 	b	2ffd66f8 <cortex_a7_enable_smp>

2ffd6710 <platform_mem_init>:
2ffd6710:	e12fff1e 	bx	lr

2ffd6714 <plat_report_exception>:
2ffd6714:	e1a0800e 	mov	r8, lr
2ffd6718:	e3500017 	cmp	r0, #23
2ffd671c:	1a000002 	bne	2ffd672c <undef_inst_lbl>
2ffd6720:	e59f404c 	ldr	r4, [pc, #76]	; 2ffd6774 <print_excpetion_info+0x18>
2ffd6724:	ebffff0c 	bl	2ffd635c <asm_print_str>
2ffd6728:	ea00000b 	b	2ffd675c <print_excpetion_info>

2ffd672c <undef_inst_lbl>:
2ffd672c:	e350001b 	cmp	r0, #27
2ffd6730:	1a000002 	bne	2ffd6740 <other_excpetion_lbl>
2ffd6734:	e59f403c 	ldr	r4, [pc, #60]	; 2ffd6778 <print_excpetion_info+0x1c>
2ffd6738:	ebffff07 	bl	2ffd635c <asm_print_str>
2ffd673c:	ea000006 	b	2ffd675c <print_excpetion_info>

2ffd6740 <other_excpetion_lbl>:
2ffd6740:	e1a09000 	mov	r9, r0
2ffd6744:	e59f4030 	ldr	r4, [pc, #48]	; 2ffd677c <print_excpetion_info+0x20>
2ffd6748:	ebffff03 	bl	2ffd635c <asm_print_str>
2ffd674c:	e1a04009 	mov	r4, r9
2ffd6750:	ebffff08 	bl	2ffd6378 <asm_print_hex>
2ffd6754:	e59f4024 	ldr	r4, [pc, #36]	; 2ffd6780 <print_excpetion_info+0x24>
2ffd6758:	ebfffeff 	bl	2ffd635c <asm_print_str>

2ffd675c <print_excpetion_info>:
2ffd675c:	e1024300 	mrs	r4, LR_svc
2ffd6760:	e2444004 	sub	r4, r4, #4
2ffd6764:	ebffff03 	bl	2ffd6378 <asm_print_hex>
2ffd6768:	e59f4014 	ldr	r4, [pc, #20]	; 2ffd6784 <print_excpetion_info+0x28>
2ffd676c:	ebfffefa 	bl	2ffd635c <asm_print_str>
2ffd6770:	e12fff18 	bx	r8
2ffd6774:	2ffe5164 	.word	0x2ffe5164
2ffd6778:	2ffe519c 	.word	0x2ffe519c
2ffd677c:	2ffe51ba 	.word	0x2ffe51ba
2ffd6780:	2ffe51cd 	.word	0x2ffe51cd
2ffd6784:	2ffe5201 	.word	0x2ffe5201

2ffd6788 <plat_report_undef_inst>:
2ffd6788:	e1a0800e 	mov	r8, lr
2ffd678c:	e1a09000 	mov	r9, r0
2ffd6790:	e59f4018 	ldr	r4, [pc, #24]	; 2ffd67b0 <plat_report_undef_inst+0x28>
2ffd6794:	ebfffef0 	bl	2ffd635c <asm_print_str>
2ffd6798:	e1a04009 	mov	r4, r9
2ffd679c:	e2444004 	sub	r4, r4, #4
2ffd67a0:	ebfffef4 	bl	2ffd6378 <asm_print_hex>
2ffd67a4:	e59f4008 	ldr	r4, [pc, #8]	; 2ffd67b4 <plat_report_undef_inst+0x2c>
2ffd67a8:	ebfffeeb 	bl	2ffd635c <asm_print_str>
2ffd67ac:	e12fff18 	bx	r8
2ffd67b0:	2ffe519c 	.word	0x2ffe519c
2ffd67b4:	2ffe5201 	.word	0x2ffe5201

2ffd67b8 <plat_report_prefetch_abort>:
2ffd67b8:	e1a0800e 	mov	r8, lr
2ffd67bc:	e1a09000 	mov	r9, r0
2ffd67c0:	e59f4038 	ldr	r4, [pc, #56]	; 2ffd6800 <plat_report_prefetch_abort+0x48>
2ffd67c4:	ebfffee4 	bl	2ffd635c <asm_print_str>
2ffd67c8:	e1a04009 	mov	r4, r9
2ffd67cc:	e2444004 	sub	r4, r4, #4
2ffd67d0:	ebfffee8 	bl	2ffd6378 <asm_print_hex>
2ffd67d4:	e59f4028 	ldr	r4, [pc, #40]	; 2ffd6804 <plat_report_prefetch_abort+0x4c>
2ffd67d8:	ebfffedf 	bl	2ffd635c <asm_print_str>
2ffd67dc:	ee154f30 	mrc	15, 0, r4, cr5, cr0, {1}
2ffd67e0:	ebfffee4 	bl	2ffd6378 <asm_print_hex>
2ffd67e4:	e59f401c 	ldr	r4, [pc, #28]	; 2ffd6808 <plat_report_prefetch_abort+0x50>
2ffd67e8:	ebfffedb 	bl	2ffd635c <asm_print_str>
2ffd67ec:	ee164f50 	mrc	15, 0, r4, cr6, cr0, {2}
2ffd67f0:	ebfffee0 	bl	2ffd6378 <asm_print_hex>
2ffd67f4:	e59f4010 	ldr	r4, [pc, #16]	; 2ffd680c <plat_report_prefetch_abort+0x54>
2ffd67f8:	ebfffed7 	bl	2ffd635c <asm_print_str>
2ffd67fc:	e12fff18 	bx	r8
2ffd6800:	2ffe5172 	.word	0x2ffe5172
2ffd6804:	2ffe51eb 	.word	0x2ffe51eb
2ffd6808:	2ffe51f6 	.word	0x2ffe51f6
2ffd680c:	2ffe5201 	.word	0x2ffe5201

2ffd6810 <plat_report_data_abort>:
2ffd6810:	e1a0800e 	mov	r8, lr
2ffd6814:	e1a09000 	mov	r9, r0
2ffd6818:	e59f4038 	ldr	r4, [pc, #56]	; 2ffd6858 <plat_report_data_abort+0x48>
2ffd681c:	ebfffece 	bl	2ffd635c <asm_print_str>
2ffd6820:	e1a04009 	mov	r4, r9
2ffd6824:	e2444008 	sub	r4, r4, #8
2ffd6828:	ebfffed2 	bl	2ffd6378 <asm_print_hex>
2ffd682c:	e59f4028 	ldr	r4, [pc, #40]	; 2ffd685c <plat_report_data_abort+0x4c>
2ffd6830:	ebfffec9 	bl	2ffd635c <asm_print_str>
2ffd6834:	ee154f10 	mrc	15, 0, r4, cr5, cr0, {0}
2ffd6838:	ebfffece 	bl	2ffd6378 <asm_print_hex>
2ffd683c:	e59f401c 	ldr	r4, [pc, #28]	; 2ffd6860 <plat_report_data_abort+0x50>
2ffd6840:	ebfffec5 	bl	2ffd635c <asm_print_str>
2ffd6844:	ee164f10 	mrc	15, 0, r4, cr6, cr0, {0}
2ffd6848:	ebfffeca 	bl	2ffd6378 <asm_print_hex>
2ffd684c:	e59f4010 	ldr	r4, [pc, #16]	; 2ffd6864 <plat_report_data_abort+0x54>
2ffd6850:	ebfffec1 	bl	2ffd635c <asm_print_str>
2ffd6854:	e12fff18 	bx	r8
2ffd6858:	2ffe5189 	.word	0x2ffe5189
2ffd685c:	2ffe51d5 	.word	0x2ffe51d5
2ffd6860:	2ffe51e0 	.word	0x2ffe51e0
2ffd6864:	2ffe5201 	.word	0x2ffe5201

2ffd6868 <plat_reset_handler>:
2ffd6868:	e12fff1e 	bx	lr

2ffd686c <plat_get_my_entrypoint>:
2ffd686c:	e3a00000 	mov	r0, #0
2ffd6870:	e12fff1e 	bx	lr

2ffd6874 <plat_secondary_cold_boot_setup>:
2ffd6874:	eafffffe 	b	2ffd6874 <plat_secondary_cold_boot_setup>

2ffd6878 <plat_is_my_cpu_primary>:
2ffd6878:	ee100fb0 	mrc	15, 0, r0, cr0, cr0, {5}
2ffd687c:	e59f1010 	ldr	r1, [pc, #16]	; 2ffd6894 <plat_is_my_cpu_primary+0x1c>
2ffd6880:	e0000001 	and	r0, r0, r1
2ffd6884:	e3500000 	cmp	r0, #0
2ffd6888:	03a00001 	moveq	r0, #1
2ffd688c:	13a00000 	movne	r0, #0
2ffd6890:	e12fff1e 	bx	lr
2ffd6894:	0000ffff 	.word	0x0000ffff

2ffd6898 <plat_crash_console_init>:
2ffd6898:	e59f1088 	ldr	r1, [pc, #136]	; 2ffd6928 <plat_crash_console_init+0x90>
2ffd689c:	e5912000 	ldr	r2, [r1]
2ffd68a0:	e3822040 	orr	r2, r2, #64	; 0x40
2ffd68a4:	e5812000 	str	r2, [r1]
2ffd68a8:	e59f107c 	ldr	r1, [pc, #124]	; 2ffd692c <plat_crash_console_init+0x94>
2ffd68ac:	e5912000 	ldr	r2, [r1]
2ffd68b0:	e3c22503 	bic	r2, r2, #12582912	; 0xc00000
2ffd68b4:	e3822502 	orr	r2, r2, #8388608	; 0x800000
2ffd68b8:	e5812000 	str	r2, [r1]
2ffd68bc:	e5912008 	ldr	r2, [r1, #8]
2ffd68c0:	e3c22503 	bic	r2, r2, #12582912	; 0xc00000
2ffd68c4:	e5812008 	str	r2, [r1, #8]
2ffd68c8:	e591200c 	ldr	r2, [r1, #12]
2ffd68cc:	e3c22503 	bic	r2, r2, #12582912	; 0xc00000
2ffd68d0:	e581200c 	str	r2, [r1, #12]
2ffd68d4:	e3a0200b 	mov	r2, #11
2ffd68d8:	e3520008 	cmp	r2, #8
2ffd68dc:	a5912024 	ldrge	r2, [r1, #36]	; 0x24
2ffd68e0:	a3c22a0f 	bicge	r2, r2, #61440	; 0xf000
2ffd68e4:	a3822a06 	orrge	r2, r2, #24576	; 0x6000
2ffd68e8:	a5812024 	strge	r2, [r1, #36]	; 0x24
2ffd68ec:	b5912020 	ldrlt	r2, [r1, #32]
2ffd68f0:	b3c22000 	biclt	r2, r2, #0
2ffd68f4:	b3822000 	orrlt	r2, r2, #0
2ffd68f8:	b5812020 	strlt	r2, [r1, #32]
2ffd68fc:	e59f102c 	ldr	r1, [pc, #44]	; 2ffd6930 <plat_crash_console_init+0x98>
2ffd6900:	e3a02002 	mov	r2, #2
2ffd6904:	e5812000 	str	r2, [r1]
2ffd6908:	e59f1024 	ldr	r1, [pc, #36]	; 2ffd6934 <plat_crash_console_init+0x9c>
2ffd690c:	e5912000 	ldr	r2, [r1]
2ffd6910:	e3822801 	orr	r2, r2, #65536	; 0x10000
2ffd6914:	e5812000 	str	r2, [r1]
2ffd6918:	e59f0018 	ldr	r0, [pc, #24]	; 2ffd6938 <plat_crash_console_init+0xa0>
2ffd691c:	e59f1018 	ldr	r1, [pc, #24]	; 2ffd693c <plat_crash_console_init+0xa4>
2ffd6920:	e59f2018 	ldr	r2, [pc, #24]	; 2ffd6940 <plat_crash_console_init+0xa8>
2ffd6924:	eafffef0 	b	2ffd64ec <console_stm32_core_init>
2ffd6928:	50000a28 	.word	0x50000a28
2ffd692c:	50008000 	.word	0x50008000
2ffd6930:	500008e8 	.word	0x500008e8
2ffd6934:	50000a00 	.word	0x50000a00
2ffd6938:	40010000 	.word	0x40010000
2ffd693c:	03d09000 	.word	0x03d09000
2ffd6940:	0001c200 	.word	0x0001c200

2ffd6944 <plat_crash_console_flush>:
2ffd6944:	e51f1000 	ldr	r1, [pc, #-0]	; 2ffd694c <plat_crash_console_flush+0x8>
2ffd6948:	eaffff36 	b	2ffd6628 <console_stm32_core_flush>
2ffd694c:	40010000 	.word	0x40010000

2ffd6950 <plat_crash_console_putc>:
2ffd6950:	e51f1000 	ldr	r1, [pc, #-0]	; 2ffd6958 <plat_crash_console_putc+0x8>
2ffd6954:	eaffff19 	b	2ffd65c0 <console_stm32_core_putc>
2ffd6958:	40010000 	.word	0x40010000

2ffd695c <plat_panic_handler>:
2ffd695c:	e10f0000 	mrs	r0, CPSR
2ffd6960:	e200001f 	and	r0, r0, #31
2ffd6964:	ebffff6a 	bl	2ffd6714 <plat_report_exception>
2ffd6968:	e1a0e006 	mov	lr, r6
2ffd696c:	eafffffe 	b	2ffd696c <plat_panic_handler+0x10>

2ffd6970 <device_type_dummy>:
2ffd6970:	2003      	movs	r0, #3
2ffd6972:	4770      	bx	lr

2ffd6974 <dummy_dev_close>:
2ffd6974:	2000      	movs	r0, #0
2ffd6976:	4770      	bx	lr

2ffd6978 <dummy_dev_open>:
2ffd6978:	b508      	push	{r3, lr}
2ffd697a:	b919      	cbnz	r1, 2ffd6984 <dummy_dev_open+0xc>
2ffd697c:	4803      	ldr	r0, [pc, #12]	; (2ffd698c <dummy_dev_open+0x14>)
2ffd697e:	2143      	movs	r1, #67	; 0x43
2ffd6980:	f00a fd2a 	bl	2ffe13d8 <__assert>
2ffd6984:	4b02      	ldr	r3, [pc, #8]	; (2ffd6990 <dummy_dev_open+0x18>)
2ffd6986:	2000      	movs	r0, #0
2ffd6988:	600b      	str	r3, [r1, #0]
2ffd698a:	bd08      	pop	{r3, pc}
2ffd698c:	2ffe18cb 	.word	0x2ffe18cb
2ffd6990:	2ffe193c 	.word	0x2ffe193c

2ffd6994 <dummy_block_close>:
2ffd6994:	b508      	push	{r3, lr}
2ffd6996:	4603      	mov	r3, r0
2ffd6998:	b918      	cbnz	r0, 2ffd69a2 <dummy_block_close+0xe>
2ffd699a:	4804      	ldr	r0, [pc, #16]	; (2ffd69ac <dummy_block_close+0x18>)
2ffd699c:	2184      	movs	r1, #132	; 0x84
2ffd699e:	f00a fd1b 	bl	2ffe13d8 <__assert>
2ffd69a2:	2000      	movs	r0, #0
2ffd69a4:	6058      	str	r0, [r3, #4]
2ffd69a6:	4b02      	ldr	r3, [pc, #8]	; (2ffd69b0 <dummy_block_close+0x1c>)
2ffd69a8:	6018      	str	r0, [r3, #0]
2ffd69aa:	bd08      	pop	{r3, pc}
2ffd69ac:	2ffe18cb 	.word	0x2ffe18cb
2ffd69b0:	2ffe7078 	.word	0x2ffe7078

2ffd69b4 <dummy_block_read>:
2ffd69b4:	b508      	push	{r3, lr}
2ffd69b6:	b91b      	cbnz	r3, 2ffd69c0 <dummy_block_read+0xc>
2ffd69b8:	4803      	ldr	r0, [pc, #12]	; (2ffd69c8 <dummy_block_read+0x14>)
2ffd69ba:	2179      	movs	r1, #121	; 0x79
2ffd69bc:	f00a fd0c 	bl	2ffe13d8 <__assert>
2ffd69c0:	601a      	str	r2, [r3, #0]
2ffd69c2:	2000      	movs	r0, #0
2ffd69c4:	bd08      	pop	{r3, pc}
2ffd69c6:	bf00      	nop
2ffd69c8:	2ffe18cb 	.word	0x2ffe18cb

2ffd69cc <dummy_block_len>:
2ffd69cc:	b508      	push	{r3, lr}
2ffd69ce:	b918      	cbnz	r0, 2ffd69d8 <dummy_block_len+0xc>
2ffd69d0:	216c      	movs	r1, #108	; 0x6c
2ffd69d2:	4805      	ldr	r0, [pc, #20]	; (2ffd69e8 <dummy_block_len+0x1c>)
2ffd69d4:	f00a fd00 	bl	2ffe13d8 <__assert>
2ffd69d8:	b909      	cbnz	r1, 2ffd69de <dummy_block_len+0x12>
2ffd69da:	216d      	movs	r1, #109	; 0x6d
2ffd69dc:	e7f9      	b.n	2ffd69d2 <dummy_block_len+0x6>
2ffd69de:	6843      	ldr	r3, [r0, #4]
2ffd69e0:	2000      	movs	r0, #0
2ffd69e2:	685b      	ldr	r3, [r3, #4]
2ffd69e4:	600b      	str	r3, [r1, #0]
2ffd69e6:	bd08      	pop	{r3, pc}
2ffd69e8:	2ffe18cb 	.word	0x2ffe18cb

2ffd69ec <dummy_block_open>:
2ffd69ec:	4b0b      	ldr	r3, [pc, #44]	; (2ffd6a1c <dummy_block_open+0x30>)
2ffd69ee:	b510      	push	{r4, lr}
2ffd69f0:	6818      	ldr	r0, [r3, #0]
2ffd69f2:	b968      	cbnz	r0, 2ffd6a10 <dummy_block_open+0x24>
2ffd69f4:	b919      	cbnz	r1, 2ffd69fe <dummy_block_open+0x12>
2ffd69f6:	2159      	movs	r1, #89	; 0x59
2ffd69f8:	4809      	ldr	r0, [pc, #36]	; (2ffd6a20 <dummy_block_open+0x34>)
2ffd69fa:	f00a fced 	bl	2ffe13d8 <__assert>
2ffd69fe:	b90a      	cbnz	r2, 2ffd6a04 <dummy_block_open+0x18>
2ffd6a00:	215a      	movs	r1, #90	; 0x5a
2ffd6a02:	e7f9      	b.n	2ffd69f8 <dummy_block_open+0xc>
2ffd6a04:	6849      	ldr	r1, [r1, #4]
2ffd6a06:	2401      	movs	r4, #1
2ffd6a08:	601c      	str	r4, [r3, #0]
2ffd6a0a:	6059      	str	r1, [r3, #4]
2ffd6a0c:	6053      	str	r3, [r2, #4]
2ffd6a0e:	bd10      	pop	{r4, pc}
2ffd6a10:	4804      	ldr	r0, [pc, #16]	; (2ffd6a24 <dummy_block_open+0x38>)
2ffd6a12:	f004 fbdf 	bl	2ffdb1d4 <tf_log>
2ffd6a16:	f06f 000b 	mvn.w	r0, #11
2ffd6a1a:	e7f8      	b.n	2ffd6a0e <dummy_block_open+0x22>
2ffd6a1c:	2ffe7078 	.word	0x2ffe7078
2ffd6a20:	2ffe18cb 	.word	0x2ffe18cb
2ffd6a24:	2ffe18e1 	.word	0x2ffe18e1

2ffd6a28 <register_io_dev_dummy>:
2ffd6a28:	b510      	push	{r4, lr}
2ffd6a2a:	4604      	mov	r4, r0
2ffd6a2c:	b918      	cbnz	r0, 2ffd6a36 <register_io_dev_dummy+0xe>
2ffd6a2e:	4805      	ldr	r0, [pc, #20]	; (2ffd6a44 <register_io_dev_dummy+0x1c>)
2ffd6a30:	2194      	movs	r1, #148	; 0x94
2ffd6a32:	f00a fcd1 	bl	2ffe13d8 <__assert>
2ffd6a36:	4804      	ldr	r0, [pc, #16]	; (2ffd6a48 <register_io_dev_dummy+0x20>)
2ffd6a38:	f000 f842 	bl	2ffd6ac0 <io_register_device>
2ffd6a3c:	b908      	cbnz	r0, 2ffd6a42 <register_io_dev_dummy+0x1a>
2ffd6a3e:	4b03      	ldr	r3, [pc, #12]	; (2ffd6a4c <register_io_dev_dummy+0x24>)
2ffd6a40:	6023      	str	r3, [r4, #0]
2ffd6a42:	bd10      	pop	{r4, pc}
2ffd6a44:	2ffe18cb 	.word	0x2ffe18cb
2ffd6a48:	2ffe193c 	.word	0x2ffe193c
2ffd6a4c:	2ffe1914 	.word	0x2ffe1914

2ffd6a50 <is_valid_dev>:
2ffd6a50:	b508      	push	{r3, lr}
2ffd6a52:	b140      	cbz	r0, 2ffd6a66 <is_valid_dev+0x16>
2ffd6a54:	6800      	ldr	r0, [r0, #0]
2ffd6a56:	b130      	cbz	r0, 2ffd6a66 <is_valid_dev+0x16>
2ffd6a58:	6800      	ldr	r0, [r0, #0]
2ffd6a5a:	b120      	cbz	r0, 2ffd6a66 <is_valid_dev+0x16>
2ffd6a5c:	4780      	blx	r0
2ffd6a5e:	280a      	cmp	r0, #10
2ffd6a60:	bf8c      	ite	hi
2ffd6a62:	2000      	movhi	r0, #0
2ffd6a64:	2001      	movls	r0, #1
2ffd6a66:	bd08      	pop	{r3, pc}

2ffd6a68 <is_valid_entity>:
2ffd6a68:	b508      	push	{r3, lr}
2ffd6a6a:	b128      	cbz	r0, 2ffd6a78 <is_valid_entity+0x10>
2ffd6a6c:	6800      	ldr	r0, [r0, #0]
2ffd6a6e:	f7ff ffef 	bl	2ffd6a50 <is_valid_dev>
2ffd6a72:	3800      	subs	r0, #0
2ffd6a74:	bf18      	it	ne
2ffd6a76:	2001      	movne	r0, #1
2ffd6a78:	bd08      	pop	{r3, pc}
	...

2ffd6a7c <free_entity>:
2ffd6a7c:	b510      	push	{r4, lr}
2ffd6a7e:	b918      	cbnz	r0, 2ffd6a88 <free_entity+0xc>
2ffd6a80:	480c      	ldr	r0, [pc, #48]	; (2ffd6ab4 <free_entity+0x38>)
2ffd6a82:	2184      	movs	r1, #132	; 0x84
2ffd6a84:	f00a fca8 	bl	2ffe13d8 <__assert>
2ffd6a88:	4a0b      	ldr	r2, [pc, #44]	; (2ffd6ab8 <free_entity+0x3c>)
2ffd6a8a:	2300      	movs	r3, #0
2ffd6a8c:	4611      	mov	r1, r2
2ffd6a8e:	f852 4b04 	ldr.w	r4, [r2], #4
2ffd6a92:	42a0      	cmp	r0, r4
2ffd6a94:	d005      	beq.n	2ffd6aa2 <free_entity+0x26>
2ffd6a96:	3301      	adds	r3, #1
2ffd6a98:	2b04      	cmp	r3, #4
2ffd6a9a:	d1f8      	bne.n	2ffd6a8e <free_entity+0x12>
2ffd6a9c:	f06f 0001 	mvn.w	r0, #1
2ffd6aa0:	bd10      	pop	{r4, pc}
2ffd6aa2:	4a06      	ldr	r2, [pc, #24]	; (2ffd6abc <free_entity+0x40>)
2ffd6aa4:	2000      	movs	r0, #0
2ffd6aa6:	f841 0023 	str.w	r0, [r1, r3, lsl #2]
2ffd6aaa:	6813      	ldr	r3, [r2, #0]
2ffd6aac:	3b01      	subs	r3, #1
2ffd6aae:	6013      	str	r3, [r2, #0]
2ffd6ab0:	e7f6      	b.n	2ffd6aa0 <free_entity+0x24>
2ffd6ab2:	bf00      	nop
2ffd6ab4:	2ffe1944 	.word	0x2ffe1944
2ffd6ab8:	2ffe7088 	.word	0x2ffe7088
2ffd6abc:	2ffe7084 	.word	0x2ffe7084

2ffd6ac0 <io_register_device>:
2ffd6ac0:	b508      	push	{r3, lr}
2ffd6ac2:	b918      	cbnz	r0, 2ffd6acc <io_register_device+0xc>
2ffd6ac4:	4806      	ldr	r0, [pc, #24]	; (2ffd6ae0 <io_register_device+0x20>)
2ffd6ac6:	2196      	movs	r1, #150	; 0x96
2ffd6ac8:	f00a fc86 	bl	2ffe13d8 <__assert>
2ffd6acc:	4a05      	ldr	r2, [pc, #20]	; (2ffd6ae4 <io_register_device+0x24>)
2ffd6ace:	6813      	ldr	r3, [r2, #0]
2ffd6ad0:	2b03      	cmp	r3, #3
2ffd6ad2:	bf9d      	ittte	ls
2ffd6ad4:	3301      	addls	r3, #1
2ffd6ad6:	2000      	movls	r0, #0
2ffd6ad8:	6013      	strls	r3, [r2, #0]
2ffd6ada:	f06f 000b 	mvnhi.w	r0, #11
2ffd6ade:	bd08      	pop	{r3, pc}
2ffd6ae0:	2ffe1944 	.word	0x2ffe1944
2ffd6ae4:	2ffe7080 	.word	0x2ffe7080

2ffd6ae8 <io_dev_open>:
2ffd6ae8:	4603      	mov	r3, r0
2ffd6aea:	4608      	mov	r0, r1
2ffd6aec:	b510      	push	{r4, lr}
2ffd6aee:	4611      	mov	r1, r2
2ffd6af0:	b91a      	cbnz	r2, 2ffd6afa <io_dev_open+0x12>
2ffd6af2:	21a7      	movs	r1, #167	; 0xa7
2ffd6af4:	4805      	ldr	r0, [pc, #20]	; (2ffd6b0c <io_dev_open+0x24>)
2ffd6af6:	f00a fc6f 	bl	2ffe13d8 <__assert>
2ffd6afa:	b123      	cbz	r3, 2ffd6b06 <io_dev_open+0x1e>
2ffd6afc:	681b      	ldr	r3, [r3, #0]
2ffd6afe:	b113      	cbz	r3, 2ffd6b06 <io_dev_open+0x1e>
2ffd6b00:	e8bd 4010 	ldmia.w	sp!, {r4, lr}
2ffd6b04:	4718      	bx	r3
2ffd6b06:	214f      	movs	r1, #79	; 0x4f
2ffd6b08:	e7f4      	b.n	2ffd6af4 <io_dev_open+0xc>
2ffd6b0a:	bf00      	nop
2ffd6b0c:	2ffe1944 	.word	0x2ffe1944

2ffd6b10 <io_dev_init>:
2ffd6b10:	b570      	push	{r4, r5, r6, lr}
2ffd6b12:	460d      	mov	r5, r1
2ffd6b14:	4604      	mov	r4, r0
2ffd6b16:	b918      	cbnz	r0, 2ffd6b20 <io_dev_init+0x10>
2ffd6b18:	21b3      	movs	r1, #179	; 0xb3
2ffd6b1a:	4809      	ldr	r0, [pc, #36]	; (2ffd6b40 <io_dev_init+0x30>)
2ffd6b1c:	f00a fc5c 	bl	2ffe13d8 <__assert>
2ffd6b20:	f7ff ff96 	bl	2ffd6a50 <is_valid_dev>
2ffd6b24:	b908      	cbnz	r0, 2ffd6b2a <io_dev_init+0x1a>
2ffd6b26:	21b4      	movs	r1, #180	; 0xb4
2ffd6b28:	e7f7      	b.n	2ffd6b1a <io_dev_init+0xa>
2ffd6b2a:	6823      	ldr	r3, [r4, #0]
2ffd6b2c:	69db      	ldr	r3, [r3, #28]
2ffd6b2e:	b123      	cbz	r3, 2ffd6b3a <io_dev_init+0x2a>
2ffd6b30:	4629      	mov	r1, r5
2ffd6b32:	4620      	mov	r0, r4
2ffd6b34:	e8bd 4070 	ldmia.w	sp!, {r4, r5, r6, lr}
2ffd6b38:	4718      	bx	r3
2ffd6b3a:	4618      	mov	r0, r3
2ffd6b3c:	bd70      	pop	{r4, r5, r6, pc}
2ffd6b3e:	bf00      	nop
2ffd6b40:	2ffe1944 	.word	0x2ffe1944

2ffd6b44 <io_dev_close>:
2ffd6b44:	b510      	push	{r4, lr}
2ffd6b46:	4604      	mov	r4, r0
2ffd6b48:	b918      	cbnz	r0, 2ffd6b52 <io_dev_close+0xe>
2ffd6b4a:	21c4      	movs	r1, #196	; 0xc4
2ffd6b4c:	4808      	ldr	r0, [pc, #32]	; (2ffd6b70 <io_dev_close+0x2c>)
2ffd6b4e:	f00a fc43 	bl	2ffe13d8 <__assert>
2ffd6b52:	f7ff ff7d 	bl	2ffd6a50 <is_valid_dev>
2ffd6b56:	b908      	cbnz	r0, 2ffd6b5c <io_dev_close+0x18>
2ffd6b58:	21c5      	movs	r1, #197	; 0xc5
2ffd6b5a:	e7f7      	b.n	2ffd6b4c <io_dev_close+0x8>
2ffd6b5c:	6823      	ldr	r3, [r4, #0]
2ffd6b5e:	6a1b      	ldr	r3, [r3, #32]
2ffd6b60:	b11b      	cbz	r3, 2ffd6b6a <io_dev_close+0x26>
2ffd6b62:	4620      	mov	r0, r4
2ffd6b64:	e8bd 4010 	ldmia.w	sp!, {r4, lr}
2ffd6b68:	4718      	bx	r3
2ffd6b6a:	4618      	mov	r0, r3
2ffd6b6c:	bd10      	pop	{r4, pc}
2ffd6b6e:	bf00      	nop
2ffd6b70:	2ffe1944 	.word	0x2ffe1944

2ffd6b74 <io_open>:
2ffd6b74:	e92d 43f8 	stmdb	sp!, {r3, r4, r5, r6, r7, r8, r9, lr}
2ffd6b78:	4606      	mov	r6, r0
2ffd6b7a:	4617      	mov	r7, r2
2ffd6b7c:	460d      	mov	r5, r1
2ffd6b7e:	b101      	cbz	r1, 2ffd6b82 <io_open+0xe>
2ffd6b80:	b91a      	cbnz	r2, 2ffd6b8a <io_open+0x16>
2ffd6b82:	21d9      	movs	r1, #217	; 0xd9
2ffd6b84:	481d      	ldr	r0, [pc, #116]	; (2ffd6bfc <io_open+0x88>)
2ffd6b86:	f00a fc27 	bl	2ffe13d8 <__assert>
2ffd6b8a:	f7ff ff61 	bl	2ffd6a50 <is_valid_dev>
2ffd6b8e:	b908      	cbnz	r0, 2ffd6b94 <io_open+0x20>
2ffd6b90:	21da      	movs	r1, #218	; 0xda
2ffd6b92:	e7f7      	b.n	2ffd6b84 <io_open+0x10>
2ffd6b94:	4b1a      	ldr	r3, [pc, #104]	; (2ffd6c00 <io_open+0x8c>)
2ffd6b96:	6818      	ldr	r0, [r3, #0]
2ffd6b98:	2803      	cmp	r0, #3
2ffd6b9a:	d81d      	bhi.n	2ffd6bd8 <io_open+0x64>
2ffd6b9c:	4a19      	ldr	r2, [pc, #100]	; (2ffd6c04 <io_open+0x90>)
2ffd6b9e:	2400      	movs	r4, #0
2ffd6ba0:	4611      	mov	r1, r2
2ffd6ba2:	f852 cb04 	ldr.w	ip, [r2], #4
2ffd6ba6:	f1bc 0f00 	cmp.w	ip, #0
2ffd6baa:	d018      	beq.n	2ffd6bde <io_open+0x6a>
2ffd6bac:	3401      	adds	r4, #1
2ffd6bae:	2c04      	cmp	r4, #4
2ffd6bb0:	d1f7      	bne.n	2ffd6ba2 <io_open+0x2e>
2ffd6bb2:	2176      	movs	r1, #118	; 0x76
2ffd6bb4:	e7e6      	b.n	2ffd6b84 <io_open+0x10>
2ffd6bb6:	4629      	mov	r1, r5
2ffd6bb8:	464a      	mov	r2, r9
2ffd6bba:	4630      	mov	r0, r6
2ffd6bbc:	4798      	blx	r3
2ffd6bbe:	4605      	mov	r5, r0
2ffd6bc0:	b930      	cbnz	r0, 2ffd6bd0 <io_open+0x5c>
2ffd6bc2:	f848 6034 	str.w	r6, [r8, r4, lsl #3]
2ffd6bc6:	f8c7 9000 	str.w	r9, [r7]
2ffd6bca:	4628      	mov	r0, r5
2ffd6bcc:	e8bd 83f8 	ldmia.w	sp!, {r3, r4, r5, r6, r7, r8, r9, pc}
2ffd6bd0:	4648      	mov	r0, r9
2ffd6bd2:	f7ff ff53 	bl	2ffd6a7c <free_entity>
2ffd6bd6:	e7f8      	b.n	2ffd6bca <io_open+0x56>
2ffd6bd8:	f06f 050b 	mvn.w	r5, #11
2ffd6bdc:	e7f5      	b.n	2ffd6bca <io_open+0x56>
2ffd6bde:	f8df 8028 	ldr.w	r8, [pc, #40]	; 2ffd6c08 <io_open+0x94>
2ffd6be2:	3001      	adds	r0, #1
2ffd6be4:	6018      	str	r0, [r3, #0]
2ffd6be6:	6833      	ldr	r3, [r6, #0]
2ffd6be8:	eb08 09c4 	add.w	r9, r8, r4, lsl #3
2ffd6bec:	685b      	ldr	r3, [r3, #4]
2ffd6bee:	f841 9024 	str.w	r9, [r1, r4, lsl #2]
2ffd6bf2:	2b00      	cmp	r3, #0
2ffd6bf4:	d1df      	bne.n	2ffd6bb6 <io_open+0x42>
2ffd6bf6:	21e2      	movs	r1, #226	; 0xe2
2ffd6bf8:	e7c4      	b.n	2ffd6b84 <io_open+0x10>
2ffd6bfa:	bf00      	nop
2ffd6bfc:	2ffe1944 	.word	0x2ffe1944
2ffd6c00:	2ffe7084 	.word	0x2ffe7084
2ffd6c04:	2ffe7088 	.word	0x2ffe7088
2ffd6c08:	2ffe7098 	.word	0x2ffe7098

2ffd6c0c <io_size>:
2ffd6c0c:	b570      	push	{r4, r5, r6, lr}
2ffd6c0e:	4604      	mov	r4, r0
2ffd6c10:	460d      	mov	r5, r1
2ffd6c12:	f7ff ff29 	bl	2ffd6a68 <is_valid_entity>
2ffd6c16:	b100      	cbz	r0, 2ffd6c1a <io_size+0xe>
2ffd6c18:	b925      	cbnz	r5, 2ffd6c24 <io_size+0x18>
2ffd6c1a:	4808      	ldr	r0, [pc, #32]	; (2ffd6c3c <io_size+0x30>)
2ffd6c1c:	f44f 7182 	mov.w	r1, #260	; 0x104
2ffd6c20:	f00a fbda 	bl	2ffe13d8 <__assert>
2ffd6c24:	6823      	ldr	r3, [r4, #0]
2ffd6c26:	681b      	ldr	r3, [r3, #0]
2ffd6c28:	68db      	ldr	r3, [r3, #12]
2ffd6c2a:	b123      	cbz	r3, 2ffd6c36 <io_size+0x2a>
2ffd6c2c:	4629      	mov	r1, r5
2ffd6c2e:	4620      	mov	r0, r4
2ffd6c30:	e8bd 4070 	ldmia.w	sp!, {r4, r5, r6, lr}
2ffd6c34:	4718      	bx	r3
2ffd6c36:	f06f 0012 	mvn.w	r0, #18
2ffd6c3a:	bd70      	pop	{r4, r5, r6, pc}
2ffd6c3c:	2ffe1944 	.word	0x2ffe1944

2ffd6c40 <io_read>:
2ffd6c40:	e92d 41f0 	stmdb	sp!, {r4, r5, r6, r7, r8, lr}
2ffd6c44:	4604      	mov	r4, r0
2ffd6c46:	460d      	mov	r5, r1
2ffd6c48:	4616      	mov	r6, r2
2ffd6c4a:	461f      	mov	r7, r3
2ffd6c4c:	f7ff ff0c 	bl	2ffd6a68 <is_valid_entity>
2ffd6c50:	b920      	cbnz	r0, 2ffd6c5c <io_read+0x1c>
2ffd6c52:	480c      	ldr	r0, [pc, #48]	; (2ffd6c84 <io_read+0x44>)
2ffd6c54:	f44f 718c 	mov.w	r1, #280	; 0x118
2ffd6c58:	f00a fbbe 	bl	2ffe13d8 <__assert>
2ffd6c5c:	6823      	ldr	r3, [r4, #0]
2ffd6c5e:	681b      	ldr	r3, [r3, #0]
2ffd6c60:	f8d3 e010 	ldr.w	lr, [r3, #16]
2ffd6c64:	f1be 0f00 	cmp.w	lr, #0
2ffd6c68:	d007      	beq.n	2ffd6c7a <io_read+0x3a>
2ffd6c6a:	463b      	mov	r3, r7
2ffd6c6c:	4632      	mov	r2, r6
2ffd6c6e:	4629      	mov	r1, r5
2ffd6c70:	4620      	mov	r0, r4
2ffd6c72:	46f4      	mov	ip, lr
2ffd6c74:	e8bd 41f0 	ldmia.w	sp!, {r4, r5, r6, r7, r8, lr}
2ffd6c78:	4760      	bx	ip
2ffd6c7a:	f06f 0012 	mvn.w	r0, #18
2ffd6c7e:	e8bd 81f0 	ldmia.w	sp!, {r4, r5, r6, r7, r8, pc}
2ffd6c82:	bf00      	nop
2ffd6c84:	2ffe1944 	.word	0x2ffe1944

2ffd6c88 <io_close>:
2ffd6c88:	b538      	push	{r3, r4, r5, lr}
2ffd6c8a:	4605      	mov	r5, r0
2ffd6c8c:	f7ff feec 	bl	2ffd6a68 <is_valid_entity>
2ffd6c90:	b920      	cbnz	r0, 2ffd6c9c <io_close+0x14>
2ffd6c92:	4808      	ldr	r0, [pc, #32]	; (2ffd6cb4 <io_close+0x2c>)
2ffd6c94:	f240 113f 	movw	r1, #319	; 0x13f
2ffd6c98:	f00a fb9e 	bl	2ffe13d8 <__assert>
2ffd6c9c:	682b      	ldr	r3, [r5, #0]
2ffd6c9e:	681b      	ldr	r3, [r3, #0]
2ffd6ca0:	699c      	ldr	r4, [r3, #24]
2ffd6ca2:	b114      	cbz	r4, 2ffd6caa <io_close+0x22>
2ffd6ca4:	4628      	mov	r0, r5
2ffd6ca6:	47a0      	blx	r4
2ffd6ca8:	4604      	mov	r4, r0
2ffd6caa:	4628      	mov	r0, r5
2ffd6cac:	f7ff fee6 	bl	2ffd6a7c <free_entity>
2ffd6cb0:	4620      	mov	r0, r4
2ffd6cb2:	bd38      	pop	{r3, r4, r5, pc}
2ffd6cb4:	2ffe1944 	.word	0x2ffe1944

2ffd6cb8 <hash_write_data>:
2ffd6cb8:	e92d 43d0 	stmdb	sp!, {r4, r6, r7, r8, r9, lr}
2ffd6cbc:	4604      	mov	r4, r0
2ffd6cbe:	ee1e 0f10 	mrc	15, 0, r0, cr14, cr0, {0}
2ffd6cc2:	ec59 8f0e 	mrrc	15, 0, r8, r9, cr14
2ffd6cc6:	4a12      	ldr	r2, [pc, #72]	; (2ffd6d10 <hash_write_data+0x58>)
2ffd6cc8:	f242 7110 	movw	r1, #10000	; 0x2710
2ffd6ccc:	2300      	movs	r3, #0
2ffd6cce:	fba0 0101 	umull	r0, r1, r0, r1
2ffd6cd2:	f009 ef4c 	blx	2ffe0b6c <__aeabi_uldivmod>
2ffd6cd6:	4b0f      	ldr	r3, [pc, #60]	; (2ffd6d14 <hash_write_data+0x5c>)
2ffd6cd8:	eb10 0608 	adds.w	r6, r0, r8
2ffd6cdc:	681a      	ldr	r2, [r3, #0]
2ffd6cde:	eb41 0709 	adc.w	r7, r1, r9
2ffd6ce2:	f102 0124 	add.w	r1, r2, #36	; 0x24
2ffd6ce6:	6808      	ldr	r0, [r1, #0]
2ffd6ce8:	f010 0008 	ands.w	r0, r0, #8
2ffd6cec:	d101      	bne.n	2ffd6cf2 <hash_write_data+0x3a>
2ffd6cee:	6054      	str	r4, [r2, #4]
2ffd6cf0:	e00b      	b.n	2ffd6d0a <hash_write_data+0x52>
2ffd6cf2:	ec59 8f0e 	mrrc	15, 0, r8, r9, cr14
2ffd6cf6:	454f      	cmp	r7, r9
2ffd6cf8:	bf08      	it	eq
2ffd6cfa:	4546      	cmpeq	r6, r8
2ffd6cfc:	d2f3      	bcs.n	2ffd6ce6 <hash_write_data+0x2e>
2ffd6cfe:	4806      	ldr	r0, [pc, #24]	; (2ffd6d18 <hash_write_data+0x60>)
2ffd6d00:	4906      	ldr	r1, [pc, #24]	; (2ffd6d1c <hash_write_data+0x64>)
2ffd6d02:	f004 fa67 	bl	2ffdb1d4 <tf_log>
2ffd6d06:	f06f 003b 	mvn.w	r0, #59	; 0x3b
2ffd6d0a:	e8bd 83d0 	ldmia.w	sp!, {r4, r6, r7, r8, r9, pc}
2ffd6d0e:	bf00      	nop
2ffd6d10:	000f4240 	.word	0x000f4240
2ffd6d14:	2ffe70b8 	.word	0x2ffe70b8
2ffd6d18:	2ffe195c 	.word	0x2ffe195c
2ffd6d1c:	2ffe19a0 	.word	0x2ffe19a0

2ffd6d20 <stm32_hash_update>:
2ffd6d20:	e92d 41f3 	stmdb	sp!, {r0, r1, r4, r5, r6, r7, r8, lr}
2ffd6d24:	4680      	mov	r8, r0
2ffd6d26:	460d      	mov	r5, r1
2ffd6d28:	2900      	cmp	r1, #0
2ffd6d2a:	d046      	beq.n	2ffd6dba <stm32_hash_update+0x9a>
2ffd6d2c:	2800      	cmp	r0, #0
2ffd6d2e:	d046      	beq.n	2ffd6dbe <stm32_hash_update+0x9e>
2ffd6d30:	4f24      	ldr	r7, [pc, #144]	; (2ffd6dc4 <stm32_hash_update+0xa4>)
2ffd6d32:	4e25      	ldr	r6, [pc, #148]	; (2ffd6dc8 <stm32_hash_update+0xa8>)
2ffd6d34:	6878      	ldr	r0, [r7, #4]
2ffd6d36:	f007 f845 	bl	2ffdddc4 <stm32mp_clk_enable>
2ffd6d3a:	6870      	ldr	r0, [r6, #4]
2ffd6d3c:	b1b8      	cbz	r0, 2ffd6d6e <stm32_hash_update+0x4e>
2ffd6d3e:	f1c0 0404 	rsb	r4, r0, #4
2ffd6d42:	4641      	mov	r1, r8
2ffd6d44:	42ac      	cmp	r4, r5
2ffd6d46:	4430      	add	r0, r6
2ffd6d48:	bf28      	it	cs
2ffd6d4a:	462c      	movcs	r4, r5
2ffd6d4c:	1b2d      	subs	r5, r5, r4
2ffd6d4e:	4622      	mov	r2, r4
2ffd6d50:	44a0      	add	r8, r4
2ffd6d52:	f00a fb69 	bl	2ffe1428 <memcpy>
2ffd6d56:	6873      	ldr	r3, [r6, #4]
2ffd6d58:	2b04      	cmp	r3, #4
2ffd6d5a:	d108      	bne.n	2ffd6d6e <stm32_hash_update+0x4e>
2ffd6d5c:	6830      	ldr	r0, [r6, #0]
2ffd6d5e:	f7ff ffab 	bl	2ffd6cb8 <hash_write_data>
2ffd6d62:	4604      	mov	r4, r0
2ffd6d64:	bb00      	cbnz	r0, 2ffd6da8 <stm32_hash_update+0x88>
2ffd6d66:	2108      	movs	r1, #8
2ffd6d68:	4630      	mov	r0, r6
2ffd6d6a:	f7ff eb7a 	blx	2ffd6460 <zero_normalmem>
2ffd6d6e:	44a8      	add	r8, r5
2ffd6d70:	eba8 0105 	sub.w	r1, r8, r5
2ffd6d74:	2d03      	cmp	r5, #3
2ffd6d76:	d806      	bhi.n	2ffd6d86 <stm32_hash_update+0x66>
2ffd6d78:	b1ed      	cbz	r5, 2ffd6db6 <stm32_hash_update+0x96>
2ffd6d7a:	6874      	ldr	r4, [r6, #4]
2ffd6d7c:	b17c      	cbz	r4, 2ffd6d9e <stm32_hash_update+0x7e>
2ffd6d7e:	4813      	ldr	r0, [pc, #76]	; (2ffd6dcc <stm32_hash_update+0xac>)
2ffd6d80:	21e4      	movs	r1, #228	; 0xe4
2ffd6d82:	f00a fb29 	bl	2ffe13d8 <__assert>
2ffd6d86:	2204      	movs	r2, #4
2ffd6d88:	eb0d 0002 	add.w	r0, sp, r2
2ffd6d8c:	f00a fb4c 	bl	2ffe1428 <memcpy>
2ffd6d90:	9801      	ldr	r0, [sp, #4]
2ffd6d92:	f7ff ff91 	bl	2ffd6cb8 <hash_write_data>
2ffd6d96:	4604      	mov	r4, r0
2ffd6d98:	b930      	cbnz	r0, 2ffd6da8 <stm32_hash_update+0x88>
2ffd6d9a:	3d04      	subs	r5, #4
2ffd6d9c:	e7e8      	b.n	2ffd6d70 <stm32_hash_update+0x50>
2ffd6d9e:	480a      	ldr	r0, [pc, #40]	; (2ffd6dc8 <stm32_hash_update+0xa8>)
2ffd6da0:	462a      	mov	r2, r5
2ffd6da2:	f00a fb41 	bl	2ffe1428 <memcpy>
2ffd6da6:	6075      	str	r5, [r6, #4]
2ffd6da8:	6878      	ldr	r0, [r7, #4]
2ffd6daa:	f007 f80e 	bl	2ffdddca <stm32mp_clk_disable>
2ffd6dae:	4620      	mov	r0, r4
2ffd6db0:	b002      	add	sp, #8
2ffd6db2:	e8bd 81f0 	ldmia.w	sp!, {r4, r5, r6, r7, r8, pc}
2ffd6db6:	462c      	mov	r4, r5
2ffd6db8:	e7f6      	b.n	2ffd6da8 <stm32_hash_update+0x88>
2ffd6dba:	460c      	mov	r4, r1
2ffd6dbc:	e7f7      	b.n	2ffd6dae <stm32_hash_update+0x8e>
2ffd6dbe:	4604      	mov	r4, r0
2ffd6dc0:	e7f5      	b.n	2ffd6dae <stm32_hash_update+0x8e>
2ffd6dc2:	bf00      	nop
2ffd6dc4:	2ffe70b8 	.word	0x2ffe70b8
2ffd6dc8:	2ffe70c4 	.word	0x2ffe70c4
2ffd6dcc:	2ffe196f 	.word	0x2ffe196f

2ffd6dd0 <stm32_hash_final>:
2ffd6dd0:	e92d 47f3 	stmdb	sp!, {r0, r1, r4, r5, r6, r7, r8, r9, sl, lr}
2ffd6dd4:	4682      	mov	sl, r0
2ffd6dd6:	f8df 90f0 	ldr.w	r9, [pc, #240]	; 2ffd6ec8 <stm32_hash_final+0xf8>
2ffd6dda:	f8df 80f0 	ldr.w	r8, [pc, #240]	; 2ffd6ecc <stm32_hash_final+0xfc>
2ffd6dde:	f8d9 0004 	ldr.w	r0, [r9, #4]
2ffd6de2:	464c      	mov	r4, r9
2ffd6de4:	f006 ffee 	bl	2ffdddc4 <stm32mp_clk_enable>
2ffd6de8:	f8d8 3004 	ldr.w	r3, [r8, #4]
2ffd6dec:	2b00      	cmp	r3, #0
2ffd6dee:	d03f      	beq.n	2ffd6e70 <stm32_hash_final+0xa0>
2ffd6df0:	f8d8 0000 	ldr.w	r0, [r8]
2ffd6df4:	f7ff ff60 	bl	2ffd6cb8 <hash_write_data>
2ffd6df8:	4605      	mov	r5, r0
2ffd6dfa:	b138      	cbz	r0, 2ffd6e0c <stm32_hash_final+0x3c>
2ffd6dfc:	f8d9 0004 	ldr.w	r0, [r9, #4]
2ffd6e00:	f006 ffe3 	bl	2ffdddca <stm32mp_clk_disable>
2ffd6e04:	4628      	mov	r0, r5
2ffd6e06:	b002      	add	sp, #8
2ffd6e08:	e8bd 87f0 	ldmia.w	sp!, {r4, r5, r6, r7, r8, r9, sl, pc}
2ffd6e0c:	f8d9 1000 	ldr.w	r1, [r9]
2ffd6e10:	4640      	mov	r0, r8
2ffd6e12:	f8d8 2004 	ldr.w	r2, [r8, #4]
2ffd6e16:	688b      	ldr	r3, [r1, #8]
2ffd6e18:	f023 031f 	bic.w	r3, r3, #31
2ffd6e1c:	ea43 03c2 	orr.w	r3, r3, r2, lsl #3
2ffd6e20:	608b      	str	r3, [r1, #8]
2ffd6e22:	2108      	movs	r1, #8
2ffd6e24:	f7ff eb1c 	blx	2ffd6460 <zero_normalmem>
2ffd6e28:	6825      	ldr	r5, [r4, #0]
2ffd6e2a:	68ab      	ldr	r3, [r5, #8]
2ffd6e2c:	f443 7380 	orr.w	r3, r3, #256	; 0x100
2ffd6e30:	60ab      	str	r3, [r5, #8]
2ffd6e32:	ee1e 0f10 	mrc	15, 0, r0, cr14, cr0, {0}
2ffd6e36:	ec59 8f0e 	mrrc	15, 0, r8, r9, cr14
2ffd6e3a:	4a1f      	ldr	r2, [pc, #124]	; (2ffd6eb8 <stm32_hash_final+0xe8>)
2ffd6e3c:	f242 7110 	movw	r1, #10000	; 0x2710
2ffd6e40:	2300      	movs	r3, #0
2ffd6e42:	fba0 0101 	umull	r0, r1, r0, r1
2ffd6e46:	f009 ee92 	blx	2ffe0b6c <__aeabi_uldivmod>
2ffd6e4a:	eb10 0608 	adds.w	r6, r0, r8
2ffd6e4e:	eb41 0709 	adc.w	r7, r1, r9
2ffd6e52:	6a6b      	ldr	r3, [r5, #36]	; 0x24
2ffd6e54:	079b      	lsls	r3, r3, #30
2ffd6e56:	d512      	bpl.n	2ffd6e7e <stm32_hash_final+0xae>
2ffd6e58:	2500      	movs	r5, #0
2ffd6e5a:	68a2      	ldr	r2, [r4, #8]
2ffd6e5c:	6823      	ldr	r3, [r4, #0]
2ffd6e5e:	ebb5 0f92 	cmp.w	r5, r2, lsr #2
2ffd6e62:	d31a      	bcc.n	2ffd6e9a <stm32_hash_final+0xca>
2ffd6e64:	2220      	movs	r2, #32
2ffd6e66:	2500      	movs	r5, #0
2ffd6e68:	60a2      	str	r2, [r4, #8]
2ffd6e6a:	4a14      	ldr	r2, [pc, #80]	; (2ffd6ebc <stm32_hash_final+0xec>)
2ffd6e6c:	601a      	str	r2, [r3, #0]
2ffd6e6e:	e012      	b.n	2ffd6e96 <stm32_hash_final+0xc6>
2ffd6e70:	f8d9 2000 	ldr.w	r2, [r9]
2ffd6e74:	6893      	ldr	r3, [r2, #8]
2ffd6e76:	f023 031f 	bic.w	r3, r3, #31
2ffd6e7a:	6093      	str	r3, [r2, #8]
2ffd6e7c:	e7d4      	b.n	2ffd6e28 <stm32_hash_final+0x58>
2ffd6e7e:	ec53 2f0e 	mrrc	15, 0, r2, r3, cr14
2ffd6e82:	429f      	cmp	r7, r3
2ffd6e84:	bf08      	it	eq
2ffd6e86:	4296      	cmpeq	r6, r2
2ffd6e88:	d2e3      	bcs.n	2ffd6e52 <stm32_hash_final+0x82>
2ffd6e8a:	490d      	ldr	r1, [pc, #52]	; (2ffd6ec0 <stm32_hash_final+0xf0>)
2ffd6e8c:	f06f 053b 	mvn.w	r5, #59	; 0x3b
2ffd6e90:	480c      	ldr	r0, [pc, #48]	; (2ffd6ec4 <stm32_hash_final+0xf4>)
2ffd6e92:	f004 f99f 	bl	2ffdb1d4 <tf_log>
2ffd6e96:	6860      	ldr	r0, [r4, #4]
2ffd6e98:	e7b2      	b.n	2ffd6e00 <stm32_hash_final+0x30>
2ffd6e9a:	f503 7344 	add.w	r3, r3, #784	; 0x310
2ffd6e9e:	2204      	movs	r2, #4
2ffd6ea0:	eb0a 0085 	add.w	r0, sl, r5, lsl #2
2ffd6ea4:	f853 3025 	ldr.w	r3, [r3, r5, lsl #2]
2ffd6ea8:	3501      	adds	r5, #1
2ffd6eaa:	eb0d 0102 	add.w	r1, sp, r2
2ffd6eae:	ba1b      	rev	r3, r3
2ffd6eb0:	9301      	str	r3, [sp, #4]
2ffd6eb2:	f00a fab9 	bl	2ffe1428 <memcpy>
2ffd6eb6:	e7d0      	b.n	2ffd6e5a <stm32_hash_final+0x8a>
2ffd6eb8:	000f4240 	.word	0x000f4240
2ffd6ebc:	000400a4 	.word	0x000400a4
2ffd6ec0:	2ffe19af 	.word	0x2ffe19af
2ffd6ec4:	2ffe195c 	.word	0x2ffe195c
2ffd6ec8:	2ffe70b8 	.word	0x2ffe70b8
2ffd6ecc:	2ffe70c4 	.word	0x2ffe70c4

2ffd6ed0 <stm32_hash_final_update>:
2ffd6ed0:	b510      	push	{r4, lr}
2ffd6ed2:	4614      	mov	r4, r2
2ffd6ed4:	f7ff ff24 	bl	2ffd6d20 <stm32_hash_update>
2ffd6ed8:	b920      	cbnz	r0, 2ffd6ee4 <stm32_hash_final_update+0x14>
2ffd6eda:	4620      	mov	r0, r4
2ffd6edc:	e8bd 4010 	ldmia.w	sp!, {r4, lr}
2ffd6ee0:	f7ff bf76 	b.w	2ffd6dd0 <stm32_hash_final>
2ffd6ee4:	bd10      	pop	{r4, pc}
	...

2ffd6ee8 <stm32_hash_init>:
2ffd6ee8:	b538      	push	{r3, r4, r5, lr}
2ffd6eea:	4605      	mov	r5, r0
2ffd6eec:	4c11      	ldr	r4, [pc, #68]	; (2ffd6f34 <stm32_hash_init+0x4c>)
2ffd6eee:	6860      	ldr	r0, [r4, #4]
2ffd6ef0:	f006 ff68 	bl	2ffdddc4 <stm32mp_clk_enable>
2ffd6ef4:	2d01      	cmp	r5, #1
2ffd6ef6:	4623      	mov	r3, r4
2ffd6ef8:	d010      	beq.n	2ffd6f1c <stm32_hash_init+0x34>
2ffd6efa:	2d02      	cmp	r5, #2
2ffd6efc:	d012      	beq.n	2ffd6f24 <stm32_hash_init+0x3c>
2ffd6efe:	b9ad      	cbnz	r5, 2ffd6f2c <stm32_hash_init+0x44>
2ffd6f00:	2210      	movs	r2, #16
2ffd6f02:	60a2      	str	r2, [r4, #8]
2ffd6f04:	22a4      	movs	r2, #164	; 0xa4
2ffd6f06:	6819      	ldr	r1, [r3, #0]
2ffd6f08:	6858      	ldr	r0, [r3, #4]
2ffd6f0a:	600a      	str	r2, [r1, #0]
2ffd6f0c:	f006 ff5d 	bl	2ffdddca <stm32mp_clk_disable>
2ffd6f10:	e8bd 4038 	ldmia.w	sp!, {r3, r4, r5, lr}
2ffd6f14:	4808      	ldr	r0, [pc, #32]	; (2ffd6f38 <stm32_hash_init+0x50>)
2ffd6f16:	2108      	movs	r1, #8
2ffd6f18:	f00e b9e2 	b.w	2ffe52e0 <__zeromem_from_thumb>
2ffd6f1c:	2214      	movs	r2, #20
2ffd6f1e:	60a2      	str	r2, [r4, #8]
2ffd6f20:	2224      	movs	r2, #36	; 0x24
2ffd6f22:	e7f0      	b.n	2ffd6f06 <stm32_hash_init+0x1e>
2ffd6f24:	221c      	movs	r2, #28
2ffd6f26:	60a2      	str	r2, [r4, #8]
2ffd6f28:	4a04      	ldr	r2, [pc, #16]	; (2ffd6f3c <stm32_hash_init+0x54>)
2ffd6f2a:	e7ec      	b.n	2ffd6f06 <stm32_hash_init+0x1e>
2ffd6f2c:	2220      	movs	r2, #32
2ffd6f2e:	60a2      	str	r2, [r4, #8]
2ffd6f30:	4a03      	ldr	r2, [pc, #12]	; (2ffd6f40 <stm32_hash_init+0x58>)
2ffd6f32:	e7e8      	b.n	2ffd6f06 <stm32_hash_init+0x1e>
2ffd6f34:	2ffe70b8 	.word	0x2ffe70b8
2ffd6f38:	2ffe70c4 	.word	0x2ffe70c4
2ffd6f3c:	00040024 	.word	0x00040024
2ffd6f40:	000400a4 	.word	0x000400a4

2ffd6f44 <stm32_hash_register>:
2ffd6f44:	b530      	push	{r4, r5, lr}
2ffd6f46:	b085      	sub	sp, #20
2ffd6f48:	4a1e      	ldr	r2, [pc, #120]	; (2ffd6fc4 <stm32_hash_register+0x80>)
2ffd6f4a:	f04f 31ff 	mov.w	r1, #4294967295	; 0xffffffff
2ffd6f4e:	4c1d      	ldr	r4, [pc, #116]	; (2ffd6fc4 <stm32_hash_register+0x80>)
2ffd6f50:	4668      	mov	r0, sp
2ffd6f52:	f009 fb5f 	bl	2ffe0614 <dt_get_node>
2ffd6f56:	4601      	mov	r1, r0
2ffd6f58:	1c4b      	adds	r3, r1, #1
2ffd6f5a:	d103      	bne.n	2ffd6f64 <stm32_hash_register+0x20>
2ffd6f5c:	f06f 0012 	mvn.w	r0, #18
2ffd6f60:	b005      	add	sp, #20
2ffd6f62:	bd30      	pop	{r4, r5, pc}
2ffd6f64:	9b03      	ldr	r3, [sp, #12]
2ffd6f66:	bb3b      	cbnz	r3, 2ffd6fb8 <stm32_hash_register+0x74>
2ffd6f68:	4622      	mov	r2, r4
2ffd6f6a:	4668      	mov	r0, sp
2ffd6f6c:	f009 fb52 	bl	2ffe0614 <dt_get_node>
2ffd6f70:	4601      	mov	r1, r0
2ffd6f72:	e7f1      	b.n	2ffd6f58 <stm32_hash_register+0x14>
2ffd6f74:	4c14      	ldr	r4, [pc, #80]	; (2ffd6fc8 <stm32_hash_register+0x84>)
2ffd6f76:	9b00      	ldr	r3, [sp, #0]
2ffd6f78:	6060      	str	r0, [r4, #4]
2ffd6f7a:	6023      	str	r3, [r4, #0]
2ffd6f7c:	f006 ff22 	bl	2ffdddc4 <stm32mp_clk_enable>
2ffd6f80:	9d02      	ldr	r5, [sp, #8]
2ffd6f82:	2d00      	cmp	r5, #0
2ffd6f84:	db13      	blt.n	2ffd6fae <stm32_hash_register+0x6a>
2ffd6f86:	f44f 717a 	mov.w	r1, #1000	; 0x3e8
2ffd6f8a:	4628      	mov	r0, r5
2ffd6f8c:	f009 f930 	bl	2ffe01f0 <stm32mp_reset_assert_to>
2ffd6f90:	b118      	cbz	r0, 2ffd6f9a <stm32_hash_register+0x56>
2ffd6f92:	f004 f9bd 	bl	2ffdb310 <console_flush>
2ffd6f96:	f7ff e964 	blx	2ffd6260 <do_panic>
2ffd6f9a:	2014      	movs	r0, #20
2ffd6f9c:	f005 fd52 	bl	2ffdca44 <udelay>
2ffd6fa0:	f44f 717a 	mov.w	r1, #1000	; 0x3e8
2ffd6fa4:	4628      	mov	r0, r5
2ffd6fa6:	f009 f95b 	bl	2ffe0260 <stm32mp_reset_deassert_to>
2ffd6faa:	2800      	cmp	r0, #0
2ffd6fac:	d1f1      	bne.n	2ffd6f92 <stm32_hash_register+0x4e>
2ffd6fae:	6860      	ldr	r0, [r4, #4]
2ffd6fb0:	f006 ff0b 	bl	2ffdddca <stm32mp_clk_disable>
2ffd6fb4:	2000      	movs	r0, #0
2ffd6fb6:	e7d3      	b.n	2ffd6f60 <stm32_hash_register+0x1c>
2ffd6fb8:	9801      	ldr	r0, [sp, #4]
2ffd6fba:	2800      	cmp	r0, #0
2ffd6fbc:	dada      	bge.n	2ffd6f74 <stm32_hash_register+0x30>
2ffd6fbe:	f06f 0015 	mvn.w	r0, #21
2ffd6fc2:	e7cd      	b.n	2ffd6f60 <stm32_hash_register+0x1c>
2ffd6fc4:	2ffe198e 	.word	0x2ffe198e
2ffd6fc8:	2ffe70b8 	.word	0x2ffe70b8

2ffd6fcc <open_storage>:
2ffd6fcc:	4b02      	ldr	r3, [pc, #8]	; (2ffd6fd8 <open_storage+0xc>)
2ffd6fce:	2100      	movs	r1, #0
2ffd6fd0:	6818      	ldr	r0, [r3, #0]
2ffd6fd2:	f7ff bd9d 	b.w	2ffd6b10 <io_dev_init>
2ffd6fd6:	bf00      	nop
2ffd6fd8:	2ffe74b4 	.word	0x2ffe74b4

2ffd6fdc <open_image>:
2ffd6fdc:	4b02      	ldr	r3, [pc, #8]	; (2ffd6fe8 <open_image+0xc>)
2ffd6fde:	2100      	movs	r1, #0
2ffd6fe0:	6818      	ldr	r0, [r3, #0]
2ffd6fe2:	f7ff bd95 	b.w	2ffd6b10 <io_dev_init>
2ffd6fe6:	bf00      	nop
2ffd6fe8:	2ffe70d8 	.word	0x2ffe70d8

2ffd6fec <open_dummy>:
2ffd6fec:	4b02      	ldr	r3, [pc, #8]	; (2ffd6ff8 <open_dummy+0xc>)
2ffd6fee:	2100      	movs	r1, #0
2ffd6ff0:	6818      	ldr	r0, [r3, #0]
2ffd6ff2:	f7ff bd8d 	b.w	2ffd6b10 <io_dev_init>
2ffd6ff6:	bf00      	nop
2ffd6ff8:	2ffe70d4 	.word	0x2ffe70d4

2ffd6ffc <stm32mp_io_setup>:
2ffd6ffc:	b5f8      	push	{r3, r4, r5, r6, r7, lr}
2ffd6ffe:	f004 faa7 	bl	2ffdb550 <stm32mp_get_boot_ctx_address>
2ffd7002:	7843      	ldrb	r3, [r0, #1]
2ffd7004:	4604      	mov	r4, r0
2ffd7006:	7801      	ldrb	r1, [r0, #0]
2ffd7008:	ea41 2103 	orr.w	r1, r1, r3, lsl #8
2ffd700c:	1e4b      	subs	r3, r1, #1
2ffd700e:	2b06      	cmp	r3, #6
2ffd7010:	d83b      	bhi.n	2ffd708a <stm32mp_io_setup+0x8e>
2ffd7012:	e8df f003 	tbb	[pc, r3]
2ffd7016:	2e04      	.short	0x2e04
2ffd7018:	38363032 	.word	0x38363032
2ffd701c:	34          	.byte	0x34
2ffd701d:	00          	.byte	0x00
2ffd701e:	4863      	ldr	r0, [pc, #396]	; (2ffd71ac <stm32mp_io_setup+0x1b0>)
2ffd7020:	f004 f8d8 	bl	2ffdb1d4 <tf_log>
2ffd7024:	78a1      	ldrb	r1, [r4, #2]
2ffd7026:	78e3      	ldrb	r3, [r4, #3]
2ffd7028:	ea51 2103 	orrs.w	r1, r1, r3, lsl #8
2ffd702c:	d002      	beq.n	2ffd7034 <stm32mp_io_setup+0x38>
2ffd702e:	4860      	ldr	r0, [pc, #384]	; (2ffd71b0 <stm32mp_io_setup+0x1b4>)
2ffd7030:	f004 f8d0 	bl	2ffdb1d4 <tf_log>
2ffd7034:	f894 3091 	ldrb.w	r3, [r4, #145]	; 0x91
2ffd7038:	f894 1090 	ldrb.w	r1, [r4, #144]	; 0x90
2ffd703c:	ea41 2103 	orr.w	r1, r1, r3, lsl #8
2ffd7040:	f894 3092 	ldrb.w	r3, [r4, #146]	; 0x92
2ffd7044:	ea41 4103 	orr.w	r1, r1, r3, lsl #16
2ffd7048:	f894 3093 	ldrb.w	r3, [r4, #147]	; 0x93
2ffd704c:	ea41 6103 	orr.w	r1, r1, r3, lsl #24
2ffd7050:	1e4b      	subs	r3, r1, #1
2ffd7052:	2b01      	cmp	r3, #1
2ffd7054:	d802      	bhi.n	2ffd705c <stm32mp_io_setup+0x60>
2ffd7056:	4857      	ldr	r0, [pc, #348]	; (2ffd71b4 <stm32mp_io_setup+0x1b8>)
2ffd7058:	f004 f8bc 	bl	2ffdb1d4 <tf_log>
2ffd705c:	4d56      	ldr	r5, [pc, #344]	; (2ffd71b8 <stm32mp_io_setup+0x1bc>)
2ffd705e:	4628      	mov	r0, r5
2ffd7060:	f7ff fce2 	bl	2ffd6a28 <register_io_dev_dummy>
2ffd7064:	4601      	mov	r1, r0
2ffd7066:	b1b8      	cbz	r0, 2ffd7098 <stm32mp_io_setup+0x9c>
2ffd7068:	f240 2192 	movw	r1, #658	; 0x292
2ffd706c:	4853      	ldr	r0, [pc, #332]	; (2ffd71bc <stm32mp_io_setup+0x1c0>)
2ffd706e:	f00a f9b3 	bl	2ffe13d8 <__assert>
2ffd7072:	4853      	ldr	r0, [pc, #332]	; (2ffd71c0 <stm32mp_io_setup+0x1c4>)
2ffd7074:	e7d4      	b.n	2ffd7020 <stm32mp_io_setup+0x24>
2ffd7076:	4853      	ldr	r0, [pc, #332]	; (2ffd71c4 <stm32mp_io_setup+0x1c8>)
2ffd7078:	e7d2      	b.n	2ffd7020 <stm32mp_io_setup+0x24>
2ffd707a:	4853      	ldr	r0, [pc, #332]	; (2ffd71c8 <stm32mp_io_setup+0x1cc>)
2ffd707c:	e7d0      	b.n	2ffd7020 <stm32mp_io_setup+0x24>
2ffd707e:	4853      	ldr	r0, [pc, #332]	; (2ffd71cc <stm32mp_io_setup+0x1d0>)
2ffd7080:	e7ce      	b.n	2ffd7020 <stm32mp_io_setup+0x24>
2ffd7082:	4853      	ldr	r0, [pc, #332]	; (2ffd71d0 <stm32mp_io_setup+0x1d4>)
2ffd7084:	e7cc      	b.n	2ffd7020 <stm32mp_io_setup+0x24>
2ffd7086:	4853      	ldr	r0, [pc, #332]	; (2ffd71d4 <stm32mp_io_setup+0x1d8>)
2ffd7088:	e7ca      	b.n	2ffd7020 <stm32mp_io_setup+0x24>
2ffd708a:	4853      	ldr	r0, [pc, #332]	; (2ffd71d8 <stm32mp_io_setup+0x1dc>)
2ffd708c:	f004 f8a2 	bl	2ffdb1d4 <tf_log>
2ffd7090:	f004 f93e 	bl	2ffdb310 <console_flush>
2ffd7094:	f7ff e8e4 	blx	2ffd6260 <do_panic>
2ffd7098:	4a50      	ldr	r2, [pc, #320]	; (2ffd71dc <stm32mp_io_setup+0x1e0>)
2ffd709a:	6828      	ldr	r0, [r5, #0]
2ffd709c:	f7ff fd24 	bl	2ffd6ae8 <io_dev_open>
2ffd70a0:	4606      	mov	r6, r0
2ffd70a2:	b110      	cbz	r0, 2ffd70aa <stm32mp_io_setup+0xae>
2ffd70a4:	f240 2196 	movw	r1, #662	; 0x296
2ffd70a8:	e7e0      	b.n	2ffd706c <stm32mp_io_setup+0x70>
2ffd70aa:	7821      	ldrb	r1, [r4, #0]
2ffd70ac:	7863      	ldrb	r3, [r4, #1]
2ffd70ae:	ea41 2103 	orr.w	r1, r1, r3, lsl #8
2ffd70b2:	2905      	cmp	r1, #5
2ffd70b4:	d003      	beq.n	2ffd70be <stm32mp_io_setup+0xc2>
2ffd70b6:	2906      	cmp	r1, #6
2ffd70b8:	d02b      	beq.n	2ffd7112 <stm32mp_io_setup+0x116>
2ffd70ba:	4849      	ldr	r0, [pc, #292]	; (2ffd71e0 <stm32mp_io_setup+0x1e4>)
2ffd70bc:	e7e6      	b.n	2ffd708c <stm32mp_io_setup+0x90>
2ffd70be:	f3bf 8f5f 	dmb	sy
2ffd70c2:	78a5      	ldrb	r5, [r4, #2]
2ffd70c4:	78e3      	ldrb	r3, [r4, #3]
2ffd70c6:	4847      	ldr	r0, [pc, #284]	; (2ffd71e4 <stm32mp_io_setup+0x1e8>)
2ffd70c8:	ea45 2503 	orr.w	r5, r5, r3, lsl #8
2ffd70cc:	f001 fa84 	bl	2ffd85d8 <register_io_dev_uart>
2ffd70d0:	b110      	cbz	r0, 2ffd70d8 <stm32mp_io_setup+0xdc>
2ffd70d2:	f240 213f 	movw	r1, #575	; 0x23f
2ffd70d6:	e7c9      	b.n	2ffd706c <stm32mp_io_setup+0x70>
2ffd70d8:	4c43      	ldr	r4, [pc, #268]	; (2ffd71e8 <stm32mp_io_setup+0x1ec>)
2ffd70da:	f44f 5380 	mov.w	r3, #4096	; 0x1000
2ffd70de:	4628      	mov	r0, r5
2ffd70e0:	60a3      	str	r3, [r4, #8]
2ffd70e2:	f44f 6380 	mov.w	r3, #1024	; 0x400
2ffd70e6:	6123      	str	r3, [r4, #16]
2ffd70e8:	f004 fb24 	bl	2ffdb734 <get_uart_address>
2ffd70ec:	b158      	cbz	r0, 2ffd7106 <stm32mp_io_setup+0x10a>
2ffd70ee:	6020      	str	r0, [r4, #0]
2ffd70f0:	4b3c      	ldr	r3, [pc, #240]	; (2ffd71e4 <stm32mp_io_setup+0x1e8>)
2ffd70f2:	4a3e      	ldr	r2, [pc, #248]	; (2ffd71ec <stm32mp_io_setup+0x1f0>)
2ffd70f4:	493c      	ldr	r1, [pc, #240]	; (2ffd71e8 <stm32mp_io_setup+0x1ec>)
2ffd70f6:	6818      	ldr	r0, [r3, #0]
2ffd70f8:	f7ff fcf6 	bl	2ffd6ae8 <io_dev_open>
2ffd70fc:	2800      	cmp	r0, #0
2ffd70fe:	d053      	beq.n	2ffd71a8 <stm32mp_io_setup+0x1ac>
2ffd7100:	f240 214f 	movw	r1, #591	; 0x24f
2ffd7104:	e7b2      	b.n	2ffd706c <stm32mp_io_setup+0x70>
2ffd7106:	483a      	ldr	r0, [pc, #232]	; (2ffd71f0 <stm32mp_io_setup+0x1f4>)
2ffd7108:	f004 f864 	bl	2ffdb1d4 <tf_log>
2ffd710c:	4b39      	ldr	r3, [pc, #228]	; (2ffd71f4 <stm32mp_io_setup+0x1f8>)
2ffd710e:	6023      	str	r3, [r4, #0]
2ffd7110:	e7ee      	b.n	2ffd70f0 <stm32mp_io_setup+0xf4>
2ffd7112:	f3bf 8f5f 	dmb	sy
2ffd7116:	f894 3035 	ldrb.w	r3, [r4, #53]	; 0x35
2ffd711a:	2740      	movs	r7, #64	; 0x40
2ffd711c:	f894 5034 	ldrb.w	r5, [r4, #52]	; 0x34
2ffd7120:	2201      	movs	r2, #1
2ffd7122:	f04f 4192 	mov.w	r1, #1224736768	; 0x49000000
2ffd7126:	ea45 2503 	orr.w	r5, r5, r3, lsl #8
2ffd712a:	f894 3036 	ldrb.w	r3, [r4, #54]	; 0x36
2ffd712e:	ea45 4503 	orr.w	r5, r5, r3, lsl #16
2ffd7132:	f894 3037 	ldrb.w	r3, [r4, #55]	; 0x37
2ffd7136:	4c30      	ldr	r4, [pc, #192]	; (2ffd71f8 <stm32mp_io_setup+0x1fc>)
2ffd7138:	ea45 6503 	orr.w	r5, r5, r3, lsl #24
2ffd713c:	4b2f      	ldr	r3, [pc, #188]	; (2ffd71fc <stm32mp_io_setup+0x200>)
2ffd713e:	4620      	mov	r0, r4
2ffd7140:	63df      	str	r7, [r3, #60]	; 0x3c
2ffd7142:	f8c3 71e0 	str.w	r7, [r3, #480]	; 0x1e0
2ffd7146:	f8c3 237c 	str.w	r2, [r3, #892]	; 0x37c
2ffd714a:	f8c4 3220 	str.w	r3, [r4, #544]	; 0x220
2ffd714e:	f002 ff8b 	bl	2ffda068 <usb_dwc2_init_driver>
2ffd7152:	4620      	mov	r0, r4
2ffd7154:	f003 fda0 	bl	2ffdac98 <usb_dfu_register_callback>
2ffd7158:	4620      	mov	r0, r4
2ffd715a:	f003 febd 	bl	2ffdaed8 <stm32mp_usb_init_desc>
2ffd715e:	682b      	ldr	r3, [r5, #0]
2ffd7160:	2202      	movs	r2, #2
2ffd7162:	4d27      	ldr	r5, [pc, #156]	; (2ffd7200 <stm32mp_io_setup+0x204>)
2ffd7164:	f8d3 31f4 	ldr.w	r3, [r3, #500]	; 0x1f4
2ffd7168:	6227      	str	r7, [r4, #32]
2ffd716a:	4628      	mov	r0, r5
2ffd716c:	f8c4 31f4 	str.w	r3, [r4, #500]	; 0x1f4
2ffd7170:	2303      	movs	r3, #3
2ffd7172:	f884 31fc 	strb.w	r3, [r4, #508]	; 0x1fc
2ffd7176:	4b23      	ldr	r3, [pc, #140]	; (2ffd7204 <stm32mp_io_setup+0x208>)
2ffd7178:	f8c4 7110 	str.w	r7, [r4, #272]	; 0x110
2ffd717c:	729a      	strb	r2, [r3, #10]
2ffd717e:	f04f 7200 	mov.w	r2, #33554432	; 0x2000000
2ffd7182:	60da      	str	r2, [r3, #12]
2ffd7184:	f8c4 3218 	str.w	r3, [r4, #536]	; 0x218
2ffd7188:	741e      	strb	r6, [r3, #16]
2ffd718a:	f002 fc2b 	bl	2ffd99e4 <register_io_dev_usb>
2ffd718e:	b110      	cbz	r0, 2ffd7196 <stm32mp_io_setup+0x19a>
2ffd7190:	f44f 711e 	mov.w	r1, #632	; 0x278
2ffd7194:	e76a      	b.n	2ffd706c <stm32mp_io_setup+0x70>
2ffd7196:	4a15      	ldr	r2, [pc, #84]	; (2ffd71ec <stm32mp_io_setup+0x1f0>)
2ffd7198:	4621      	mov	r1, r4
2ffd719a:	6828      	ldr	r0, [r5, #0]
2ffd719c:	f7ff fca4 	bl	2ffd6ae8 <io_dev_open>
2ffd71a0:	b110      	cbz	r0, 2ffd71a8 <stm32mp_io_setup+0x1ac>
2ffd71a2:	f240 217f 	movw	r1, #639	; 0x27f
2ffd71a6:	e761      	b.n	2ffd706c <stm32mp_io_setup+0x70>
2ffd71a8:	bdf8      	pop	{r3, r4, r5, r6, r7, pc}
2ffd71aa:	bf00      	nop
2ffd71ac:	2ffe19c5 	.word	0x2ffe19c5
2ffd71b0:	2ffe1a4a 	.word	0x2ffe1a4a
2ffd71b4:	2ffe1a5a 	.word	0x2ffe1a5a
2ffd71b8:	2ffe70d0 	.word	0x2ffe70d0
2ffd71bc:	2ffe1a77 	.word	0x2ffe1a77
2ffd71c0:	2ffe19d3 	.word	0x2ffe19d3
2ffd71c4:	2ffe19e0 	.word	0x2ffe19e0
2ffd71c8:	2ffe19f1 	.word	0x2ffe19f1
2ffd71cc:	2ffe1a02 	.word	0x2ffe1a02
2ffd71d0:	2ffe1a13 	.word	0x2ffe1a13
2ffd71d4:	2ffe1a20 	.word	0x2ffe1a20
2ffd71d8:	2ffe1a2c 	.word	0x2ffe1a2c
2ffd71dc:	2ffe70d4 	.word	0x2ffe70d4
2ffd71e0:	2ffe1ac0 	.word	0x2ffe1ac0
2ffd71e4:	2ffe74b8 	.word	0x2ffe74b8
2ffd71e8:	2ffe6050 	.word	0x2ffe6050
2ffd71ec:	2ffe70d8 	.word	0x2ffe70d8
2ffd71f0:	2ffe1a97 	.word	0x2ffe1a97
2ffd71f4:	4000e000 	.word	0x4000e000
2ffd71f8:	2ffe74bc 	.word	0x2ffe74bc
2ffd71fc:	2ffe70dc 	.word	0x2ffe70dc
2ffd7200:	2ffe76f0 	.word	0x2ffe76f0
2ffd7204:	2ffe76f4 	.word	0x2ffe76f4

2ffd7208 <plat_get_image_source>:
2ffd7208:	281d      	cmp	r0, #29
2ffd720a:	e92d 41f0 	stmdb	sp!, {r4, r5, r6, r7, r8, lr}
2ffd720e:	460d      	mov	r5, r1
2ffd7210:	4616      	mov	r6, r2
2ffd7212:	d904      	bls.n	2ffd721e <plat_get_image_source+0x16>
2ffd7214:	480a      	ldr	r0, [pc, #40]	; (2ffd7240 <plat_get_image_source+0x38>)
2ffd7216:	f240 21d6 	movw	r1, #726	; 0x2d6
2ffd721a:	f00a f8dd 	bl	2ffe13d8 <__assert>
2ffd721e:	4f09      	ldr	r7, [pc, #36]	; (2ffd7244 <plat_get_image_source+0x3c>)
2ffd7220:	240c      	movs	r4, #12
2ffd7222:	4344      	muls	r4, r0
2ffd7224:	193b      	adds	r3, r7, r4
2ffd7226:	f8d3 8004 	ldr.w	r8, [r3, #4]
2ffd722a:	689b      	ldr	r3, [r3, #8]
2ffd722c:	4640      	mov	r0, r8
2ffd722e:	4798      	blx	r3
2ffd7230:	b920      	cbnz	r0, 2ffd723c <plat_get_image_source+0x34>
2ffd7232:	593b      	ldr	r3, [r7, r4]
2ffd7234:	f8c6 8000 	str.w	r8, [r6]
2ffd7238:	681b      	ldr	r3, [r3, #0]
2ffd723a:	602b      	str	r3, [r5, #0]
2ffd723c:	e8bd 81f0 	ldmia.w	sp!, {r4, r5, r6, r7, r8, pc}
2ffd7240:	2ffe1a77 	.word	0x2ffe1a77
2ffd7244:	2ffe1b28 	.word	0x2ffe1b28

2ffd7248 <plat_try_next_boot_source>:
2ffd7248:	281d      	cmp	r0, #29
2ffd724a:	b508      	push	{r3, lr}
2ffd724c:	d904      	bls.n	2ffd7258 <plat_try_next_boot_source+0x10>
2ffd724e:	f44f 713c 	mov.w	r1, #752	; 0x2f0
2ffd7252:	4817      	ldr	r0, [pc, #92]	; (2ffd72b0 <plat_try_next_boot_source+0x68>)
2ffd7254:	f00a f8c0 	bl	2ffe13d8 <__assert>
2ffd7258:	4b16      	ldr	r3, [pc, #88]	; (2ffd72b4 <plat_try_next_boot_source+0x6c>)
2ffd725a:	681a      	ldr	r2, [r3, #0]
2ffd725c:	4282      	cmp	r2, r0
2ffd725e:	4a16      	ldr	r2, [pc, #88]	; (2ffd72b8 <plat_try_next_boot_source+0x70>)
2ffd7260:	bf1e      	ittt	ne
2ffd7262:	6018      	strne	r0, [r3, #0]
2ffd7264:	2300      	movne	r3, #0
2ffd7266:	6013      	strne	r3, [r2, #0]
2ffd7268:	6813      	ldr	r3, [r2, #0]
2ffd726a:	3301      	adds	r3, #1
2ffd726c:	6013      	str	r3, [r2, #0]
2ffd726e:	2b13      	cmp	r3, #19
2ffd7270:	d819      	bhi.n	2ffd72a6 <plat_try_next_boot_source+0x5e>
2ffd7272:	4b12      	ldr	r3, [pc, #72]	; (2ffd72bc <plat_try_next_boot_source+0x74>)
2ffd7274:	220c      	movs	r2, #12
2ffd7276:	4912      	ldr	r1, [pc, #72]	; (2ffd72c0 <plat_try_next_boot_source+0x78>)
2ffd7278:	fb02 3000 	mla	r0, r2, r0, r3
2ffd727c:	6843      	ldr	r3, [r0, #4]
2ffd727e:	6a9a      	ldr	r2, [r3, #40]	; 0x28
2ffd7280:	6a8b      	ldr	r3, [r1, #40]	; 0x28
2ffd7282:	429a      	cmp	r2, r3
2ffd7284:	d10c      	bne.n	2ffd72a0 <plat_try_next_boot_source+0x58>
2ffd7286:	6b08      	ldr	r0, [r1, #48]	; 0x30
2ffd7288:	b170      	cbz	r0, 2ffd72a8 <plat_try_next_boot_source+0x60>
2ffd728a:	6acb      	ldr	r3, [r1, #44]	; 0x2c
2ffd728c:	4a0d      	ldr	r2, [pc, #52]	; (2ffd72c4 <plat_try_next_boot_source+0x7c>)
2ffd728e:	4418      	add	r0, r3
2ffd7290:	62c8      	str	r0, [r1, #44]	; 0x2c
2ffd7292:	2000      	movs	r0, #0
2ffd7294:	f7ff fc28 	bl	2ffd6ae8 <io_dev_open>
2ffd7298:	b138      	cbz	r0, 2ffd72aa <plat_try_next_boot_source+0x62>
2ffd729a:	f44f 7145 	mov.w	r1, #788	; 0x314
2ffd729e:	e7d8      	b.n	2ffd7252 <plat_try_next_boot_source+0xa>
2ffd72a0:	f240 3106 	movw	r1, #774	; 0x306
2ffd72a4:	e7d5      	b.n	2ffd7252 <plat_try_next_boot_source+0xa>
2ffd72a6:	2000      	movs	r0, #0
2ffd72a8:	bd08      	pop	{r3, pc}
2ffd72aa:	2001      	movs	r0, #1
2ffd72ac:	e7fc      	b.n	2ffd72a8 <plat_try_next_boot_source+0x60>
2ffd72ae:	bf00      	nop
2ffd72b0:	2ffe1a77 	.word	0x2ffe1a77
2ffd72b4:	2ffe6000 	.word	0x2ffe6000
2ffd72b8:	2ffe70cc 	.word	0x2ffe70cc
2ffd72bc:	2ffe1b28 	.word	0x2ffe1b28
2ffd72c0:	2ffe6008 	.word	0x2ffe6008
2ffd72c4:	2ffe70d8 	.word	0x2ffe70d8

2ffd72c8 <get_boot_device>:
2ffd72c8:	4b01      	ldr	r3, [pc, #4]	; (2ffd72d0 <get_boot_device+0x8>)
2ffd72ca:	6818      	ldr	r0, [r3, #0]
2ffd72cc:	4770      	bx	lr
2ffd72ce:	bf00      	nop
2ffd72d0:	2ffe60d0 	.word	0x2ffe60d0

2ffd72d4 <bl2_el3_early_platform_setup>:
2ffd72d4:	f004 b936 	b.w	2ffdb544 <stm32mp_save_boot_ctx_address>

2ffd72d8 <bl2_platform_setup>:
2ffd72d8:	2319      	movs	r3, #25
2ffd72da:	b507      	push	{r0, r1, r2, lr}
2ffd72dc:	f04f 4240 	mov.w	r2, #3221225472	; 0xc0000000
2ffd72e0:	9300      	str	r3, [sp, #0]
2ffd72e2:	f04f 4040 	mov.w	r0, #3221225472	; 0xc0000000
2ffd72e6:	f04f 4380 	mov.w	r3, #1073741824	; 0x40000000
2ffd72ea:	2100      	movs	r1, #0
2ffd72ec:	f004 fd46 	bl	2ffdbd7c <mmap_add_dynamic_region>
2ffd72f0:	b118      	cbz	r0, 2ffd72fa <bl2_platform_setup+0x22>
2ffd72f2:	21ac      	movs	r1, #172	; 0xac
2ffd72f4:	481b      	ldr	r0, [pc, #108]	; (2ffd7364 <bl2_platform_setup+0x8c>)
2ffd72f6:	f00a f86f 	bl	2ffe13d8 <__assert>
2ffd72fa:	f002 f895 	bl	2ffd9428 <stm32mp1_ddr_probe>
2ffd72fe:	1e01      	subs	r1, r0, #0
2ffd7300:	da06      	bge.n	2ffd7310 <bl2_platform_setup+0x38>
2ffd7302:	4819      	ldr	r0, [pc, #100]	; (2ffd7368 <bl2_platform_setup+0x90>)
2ffd7304:	f003 ff66 	bl	2ffdb1d4 <tf_log>
2ffd7308:	f004 f802 	bl	2ffdb310 <console_flush>
2ffd730c:	f7fe efa8 	blx	2ffd6260 <do_panic>
2ffd7310:	f04f 4180 	mov.w	r1, #1073741824	; 0x40000000
2ffd7314:	f04f 4040 	mov.w	r0, #3221225472	; 0xc0000000
2ffd7318:	f004 fd44 	bl	2ffdbda4 <mmap_remove_dynamic_region>
2ffd731c:	b108      	cbz	r0, 2ffd7322 <bl2_platform_setup+0x4a>
2ffd731e:	21b6      	movs	r1, #182	; 0xb6
2ffd7320:	e7e8      	b.n	2ffd72f4 <bl2_platform_setup+0x1c>
2ffd7322:	4812      	ldr	r0, [pc, #72]	; (2ffd736c <bl2_platform_setup+0x94>)
2ffd7324:	f003 ff56 	bl	2ffdb1d4 <tf_log>
2ffd7328:	f009 f9e0 	bl	2ffe06ec <dt_get_ddr_size>
2ffd732c:	221a      	movs	r2, #26
2ffd732e:	4603      	mov	r3, r0
2ffd7330:	9200      	str	r2, [sp, #0]
2ffd7332:	f04f 4040 	mov.w	r0, #3221225472	; 0xc0000000
2ffd7336:	f04f 4240 	mov.w	r2, #3221225472	; 0xc0000000
2ffd733a:	2100      	movs	r1, #0
2ffd733c:	f004 fd1e 	bl	2ffdbd7c <mmap_add_dynamic_region>
2ffd7340:	b108      	cbz	r0, 2ffd7346 <bl2_platform_setup+0x6e>
2ffd7342:	21d5      	movs	r1, #213	; 0xd5
2ffd7344:	e7d6      	b.n	2ffd72f4 <bl2_platform_setup+0x1c>
2ffd7346:	f008 fc4d 	bl	2ffdfbe4 <dt_pmic_status>
2ffd734a:	2800      	cmp	r0, #0
2ffd734c:	dd07      	ble.n	2ffd735e <bl2_platform_setup+0x86>
2ffd734e:	4b08      	ldr	r3, [pc, #32]	; (2ffd7370 <bl2_platform_setup+0x98>)
2ffd7350:	781b      	ldrb	r3, [r3, #0]
2ffd7352:	b923      	cbnz	r3, 2ffd735e <bl2_platform_setup+0x86>
2ffd7354:	b003      	add	sp, #12
2ffd7356:	f85d eb04 	ldr.w	lr, [sp], #4
2ffd735a:	f008 bd30 	b.w	2ffdfdbe <configure_pmic>
2ffd735e:	b003      	add	sp, #12
2ffd7360:	f85d fb04 	ldr.w	pc, [sp], #4
2ffd7364:	2ffe1c90 	.word	0x2ffe1c90
2ffd7368:	2ffe1cb2 	.word	0x2ffe1cb2
2ffd736c:	2ffe1ccf 	.word	0x2ffe1ccf
2ffd7370:	2ffe8056 	.word	0x2ffe8056

2ffd7374 <bl2_el3_plat_arch_setup>:
2ffd7374:	b570      	push	{r4, r5, r6, lr}
2ffd7376:	b08a      	sub	sp, #40	; 0x28
2ffd7378:	2522      	movs	r5, #34	; 0x22
2ffd737a:	f004 f8e9 	bl	2ffdb550 <stm32mp_get_boot_ctx_address>
2ffd737e:	4aa5      	ldr	r2, [pc, #660]	; (2ffd7614 <bl2_el3_plat_arch_setup+0x2a0>)
2ffd7380:	2302      	movs	r3, #2
2ffd7382:	9300      	str	r3, [sp, #0]
2ffd7384:	2100      	movs	r1, #0
2ffd7386:	4ba4      	ldr	r3, [pc, #656]	; (2ffd7618 <bl2_el3_plat_arch_setup+0x2a4>)
2ffd7388:	4604      	mov	r4, r0
2ffd738a:	4610      	mov	r0, r2
2ffd738c:	1a9b      	subs	r3, r3, r2
2ffd738e:	f004 fcdb 	bl	2ffdbd48 <mmap_add_region>
2ffd7392:	4aa2      	ldr	r2, [pc, #648]	; (2ffd761c <bl2_el3_plat_arch_setup+0x2a8>)
2ffd7394:	f44f 3390 	mov.w	r3, #73728	; 0x12000
2ffd7398:	48a0      	ldr	r0, [pc, #640]	; (2ffd761c <bl2_el3_plat_arch_setup+0x2a8>)
2ffd739a:	2100      	movs	r1, #0
2ffd739c:	9500      	str	r5, [sp, #0]
2ffd739e:	f004 fcd3 	bl	2ffdbd48 <mmap_add_region>
2ffd73a2:	4a9f      	ldr	r2, [pc, #636]	; (2ffd7620 <bl2_el3_plat_arch_setup+0x2ac>)
2ffd73a4:	f44f 43c0 	mov.w	r3, #24576	; 0x6000
2ffd73a8:	489d      	ldr	r0, [pc, #628]	; (2ffd7620 <bl2_el3_plat_arch_setup+0x2ac>)
2ffd73aa:	2100      	movs	r1, #0
2ffd73ac:	9500      	str	r5, [sp, #0]
2ffd73ae:	f004 fccb 	bl	2ffdbd48 <mmap_add_region>
2ffd73b2:	f004 f9b1 	bl	2ffdb718 <configure_mmu>
2ffd73b6:	f009 f845 	bl	2ffe0444 <dt_open_and_check>
2ffd73ba:	2800      	cmp	r0, #0
2ffd73bc:	da03      	bge.n	2ffd73c6 <bl2_el3_plat_arch_setup+0x52>
2ffd73be:	f003 ffa7 	bl	2ffdb310 <console_flush>
2ffd73c2:	f7fe ef4e 	blx	2ffd6260 <do_panic>
2ffd73c6:	f004 f8d1 	bl	2ffdb56c <stm32mp_pwr_base>
2ffd73ca:	4606      	mov	r6, r0
2ffd73cc:	f004 f8d2 	bl	2ffdb574 <stm32mp_rcc_base>
2ffd73d0:	2303      	movs	r3, #3
2ffd73d2:	4605      	mov	r5, r0
2ffd73d4:	f8c0 3108 	str.w	r3, [r0, #264]	; 0x108
2ffd73d8:	6833      	ldr	r3, [r6, #0]
2ffd73da:	f443 7380 	orr.w	r3, r3, #256	; 0x100
2ffd73de:	6033      	str	r3, [r6, #0]
2ffd73e0:	6833      	ldr	r3, [r6, #0]
2ffd73e2:	05d9      	lsls	r1, r3, #23
2ffd73e4:	d5fc      	bpl.n	2ffd73e0 <bl2_el3_plat_arch_setup+0x6c>
2ffd73e6:	6973      	ldr	r3, [r6, #20]
2ffd73e8:	f043 0301 	orr.w	r3, r3, #1
2ffd73ec:	6173      	str	r3, [r6, #20]
2ffd73ee:	f005 fcc1 	bl	2ffdcd74 <bsec_probe>
2ffd73f2:	2800      	cmp	r0, #0
2ffd73f4:	d1e3      	bne.n	2ffd73be <bl2_el3_plat_arch_setup+0x4a>
2ffd73f6:	f8d5 3140 	ldr.w	r3, [r5, #320]	; 0x140
2ffd73fa:	f505 72a0 	add.w	r2, r5, #320	; 0x140
2ffd73fe:	f413 3f40 	tst.w	r3, #196608	; 0x30000
2ffd7402:	d10e      	bne.n	2ffd7422 <bl2_el3_plat_arch_setup+0xae>
2ffd7404:	f8d5 3140 	ldr.w	r3, [r5, #320]	; 0x140
2ffd7408:	f043 4300 	orr.w	r3, r3, #2147483648	; 0x80000000
2ffd740c:	f8c5 3140 	str.w	r3, [r5, #320]	; 0x140
2ffd7410:	6813      	ldr	r3, [r2, #0]
2ffd7412:	2b00      	cmp	r3, #0
2ffd7414:	dafc      	bge.n	2ffd7410 <bl2_el3_plat_arch_setup+0x9c>
2ffd7416:	f8d5 3140 	ldr.w	r3, [r5, #320]	; 0x140
2ffd741a:	f023 4300 	bic.w	r3, r3, #2147483648	; 0x80000000
2ffd741e:	f8c5 3140 	str.w	r3, [r5, #320]	; 0x140
2ffd7422:	f8d5 341c 	ldr.w	r3, [r5, #1052]	; 0x41c
2ffd7426:	f04f 120a 	mov.w	r2, #655370	; 0xa000a
2ffd742a:	0d9b      	lsrs	r3, r3, #22
2ffd742c:	059b      	lsls	r3, r3, #22
2ffd742e:	f043 0305 	orr.w	r3, r3, #5
2ffd7432:	f8c5 341c 	str.w	r3, [r5, #1052]	; 0x41c
2ffd7436:	68b3      	ldr	r3, [r6, #8]
2ffd7438:	f023 0303 	bic.w	r3, r3, #3
2ffd743c:	60b3      	str	r3, [r6, #8]
2ffd743e:	682b      	ldr	r3, [r5, #0]
2ffd7440:	f023 0302 	bic.w	r3, r3, #2
2ffd7444:	602b      	str	r3, [r5, #0]
2ffd7446:	4b77      	ldr	r3, [pc, #476]	; (2ffd7624 <bl2_el3_plat_arch_setup+0x2b0>)
2ffd7448:	4d77      	ldr	r5, [pc, #476]	; (2ffd7628 <bl2_el3_plat_arch_setup+0x2b4>)
2ffd744a:	601a      	str	r2, [r3, #0]
2ffd744c:	f894 204d 	ldrb.w	r2, [r4, #77]	; 0x4d
2ffd7450:	f894 304c 	ldrb.w	r3, [r4, #76]	; 0x4c
2ffd7454:	ea43 2302 	orr.w	r3, r3, r2, lsl #8
2ffd7458:	f894 204e 	ldrb.w	r2, [r4, #78]	; 0x4e
2ffd745c:	ea43 4302 	orr.w	r3, r3, r2, lsl #16
2ffd7460:	f894 204f 	ldrb.w	r2, [r4, #79]	; 0x4f
2ffd7464:	ea43 6302 	orr.w	r3, r3, r2, lsl #24
2ffd7468:	3b0a      	subs	r3, #10
2ffd746a:	2b01      	cmp	r3, #1
2ffd746c:	4b6f      	ldr	r3, [pc, #444]	; (2ffd762c <bl2_el3_plat_arch_setup+0x2b8>)
2ffd746e:	bf81      	itttt	hi
2ffd7470:	2200      	movhi	r2, #0
2ffd7472:	496f      	ldrhi	r1, [pc, #444]	; (2ffd7630 <bl2_el3_plat_arch_setup+0x2bc>)
2ffd7474:	601a      	strhi	r2, [r3, #0]
2ffd7476:	600a      	strhi	r2, [r1, #0]
2ffd7478:	681b      	ldr	r3, [r3, #0]
2ffd747a:	3b00      	subs	r3, #0
2ffd747c:	bf18      	it	ne
2ffd747e:	2301      	movne	r3, #1
2ffd7480:	702b      	strb	r3, [r5, #0]
2ffd7482:	f005 fb37 	bl	2ffdcaf4 <generic_delay_timer_init>
2ffd7486:	7823      	ldrb	r3, [r4, #0]
2ffd7488:	7862      	ldrb	r2, [r4, #1]
2ffd748a:	ea43 2302 	orr.w	r3, r3, r2, lsl #8
2ffd748e:	2b06      	cmp	r3, #6
2ffd7490:	d139      	bne.n	2ffd7506 <bl2_el3_plat_arch_setup+0x192>
2ffd7492:	4b68      	ldr	r3, [pc, #416]	; (2ffd7634 <bl2_el3_plat_arch_setup+0x2c0>)
2ffd7494:	2200      	movs	r2, #0
2ffd7496:	601a      	str	r2, [r3, #0]
2ffd7498:	f007 f94a 	bl	2ffde730 <stm32mp1_clk_probe>
2ffd749c:	2800      	cmp	r0, #0
2ffd749e:	db8e      	blt.n	2ffd73be <bl2_el3_plat_arch_setup+0x4a>
2ffd74a0:	f008 fba0 	bl	2ffdfbe4 <dt_pmic_status>
2ffd74a4:	2800      	cmp	r0, #0
2ffd74a6:	dd01      	ble.n	2ffd74ac <bl2_el3_plat_arch_setup+0x138>
2ffd74a8:	f008 fc80 	bl	2ffdfdac <initialize_pmic>
2ffd74ac:	2300      	movs	r3, #0
2ffd74ae:	e9cd 3302 	strd	r3, r3, [sp, #8]
2ffd74b2:	782b      	ldrb	r3, [r5, #0]
2ffd74b4:	2b00      	cmp	r3, #0
2ffd74b6:	d133      	bne.n	2ffd7520 <bl2_el3_plat_arch_setup+0x1ac>
2ffd74b8:	f005 ff6e 	bl	2ffdd398 <fdt_is_pll1_predefined>
2ffd74bc:	2800      	cmp	r0, #0
2ffd74be:	d133      	bne.n	2ffd7528 <bl2_el3_plat_arch_setup+0x1b4>
2ffd74c0:	782b      	ldrb	r3, [r5, #0]
2ffd74c2:	a902      	add	r1, sp, #8
2ffd74c4:	a803      	add	r0, sp, #12
2ffd74c6:	2b00      	cmp	r3, #0
2ffd74c8:	f000 8097 	beq.w	2ffd75fa <bl2_el3_plat_arch_setup+0x286>
2ffd74cc:	f006 fd9e 	bl	2ffde00c <stm32mp1_clk_get_maxfreq_opp>
2ffd74d0:	2800      	cmp	r0, #0
2ffd74d2:	f47f af74 	bne.w	2ffd73be <bl2_el3_plat_arch_setup+0x4a>
2ffd74d6:	f008 fb85 	bl	2ffdfbe4 <dt_pmic_status>
2ffd74da:	2800      	cmp	r0, #0
2ffd74dc:	dd24      	ble.n	2ffd7528 <bl2_el3_plat_arch_setup+0x1b4>
2ffd74de:	f004 f8d9 	bl	2ffdb694 <stm32mp_get_cpu_supply_name>
2ffd74e2:	4605      	mov	r5, r0
2ffd74e4:	2800      	cmp	r0, #0
2ffd74e6:	f43f af6a 	beq.w	2ffd73be <bl2_el3_plat_arch_setup+0x4a>
2ffd74ea:	f008 fd91 	bl	2ffe0010 <stpmic1_regulator_voltage_get>
2ffd74ee:	2800      	cmp	r0, #0
2ffd74f0:	f6ff af65 	blt.w	2ffd73be <bl2_el3_plat_arch_setup+0x4a>
2ffd74f4:	9902      	ldr	r1, [sp, #8]
2ffd74f6:	4281      	cmp	r1, r0
2ffd74f8:	d016      	beq.n	2ffd7528 <bl2_el3_plat_arch_setup+0x1b4>
2ffd74fa:	b289      	uxth	r1, r1
2ffd74fc:	4628      	mov	r0, r5
2ffd74fe:	f008 fe0f 	bl	2ffe0120 <stpmic1_regulator_voltage_set>
2ffd7502:	b188      	cbz	r0, 2ffd7528 <bl2_el3_plat_arch_setup+0x1b4>
2ffd7504:	e75b      	b.n	2ffd73be <bl2_el3_plat_arch_setup+0x4a>
2ffd7506:	2b05      	cmp	r3, #5
2ffd7508:	d1c6      	bne.n	2ffd7498 <bl2_el3_plat_arch_setup+0x124>
2ffd750a:	78a3      	ldrb	r3, [r4, #2]
2ffd750c:	78e0      	ldrb	r0, [r4, #3]
2ffd750e:	ea43 2000 	orr.w	r0, r3, r0, lsl #8
2ffd7512:	f004 f90f 	bl	2ffdb734 <get_uart_address>
2ffd7516:	6803      	ldr	r3, [r0, #0]
2ffd7518:	f023 0301 	bic.w	r3, r3, #1
2ffd751c:	6003      	str	r3, [r0, #0]
2ffd751e:	e7bb      	b.n	2ffd7498 <bl2_el3_plat_arch_setup+0x124>
2ffd7520:	f009 f9e2 	bl	2ffe08e8 <stm32_get_pll1_settings_from_context>
2ffd7524:	2800      	cmp	r0, #0
2ffd7526:	d0c7      	beq.n	2ffd74b8 <bl2_el3_plat_arch_setup+0x144>
2ffd7528:	9803      	ldr	r0, [sp, #12]
2ffd752a:	f006 fda9 	bl	2ffde080 <stm32mp1_clk_init>
2ffd752e:	2800      	cmp	r0, #0
2ffd7530:	f6ff af45 	blt.w	2ffd73be <bl2_el3_plat_arch_setup+0x4a>
2ffd7534:	a806      	add	r0, sp, #24
2ffd7536:	f009 f87f 	bl	2ffe0638 <dt_get_stdout_uart_info>
2ffd753a:	2800      	cmp	r0, #0
2ffd753c:	dd0a      	ble.n	2ffd7554 <bl2_el3_plat_arch_setup+0x1e0>
2ffd753e:	9b09      	ldr	r3, [sp, #36]	; 0x24
2ffd7540:	b143      	cbz	r3, 2ffd7554 <bl2_el3_plat_arch_setup+0x1e0>
2ffd7542:	7823      	ldrb	r3, [r4, #0]
2ffd7544:	7862      	ldrb	r2, [r4, #1]
2ffd7546:	ea43 2302 	orr.w	r3, r3, r2, lsl #8
2ffd754a:	2b05      	cmp	r3, #5
2ffd754c:	d058      	beq.n	2ffd7600 <bl2_el3_plat_arch_setup+0x28c>
2ffd754e:	9b07      	ldr	r3, [sp, #28]
2ffd7550:	2b00      	cmp	r3, #0
2ffd7552:	da7f      	bge.n	2ffd7654 <bl2_el3_plat_arch_setup+0x2e0>
2ffd7554:	f009 faba 	bl	2ffe0acc <stm32mp1_syscfg_init>
2ffd7558:	f008 f9aa 	bl	2ffdf8b0 <stm32_iwdg_init>
2ffd755c:	2800      	cmp	r0, #0
2ffd755e:	f6ff af2e 	blt.w	2ffd73be <bl2_el3_plat_arch_setup+0x4a>
2ffd7562:	f008 f985 	bl	2ffdf870 <stm32_iwdg_refresh>
2ffd7566:	f005 fbb7 	bl	2ffdccd8 <bsec_read_debug_conf>
2ffd756a:	b168      	cbz	r0, 2ffd7588 <bl2_el3_plat_arch_setup+0x214>
2ffd756c:	f009 fa3c 	bl	2ffe09e8 <stm32mp1_dbgmcu_freeze_iwdg2>
2ffd7570:	4601      	mov	r1, r0
2ffd7572:	b110      	cbz	r0, 2ffd757a <bl2_el3_plat_arch_setup+0x206>
2ffd7574:	4830      	ldr	r0, [pc, #192]	; (2ffd7638 <bl2_el3_plat_arch_setup+0x2c4>)
2ffd7576:	f003 fe2d 	bl	2ffdb1d4 <tf_log>
2ffd757a:	f004 fa5f 	bl	2ffdba3c <stm32mp_is_closed_device>
2ffd757e:	b118      	cbz	r0, 2ffd7588 <bl2_el3_plat_arch_setup+0x214>
2ffd7580:	492e      	ldr	r1, [pc, #184]	; (2ffd763c <bl2_el3_plat_arch_setup+0x2c8>)
2ffd7582:	482f      	ldr	r0, [pc, #188]	; (2ffd7640 <bl2_el3_plat_arch_setup+0x2cc>)
2ffd7584:	f003 fe26 	bl	2ffdb1d4 <tf_log>
2ffd7588:	78a2      	ldrb	r2, [r4, #2]
2ffd758a:	78e1      	ldrb	r1, [r4, #3]
2ffd758c:	7823      	ldrb	r3, [r4, #0]
2ffd758e:	7860      	ldrb	r0, [r4, #1]
2ffd7590:	ea42 2101 	orr.w	r1, r2, r1, lsl #8
2ffd7594:	ea43 2000 	orr.w	r0, r3, r0, lsl #8
2ffd7598:	f009 f9b6 	bl	2ffe0908 <stm32_save_boot_interface>
2ffd759c:	b110      	cbz	r0, 2ffd75a4 <bl2_el3_plat_arch_setup+0x230>
2ffd759e:	4829      	ldr	r0, [pc, #164]	; (2ffd7644 <bl2_el3_plat_arch_setup+0x2d0>)
2ffd75a0:	f003 fe18 	bl	2ffdb1d4 <tf_log>
2ffd75a4:	f009 fa36 	bl	2ffe0a14 <stm32mp1_arch_security_setup>
2ffd75a8:	f003 ffe4 	bl	2ffdb574 <stm32mp_rcc_base>
2ffd75ac:	f8d0 4408 	ldr.w	r4, [r0, #1032]	; 0x408
2ffd75b0:	2c00      	cmp	r4, #0
2ffd75b2:	f040 80ad 	bne.w	2ffd7710 <bl2_el3_plat_arch_setup+0x39c>
2ffd75b6:	4824      	ldr	r0, [pc, #144]	; (2ffd7648 <bl2_el3_plat_arch_setup+0x2d4>)
2ffd75b8:	f003 fe0c 	bl	2ffdb1d4 <tf_log>
2ffd75bc:	4823      	ldr	r0, [pc, #140]	; (2ffd764c <bl2_el3_plat_arch_setup+0x2d8>)
2ffd75be:	2200      	movs	r2, #0
2ffd75c0:	a905      	add	r1, sp, #20
2ffd75c2:	f004 f8d1 	bl	2ffdb768 <stm32_get_otp_index>
2ffd75c6:	2800      	cmp	r0, #0
2ffd75c8:	f47f aef9 	bne.w	2ffd73be <bl2_el3_plat_arch_setup+0x4a>
2ffd75cc:	481f      	ldr	r0, [pc, #124]	; (2ffd764c <bl2_el3_plat_arch_setup+0x2d8>)
2ffd75ce:	a904      	add	r1, sp, #16
2ffd75d0:	f004 f8f6 	bl	2ffdb7c0 <stm32_get_otp_value>
2ffd75d4:	2800      	cmp	r0, #0
2ffd75d6:	f47f aef2 	bne.w	2ffd73be <bl2_el3_plat_arch_setup+0x4a>
2ffd75da:	9a04      	ldr	r2, [sp, #16]
2ffd75dc:	3201      	adds	r2, #1
2ffd75de:	f040 80d9 	bne.w	2ffd7794 <bl2_el3_plat_arch_setup+0x420>
2ffd75e2:	9905      	ldr	r1, [sp, #20]
2ffd75e4:	9004      	str	r0, [sp, #16]
2ffd75e6:	f005 fcf5 	bl	2ffdcfd4 <bsec_program_otp>
2ffd75ea:	4601      	mov	r1, r0
2ffd75ec:	2800      	cmp	r0, #0
2ffd75ee:	f000 80cd 	beq.w	2ffd778c <bl2_el3_plat_arch_setup+0x418>
2ffd75f2:	4817      	ldr	r0, [pc, #92]	; (2ffd7650 <bl2_el3_plat_arch_setup+0x2dc>)
2ffd75f4:	f003 fdee 	bl	2ffdb1d4 <tf_log>
2ffd75f8:	e6e1      	b.n	2ffd73be <bl2_el3_plat_arch_setup+0x4a>
2ffd75fa:	f009 f889 	bl	2ffe0710 <dt_get_max_opp_freqvolt>
2ffd75fe:	e767      	b.n	2ffd74d0 <bl2_el3_plat_arch_setup+0x15c>
2ffd7600:	78a3      	ldrb	r3, [r4, #2]
2ffd7602:	78e0      	ldrb	r0, [r4, #3]
2ffd7604:	ea43 2000 	orr.w	r0, r3, r0, lsl #8
2ffd7608:	f004 f894 	bl	2ffdb734 <get_uart_address>
2ffd760c:	9b06      	ldr	r3, [sp, #24]
2ffd760e:	4298      	cmp	r0, r3
2ffd7610:	d19d      	bne.n	2ffd754e <bl2_el3_plat_arch_setup+0x1da>
2ffd7612:	e79f      	b.n	2ffd7554 <bl2_el3_plat_arch_setup+0x1e0>
2ffd7614:	2ffd6000 	.word	0x2ffd6000
2ffd7618:	2ffe6000 	.word	0x2ffe6000
2ffd761c:	2ffed000 	.word	0x2ffed000
2ffd7620:	2ffcb000 	.word	0x2ffcb000
2ffd7624:	5c00a020 	.word	0x5c00a020
2ffd7628:	2ffe8056 	.word	0x2ffe8056
2ffd762c:	5c00a114 	.word	0x5c00a114
2ffd7630:	5c00a110 	.word	0x5c00a110
2ffd7634:	2ffe60d0 	.word	0x2ffe60d0
2ffd7638:	2ffe1d20 	.word	0x2ffe1d20
2ffd763c:	2ffe1fdc 	.word	0x2ffe1fdc
2ffd7640:	2ffe1d3a 	.word	0x2ffe1d3a
2ffd7644:	2ffe1d3f 	.word	0x2ffe1d3f
2ffd7648:	2ffe1d5c 	.word	0x2ffe1d5c
2ffd764c:	2ffe1f71 	.word	0x2ffe1f71
2ffd7650:	2ffe1f7f 	.word	0x2ffe1f7f
2ffd7654:	9b08      	ldr	r3, [sp, #32]
2ffd7656:	2b00      	cmp	r3, #0
2ffd7658:	f6ff af7c 	blt.w	2ffd7554 <bl2_el3_plat_arch_setup+0x1e0>
2ffd765c:	f008 ff8a 	bl	2ffe0574 <dt_set_stdout_pinctrl>
2ffd7660:	2800      	cmp	r0, #0
2ffd7662:	f47f af77 	bne.w	2ffd7554 <bl2_el3_plat_arch_setup+0x1e0>
2ffd7666:	9b09      	ldr	r3, [sp, #36]	; 0x24
2ffd7668:	2b00      	cmp	r3, #0
2ffd766a:	f43f aea8 	beq.w	2ffd73be <bl2_el3_plat_arch_setup+0x4a>
2ffd766e:	9807      	ldr	r0, [sp, #28]
2ffd7670:	f006 fba8 	bl	2ffdddc4 <stm32mp_clk_enable>
2ffd7674:	9d08      	ldr	r5, [sp, #32]
2ffd7676:	f44f 717a 	mov.w	r1, #1000	; 0x3e8
2ffd767a:	4628      	mov	r0, r5
2ffd767c:	f008 fdb8 	bl	2ffe01f0 <stm32mp_reset_assert_to>
2ffd7680:	2800      	cmp	r0, #0
2ffd7682:	f47f ae9c 	bne.w	2ffd73be <bl2_el3_plat_arch_setup+0x4a>
2ffd7686:	2002      	movs	r0, #2
2ffd7688:	f005 f9dc 	bl	2ffdca44 <udelay>
2ffd768c:	f44f 717a 	mov.w	r1, #1000	; 0x3e8
2ffd7690:	4628      	mov	r0, r5
2ffd7692:	f008 fde5 	bl	2ffe0260 <stm32mp_reset_deassert_to>
2ffd7696:	2800      	cmp	r0, #0
2ffd7698:	f47f ae91 	bne.w	2ffd73be <bl2_el3_plat_arch_setup+0x4a>
2ffd769c:	2001      	movs	r0, #1
2ffd769e:	f005 f9ff 	bl	2ffdcaa0 <mdelay>
2ffd76a2:	9807      	ldr	r0, [sp, #28]
2ffd76a4:	f006 fb97 	bl	2ffdddd6 <stm32mp_clk_get_rate>
2ffd76a8:	4b40      	ldr	r3, [pc, #256]	; (2ffd77ac <bl2_el3_plat_arch_setup+0x438>)
2ffd76aa:	4601      	mov	r1, r0
2ffd76ac:	9806      	ldr	r0, [sp, #24]
2ffd76ae:	f44f 32e1 	mov.w	r2, #115200	; 0x1c200
2ffd76b2:	f7fe ef5a 	blx	2ffd6568 <console_stm32_register>
2ffd76b6:	2800      	cmp	r0, #0
2ffd76b8:	f43f ae81 	beq.w	2ffd73be <bl2_el3_plat_arch_setup+0x4a>
2ffd76bc:	483b      	ldr	r0, [pc, #236]	; (2ffd77ac <bl2_el3_plat_arch_setup+0x438>)
2ffd76be:	f240 1105 	movw	r1, #261	; 0x105
2ffd76c2:	f003 fdeb 	bl	2ffdb29c <console_set_scope>
2ffd76c6:	f004 f8e5 	bl	2ffdb894 <stm32mp_print_cpuinfo>
2ffd76ca:	f009 f8b7 	bl	2ffe083c <dt_get_board_model>
2ffd76ce:	4601      	mov	r1, r0
2ffd76d0:	b110      	cbz	r0, 2ffd76d8 <bl2_el3_plat_arch_setup+0x364>
2ffd76d2:	4837      	ldr	r0, [pc, #220]	; (2ffd77b0 <bl2_el3_plat_arch_setup+0x43c>)
2ffd76d4:	f003 fd7e 	bl	2ffdb1d4 <tf_log>
2ffd76d8:	f004 f98a 	bl	2ffdb9f0 <stm32mp_print_boardinfo>
2ffd76dc:	f894 3059 	ldrb.w	r3, [r4, #89]	; 0x59
2ffd76e0:	f894 1058 	ldrb.w	r1, [r4, #88]	; 0x58
2ffd76e4:	ea41 2103 	orr.w	r1, r1, r3, lsl #8
2ffd76e8:	f894 305a 	ldrb.w	r3, [r4, #90]	; 0x5a
2ffd76ec:	ea41 4103 	orr.w	r1, r1, r3, lsl #16
2ffd76f0:	f894 305b 	ldrb.w	r3, [r4, #91]	; 0x5b
2ffd76f4:	ea51 6103 	orrs.w	r1, r1, r3, lsl #24
2ffd76f8:	f43f af2c 	beq.w	2ffd7554 <bl2_el3_plat_arch_setup+0x1e0>
2ffd76fc:	4a2d      	ldr	r2, [pc, #180]	; (2ffd77b4 <bl2_el3_plat_arch_setup+0x440>)
2ffd76fe:	4b2e      	ldr	r3, [pc, #184]	; (2ffd77b8 <bl2_el3_plat_arch_setup+0x444>)
2ffd7700:	482e      	ldr	r0, [pc, #184]	; (2ffd77bc <bl2_el3_plat_arch_setup+0x448>)
2ffd7702:	2901      	cmp	r1, #1
2ffd7704:	bf0c      	ite	eq
2ffd7706:	4611      	moveq	r1, r2
2ffd7708:	4619      	movne	r1, r3
2ffd770a:	f003 fd63 	bl	2ffdb1d4 <tf_log>
2ffd770e:	e721      	b.n	2ffd7554 <bl2_el3_plat_arch_setup+0x1e0>
2ffd7710:	482b      	ldr	r0, [pc, #172]	; (2ffd77c0 <bl2_el3_plat_arch_setup+0x44c>)
2ffd7712:	4621      	mov	r1, r4
2ffd7714:	f003 fd5e 	bl	2ffdb1d4 <tf_log>
2ffd7718:	f014 0304 	ands.w	r3, r4, #4
2ffd771c:	d107      	bne.n	2ffd772e <bl2_el3_plat_arch_setup+0x3ba>
2ffd771e:	0522      	lsls	r2, r4, #20
2ffd7720:	d501      	bpl.n	2ffd7726 <bl2_el3_plat_arch_setup+0x3b2>
2ffd7722:	4828      	ldr	r0, [pc, #160]	; (2ffd77c4 <bl2_el3_plat_arch_setup+0x450>)
2ffd7724:	e748      	b.n	2ffd75b8 <bl2_el3_plat_arch_setup+0x244>
2ffd7726:	04e6      	lsls	r6, r4, #19
2ffd7728:	d501      	bpl.n	2ffd772e <bl2_el3_plat_arch_setup+0x3ba>
2ffd772a:	4827      	ldr	r0, [pc, #156]	; (2ffd77c8 <bl2_el3_plat_arch_setup+0x454>)
2ffd772c:	e744      	b.n	2ffd75b8 <bl2_el3_plat_arch_setup+0x244>
2ffd772e:	07e5      	lsls	r5, r4, #31
2ffd7730:	d501      	bpl.n	2ffd7736 <bl2_el3_plat_arch_setup+0x3c2>
2ffd7732:	4826      	ldr	r0, [pc, #152]	; (2ffd77cc <bl2_el3_plat_arch_setup+0x458>)
2ffd7734:	e740      	b.n	2ffd75b8 <bl2_el3_plat_arch_setup+0x244>
2ffd7736:	07a0      	lsls	r0, r4, #30
2ffd7738:	d501      	bpl.n	2ffd773e <bl2_el3_plat_arch_setup+0x3ca>
2ffd773a:	4825      	ldr	r0, [pc, #148]	; (2ffd77d0 <bl2_el3_plat_arch_setup+0x45c>)
2ffd773c:	e73c      	b.n	2ffd75b8 <bl2_el3_plat_arch_setup+0x244>
2ffd773e:	0621      	lsls	r1, r4, #24
2ffd7740:	d504      	bpl.n	2ffd774c <bl2_el3_plat_arch_setup+0x3d8>
2ffd7742:	b10b      	cbz	r3, 2ffd7748 <bl2_el3_plat_arch_setup+0x3d4>
2ffd7744:	4823      	ldr	r0, [pc, #140]	; (2ffd77d4 <bl2_el3_plat_arch_setup+0x460>)
2ffd7746:	e737      	b.n	2ffd75b8 <bl2_el3_plat_arch_setup+0x244>
2ffd7748:	4823      	ldr	r0, [pc, #140]	; (2ffd77d8 <bl2_el3_plat_arch_setup+0x464>)
2ffd774a:	e735      	b.n	2ffd75b8 <bl2_el3_plat_arch_setup+0x244>
2ffd774c:	0662      	lsls	r2, r4, #25
2ffd774e:	d501      	bpl.n	2ffd7754 <bl2_el3_plat_arch_setup+0x3e0>
2ffd7750:	4822      	ldr	r0, [pc, #136]	; (2ffd77dc <bl2_el3_plat_arch_setup+0x468>)
2ffd7752:	e731      	b.n	2ffd75b8 <bl2_el3_plat_arch_setup+0x244>
2ffd7754:	0726      	lsls	r6, r4, #28
2ffd7756:	d501      	bpl.n	2ffd775c <bl2_el3_plat_arch_setup+0x3e8>
2ffd7758:	4821      	ldr	r0, [pc, #132]	; (2ffd77e0 <bl2_el3_plat_arch_setup+0x46c>)
2ffd775a:	e72d      	b.n	2ffd75b8 <bl2_el3_plat_arch_setup+0x244>
2ffd775c:	05e5      	lsls	r5, r4, #23
2ffd775e:	d501      	bpl.n	2ffd7764 <bl2_el3_plat_arch_setup+0x3f0>
2ffd7760:	4820      	ldr	r0, [pc, #128]	; (2ffd77e4 <bl2_el3_plat_arch_setup+0x470>)
2ffd7762:	e729      	b.n	2ffd75b8 <bl2_el3_plat_arch_setup+0x244>
2ffd7764:	05a0      	lsls	r0, r4, #22
2ffd7766:	d501      	bpl.n	2ffd776c <bl2_el3_plat_arch_setup+0x3f8>
2ffd7768:	481f      	ldr	r0, [pc, #124]	; (2ffd77e8 <bl2_el3_plat_arch_setup+0x474>)
2ffd776a:	e725      	b.n	2ffd75b8 <bl2_el3_plat_arch_setup+0x244>
2ffd776c:	04a1      	lsls	r1, r4, #18
2ffd776e:	d501      	bpl.n	2ffd7774 <bl2_el3_plat_arch_setup+0x400>
2ffd7770:	481e      	ldr	r0, [pc, #120]	; (2ffd77ec <bl2_el3_plat_arch_setup+0x478>)
2ffd7772:	e721      	b.n	2ffd75b8 <bl2_el3_plat_arch_setup+0x244>
2ffd7774:	0462      	lsls	r2, r4, #17
2ffd7776:	d501      	bpl.n	2ffd777c <bl2_el3_plat_arch_setup+0x408>
2ffd7778:	481d      	ldr	r0, [pc, #116]	; (2ffd77f0 <bl2_el3_plat_arch_setup+0x47c>)
2ffd777a:	e71d      	b.n	2ffd75b8 <bl2_el3_plat_arch_setup+0x244>
2ffd777c:	b10b      	cbz	r3, 2ffd7782 <bl2_el3_plat_arch_setup+0x40e>
2ffd777e:	481d      	ldr	r0, [pc, #116]	; (2ffd77f4 <bl2_el3_plat_arch_setup+0x480>)
2ffd7780:	e71a      	b.n	2ffd75b8 <bl2_el3_plat_arch_setup+0x244>
2ffd7782:	06e3      	lsls	r3, r4, #27
2ffd7784:	bf4c      	ite	mi
2ffd7786:	481c      	ldrmi	r0, [pc, #112]	; (2ffd77f8 <bl2_el3_plat_arch_setup+0x484>)
2ffd7788:	481c      	ldrpl	r0, [pc, #112]	; (2ffd77fc <bl2_el3_plat_arch_setup+0x488>)
2ffd778a:	e715      	b.n	2ffd75b8 <bl2_el3_plat_arch_setup+0x244>
2ffd778c:	9904      	ldr	r1, [sp, #16]
2ffd778e:	481c      	ldr	r0, [pc, #112]	; (2ffd7800 <bl2_el3_plat_arch_setup+0x48c>)
2ffd7790:	f003 fd20 	bl	2ffdb1d4 <tf_log>
2ffd7794:	f008 fa26 	bl	2ffdfbe4 <dt_pmic_status>
2ffd7798:	2800      	cmp	r0, #0
2ffd779a:	dd03      	ble.n	2ffd77a4 <bl2_el3_plat_arch_setup+0x430>
2ffd779c:	f008 fb06 	bl	2ffdfdac <initialize_pmic>
2ffd77a0:	f008 fb18 	bl	2ffdfdd4 <print_pmic_info_and_debug>
2ffd77a4:	f7ff fc2a 	bl	2ffd6ffc <stm32mp_io_setup>
2ffd77a8:	b00a      	add	sp, #40	; 0x28
2ffd77aa:	bd70      	pop	{r4, r5, r6, pc}
2ffd77ac:	2ffe7718 	.word	0x2ffe7718
2ffd77b0:	2ffe1cf8 	.word	0x2ffe1cf8
2ffd77b4:	2ffe1ce7 	.word	0x2ffe1ce7
2ffd77b8:	2ffe1cee 	.word	0x2ffe1cee
2ffd77bc:	2ffe1d04 	.word	0x2ffe1d04
2ffd77c0:	2ffe1d73 	.word	0x2ffe1d73
2ffd77c4:	2ffe1d8a 	.word	0x2ffe1d8a
2ffd77c8:	2ffe1da6 	.word	0x2ffe1da6
2ffd77cc:	2ffe1dc0 	.word	0x2ffe1dc0
2ffd77d0:	2ffe1ddd 	.word	0x2ffe1ddd
2ffd77d4:	2ffe1dfa 	.word	0x2ffe1dfa
2ffd77d8:	2ffe1e27 	.word	0x2ffe1e27
2ffd77dc:	2ffe1e53 	.word	0x2ffe1e53
2ffd77e0:	2ffe1e80 	.word	0x2ffe1e80
2ffd77e4:	2ffe1ea8 	.word	0x2ffe1ea8
2ffd77e8:	2ffe1ec4 	.word	0x2ffe1ec4
2ffd77ec:	2ffe1ee0 	.word	0x2ffe1ee0
2ffd77f0:	2ffe1efa 	.word	0x2ffe1efa
2ffd77f4:	2ffe1f14 	.word	0x2ffe1f14
2ffd77f8:	2ffe1f2c 	.word	0x2ffe1f2c
2ffd77fc:	2ffe1f53 	.word	0x2ffe1f53
2ffd7800:	2ffe1fa6 	.word	0x2ffe1fa6

2ffd7804 <bl2_plat_handle_post_image_load>:
2ffd7804:	b538      	push	{r3, r4, r5, lr}
2ffd7806:	4605      	mov	r5, r0
2ffd7808:	f001 fe74 	bl	2ffd94f4 <get_bl_mem_params_node>
2ffd780c:	4604      	mov	r4, r0
2ffd780e:	b920      	cbnz	r0, 2ffd781a <bl2_plat_handle_post_image_load+0x16>
2ffd7810:	4807      	ldr	r0, [pc, #28]	; (2ffd7830 <bl2_plat_handle_post_image_load+0x2c>)
2ffd7812:	f240 2163 	movw	r1, #611	; 0x263
2ffd7816:	f009 fddf 	bl	2ffe13d8 <__assert>
2ffd781a:	f003 ff61 	bl	2ffdb6e0 <stm32mp_delete_loaded_header>
2ffd781e:	2d05      	cmp	r5, #5
2ffd7820:	d103      	bne.n	2ffd782a <bl2_plat_handle_post_image_load+0x26>
2ffd7822:	6961      	ldr	r1, [r4, #20]
2ffd7824:	68e0      	ldr	r0, [r4, #12]
2ffd7826:	f7fe edc2 	blx	2ffd63ac <flush_dcache_range>
2ffd782a:	2000      	movs	r0, #0
2ffd782c:	bd38      	pop	{r3, r4, r5, pc}
2ffd782e:	bf00      	nop
2ffd7830:	2ffe1c90 	.word	0x2ffe1c90

2ffd7834 <auth_get_param.isra.0>:
2ffd7834:	b5f0      	push	{r4, r5, r6, r7, lr}
2ffd7836:	469c      	mov	ip, r3
2ffd7838:	680d      	ldr	r5, [r1, #0]
2ffd783a:	b1c5      	cbz	r5, 2ffd786e <auth_get_param.isra.0+0x3a>
2ffd783c:	6807      	ldr	r7, [r0, #0]
2ffd783e:	2400      	movs	r4, #0
2ffd7840:	592e      	ldr	r6, [r5, r4]
2ffd7842:	eb05 0e04 	add.w	lr, r5, r4
2ffd7846:	6833      	ldr	r3, [r6, #0]
2ffd7848:	429f      	cmp	r7, r3
2ffd784a:	d10d      	bne.n	2ffd7868 <auth_get_param.isra.0+0x34>
2ffd784c:	6876      	ldr	r6, [r6, #4]
2ffd784e:	6843      	ldr	r3, [r0, #4]
2ffd7850:	42b3      	cmp	r3, r6
2ffd7852:	d109      	bne.n	2ffd7868 <auth_get_param.isra.0+0x34>
2ffd7854:	f8de 0004 	ldr.w	r0, [lr, #4]
2ffd7858:	6010      	str	r0, [r2, #0]
2ffd785a:	2000      	movs	r0, #0
2ffd785c:	680a      	ldr	r2, [r1, #0]
2ffd785e:	4414      	add	r4, r2
2ffd7860:	68a2      	ldr	r2, [r4, #8]
2ffd7862:	f8cc 2000 	str.w	r2, [ip]
2ffd7866:	bdf0      	pop	{r4, r5, r6, r7, pc}
2ffd7868:	340c      	adds	r4, #12
2ffd786a:	2c30      	cmp	r4, #48	; 0x30
2ffd786c:	d1e8      	bne.n	2ffd7840 <auth_get_param.isra.0+0xc>
2ffd786e:	2001      	movs	r0, #1
2ffd7870:	e7f9      	b.n	2ffd7866 <auth_get_param.isra.0+0x32>

2ffd7872 <plat_set_nv_ctr2>:
2ffd7872:	4611      	mov	r1, r2
2ffd7874:	f000 bc00 	b.w	2ffd8078 <plat_set_nv_ctr>

2ffd7878 <auth_mod_get_parent_id>:
2ffd7878:	b508      	push	{r3, lr}
2ffd787a:	b921      	cbnz	r1, 2ffd7886 <auth_mod_get_parent_id+0xe>
2ffd787c:	480b      	ldr	r0, [pc, #44]	; (2ffd78ac <auth_mod_get_parent_id+0x34>)
2ffd787e:	f240 1133 	movw	r1, #307	; 0x133
2ffd7882:	f009 fda9 	bl	2ffe13d8 <__assert>
2ffd7886:	4b0a      	ldr	r3, [pc, #40]	; (2ffd78b0 <auth_mod_get_parent_id+0x38>)
2ffd7888:	681b      	ldr	r3, [r3, #0]
2ffd788a:	f853 3020 	ldr.w	r3, [r3, r0, lsl #2]
2ffd788e:	689b      	ldr	r3, [r3, #8]
2ffd7890:	b91b      	cbnz	r3, 2ffd789a <auth_mod_get_parent_id+0x22>
2ffd7892:	2001      	movs	r0, #1
2ffd7894:	2300      	movs	r3, #0
2ffd7896:	600b      	str	r3, [r1, #0]
2ffd7898:	bd08      	pop	{r3, pc}
2ffd789a:	681b      	ldr	r3, [r3, #0]
2ffd789c:	4a05      	ldr	r2, [pc, #20]	; (2ffd78b4 <auth_mod_get_parent_id+0x3c>)
2ffd789e:	f852 0023 	ldr.w	r0, [r2, r3, lsl #2]
2ffd78a2:	f010 0001 	ands.w	r0, r0, #1
2ffd78a6:	d1f4      	bne.n	2ffd7892 <auth_mod_get_parent_id+0x1a>
2ffd78a8:	600b      	str	r3, [r1, #0]
2ffd78aa:	e7f5      	b.n	2ffd7898 <auth_mod_get_parent_id+0x20>
2ffd78ac:	2ffe224e 	.word	0x2ffe224e
2ffd78b0:	2ffe23dc 	.word	0x2ffe23dc
2ffd78b4:	2ffe815c 	.word	0x2ffe815c

2ffd78b8 <auth_mod_init>:
2ffd78b8:	b508      	push	{r3, lr}
2ffd78ba:	4b07      	ldr	r3, [pc, #28]	; (2ffd78d8 <auth_mod_init+0x20>)
2ffd78bc:	681b      	ldr	r3, [r3, #0]
2ffd78be:	b923      	cbnz	r3, 2ffd78ca <auth_mod_init+0x12>
2ffd78c0:	4806      	ldr	r0, [pc, #24]	; (2ffd78dc <auth_mod_init+0x24>)
2ffd78c2:	f44f 71a7 	mov.w	r1, #334	; 0x14e
2ffd78c6:	f009 fd87 	bl	2ffe13d8 <__assert>
2ffd78ca:	f000 f94b 	bl	2ffd7b64 <crypto_mod_init>
2ffd78ce:	e8bd 4008 	ldmia.w	sp!, {r3, lr}
2ffd78d2:	f000 b9bb 	b.w	2ffd7c4c <img_parser_init>
2ffd78d6:	bf00      	nop
2ffd78d8:	2ffe23dc 	.word	0x2ffe23dc
2ffd78dc:	2ffe224e 	.word	0x2ffe224e

2ffd78e0 <auth_mod_verify_img>:
2ffd78e0:	4b9c      	ldr	r3, [pc, #624]	; (2ffd7b54 <auth_mod_verify_img+0x274>)
2ffd78e2:	e92d 4ff0 	stmdb	sp!, {r4, r5, r6, r7, r8, r9, sl, fp, lr}
2ffd78e6:	b091      	sub	sp, #68	; 0x44
2ffd78e8:	681b      	ldr	r3, [r3, #0]
2ffd78ea:	460f      	mov	r7, r1
2ffd78ec:	4690      	mov	r8, r2
2ffd78ee:	f853 4020 	ldr.w	r4, [r3, r0, lsl #2]
2ffd78f2:	6860      	ldr	r0, [r4, #4]
2ffd78f4:	f000 f9f4 	bl	2ffd7ce0 <img_parser_check_integrity>
2ffd78f8:	4605      	mov	r5, r0
2ffd78fa:	2800      	cmp	r0, #0
2ffd78fc:	f040 809e 	bne.w	2ffd7a3c <auth_mod_verify_img+0x15c>
2ffd7900:	68e3      	ldr	r3, [r4, #12]
2ffd7902:	b90b      	cbnz	r3, 2ffd7908 <auth_mod_verify_img+0x28>
2ffd7904:	2501      	movs	r5, #1
2ffd7906:	e099      	b.n	2ffd7a3c <auth_mod_verify_img+0x15c>
2ffd7908:	4682      	mov	sl, r0
2ffd790a:	68e3      	ldr	r3, [r4, #12]
2ffd790c:	eb03 060a 	add.w	r6, r3, sl
2ffd7910:	f853 300a 	ldr.w	r3, [r3, sl]
2ffd7914:	2b03      	cmp	r3, #3
2ffd7916:	d8f5      	bhi.n	2ffd7904 <auth_mod_verify_img+0x24>
2ffd7918:	e8df f013 	tbh	[pc, r3, lsl #1]
2ffd791c:	0004007f 	.word	0x0004007f
2ffd7920:	00af0021 	.word	0x00af0021
2ffd7924:	68a1      	ldr	r1, [r4, #8]
2ffd7926:	ab0f      	add	r3, sp, #60	; 0x3c
2ffd7928:	68b0      	ldr	r0, [r6, #8]
2ffd792a:	aa0d      	add	r2, sp, #52	; 0x34
2ffd792c:	3110      	adds	r1, #16
2ffd792e:	f7ff ff81 	bl	2ffd7834 <auth_get_param.isra.0>
2ffd7932:	b990      	cbnz	r0, 2ffd795a <auth_mod_verify_img+0x7a>
2ffd7934:	ab0e      	add	r3, sp, #56	; 0x38
2ffd7936:	463a      	mov	r2, r7
2ffd7938:	9301      	str	r3, [sp, #4]
2ffd793a:	ab0c      	add	r3, sp, #48	; 0x30
2ffd793c:	9300      	str	r3, [sp, #0]
2ffd793e:	4643      	mov	r3, r8
2ffd7940:	6871      	ldr	r1, [r6, #4]
2ffd7942:	6860      	ldr	r0, [r4, #4]
2ffd7944:	f000 f9f0 	bl	2ffd7d28 <img_parser_get_auth_param>
2ffd7948:	b938      	cbnz	r0, 2ffd795a <auth_mod_verify_img+0x7a>
2ffd794a:	9b0f      	ldr	r3, [sp, #60]	; 0x3c
2ffd794c:	9a0d      	ldr	r2, [sp, #52]	; 0x34
2ffd794e:	990e      	ldr	r1, [sp, #56]	; 0x38
2ffd7950:	980c      	ldr	r0, [sp, #48]	; 0x30
2ffd7952:	f000 f95f 	bl	2ffd7c14 <crypto_mod_verify_hash>
2ffd7956:	2800      	cmp	r0, #0
2ffd7958:	d05f      	beq.n	2ffd7a1a <auth_mod_verify_img+0x13a>
2ffd795a:	4605      	mov	r5, r0
2ffd795c:	e06e      	b.n	2ffd7a3c <auth_mod_verify_img+0x15c>
2ffd795e:	2300      	movs	r3, #0
2ffd7960:	463a      	mov	r2, r7
2ffd7962:	930f      	str	r3, [sp, #60]	; 0x3c
2ffd7964:	ab0b      	add	r3, sp, #44	; 0x2c
2ffd7966:	9301      	str	r3, [sp, #4]
2ffd7968:	ab07      	add	r3, sp, #28
2ffd796a:	9300      	str	r3, [sp, #0]
2ffd796c:	4643      	mov	r3, r8
2ffd796e:	6931      	ldr	r1, [r6, #16]
2ffd7970:	6860      	ldr	r0, [r4, #4]
2ffd7972:	f000 f9d9 	bl	2ffd7d28 <img_parser_get_auth_param>
2ffd7976:	2800      	cmp	r0, #0
2ffd7978:	d1ef      	bne.n	2ffd795a <auth_mod_verify_img+0x7a>
2ffd797a:	ab0d      	add	r3, sp, #52	; 0x34
2ffd797c:	463a      	mov	r2, r7
2ffd797e:	9301      	str	r3, [sp, #4]
2ffd7980:	ab09      	add	r3, sp, #36	; 0x24
2ffd7982:	9300      	str	r3, [sp, #0]
2ffd7984:	4643      	mov	r3, r8
2ffd7986:	68b1      	ldr	r1, [r6, #8]
2ffd7988:	6860      	ldr	r0, [r4, #4]
2ffd798a:	f000 f9cd 	bl	2ffd7d28 <img_parser_get_auth_param>
2ffd798e:	2800      	cmp	r0, #0
2ffd7990:	d1e3      	bne.n	2ffd795a <auth_mod_verify_img+0x7a>
2ffd7992:	ab0e      	add	r3, sp, #56	; 0x38
2ffd7994:	463a      	mov	r2, r7
2ffd7996:	9301      	str	r3, [sp, #4]
2ffd7998:	ab0a      	add	r3, sp, #40	; 0x28
2ffd799a:	9300      	str	r3, [sp, #0]
2ffd799c:	4643      	mov	r3, r8
2ffd799e:	68f1      	ldr	r1, [r6, #12]
2ffd79a0:	6860      	ldr	r0, [r4, #4]
2ffd79a2:	f000 f9c1 	bl	2ffd7d28 <img_parser_get_auth_param>
2ffd79a6:	2800      	cmp	r0, #0
2ffd79a8:	d1d7      	bne.n	2ffd795a <auth_mod_verify_img+0x7a>
2ffd79aa:	68a1      	ldr	r1, [r4, #8]
2ffd79ac:	f10d 0930 	add.w	r9, sp, #48	; 0x30
2ffd79b0:	6870      	ldr	r0, [r6, #4]
2ffd79b2:	f10d 0b20 	add.w	fp, sp, #32
2ffd79b6:	2900      	cmp	r1, #0
2ffd79b8:	d044      	beq.n	2ffd7a44 <auth_mod_verify_img+0x164>
2ffd79ba:	464b      	mov	r3, r9
2ffd79bc:	465a      	mov	r2, fp
2ffd79be:	3110      	adds	r1, #16
2ffd79c0:	f7ff ff38 	bl	2ffd7834 <auth_get_param.isra.0>
2ffd79c4:	2800      	cmp	r0, #0
2ffd79c6:	d1c8      	bne.n	2ffd795a <auth_mod_verify_img+0x7a>
2ffd79c8:	9b08      	ldr	r3, [sp, #32]
2ffd79ca:	9305      	str	r3, [sp, #20]
2ffd79cc:	9b0c      	ldr	r3, [sp, #48]	; 0x30
2ffd79ce:	9304      	str	r3, [sp, #16]
2ffd79d0:	9b0f      	ldr	r3, [sp, #60]	; 0x3c
2ffd79d2:	079a      	lsls	r2, r3, #30
2ffd79d4:	d042      	beq.n	2ffd7a5c <auth_mod_verify_img+0x17c>
2ffd79d6:	f8cd 9004 	str.w	r9, [sp, #4]
2ffd79da:	4643      	mov	r3, r8
2ffd79dc:	f8cd b000 	str.w	fp, [sp]
2ffd79e0:	463a      	mov	r2, r7
2ffd79e2:	6871      	ldr	r1, [r6, #4]
2ffd79e4:	6860      	ldr	r0, [r4, #4]
2ffd79e6:	f000 f99f 	bl	2ffd7d28 <img_parser_get_auth_param>
2ffd79ea:	2800      	cmp	r0, #0
2ffd79ec:	d1b5      	bne.n	2ffd795a <auth_mod_verify_img+0x7a>
2ffd79ee:	9b0c      	ldr	r3, [sp, #48]	; 0x30
2ffd79f0:	9a09      	ldr	r2, [sp, #36]	; 0x24
2ffd79f2:	9303      	str	r3, [sp, #12]
2ffd79f4:	9b08      	ldr	r3, [sp, #32]
2ffd79f6:	990b      	ldr	r1, [sp, #44]	; 0x2c
2ffd79f8:	9302      	str	r3, [sp, #8]
2ffd79fa:	9b0e      	ldr	r3, [sp, #56]	; 0x38
2ffd79fc:	9807      	ldr	r0, [sp, #28]
2ffd79fe:	9301      	str	r3, [sp, #4]
2ffd7a00:	9b0a      	ldr	r3, [sp, #40]	; 0x28
2ffd7a02:	9300      	str	r3, [sp, #0]
2ffd7a04:	9b0d      	ldr	r3, [sp, #52]	; 0x34
2ffd7a06:	f000 f8cf 	bl	2ffd7ba8 <crypto_mod_verify_signature>
2ffd7a0a:	2800      	cmp	r0, #0
2ffd7a0c:	d1a5      	bne.n	2ffd795a <auth_mod_verify_img+0x7a>
2ffd7a0e:	9b0f      	ldr	r3, [sp, #60]	; 0x3c
2ffd7a10:	079b      	lsls	r3, r3, #30
2ffd7a12:	d51e      	bpl.n	2ffd7a52 <auth_mod_verify_img+0x172>
2ffd7a14:	4850      	ldr	r0, [pc, #320]	; (2ffd7b58 <auth_mod_verify_img+0x278>)
2ffd7a16:	f003 fbdd 	bl	2ffdb1d4 <tf_log>
2ffd7a1a:	f10a 0a14 	add.w	sl, sl, #20
2ffd7a1e:	f1ba 0f50 	cmp.w	sl, #80	; 0x50
2ffd7a22:	f47f af72 	bne.w	2ffd790a <auth_mod_verify_img+0x2a>
2ffd7a26:	6923      	ldr	r3, [r4, #16]
2ffd7a28:	2b00      	cmp	r3, #0
2ffd7a2a:	d170      	bne.n	2ffd7b0e <auth_mod_verify_img+0x22e>
2ffd7a2c:	6821      	ldr	r1, [r4, #0]
2ffd7a2e:	4a4b      	ldr	r2, [pc, #300]	; (2ffd7b5c <auth_mod_verify_img+0x27c>)
2ffd7a30:	f852 3021 	ldr.w	r3, [r2, r1, lsl #2]
2ffd7a34:	f043 0301 	orr.w	r3, r3, #1
2ffd7a38:	f842 3021 	str.w	r3, [r2, r1, lsl #2]
2ffd7a3c:	4628      	mov	r0, r5
2ffd7a3e:	b011      	add	sp, #68	; 0x44
2ffd7a40:	e8bd 8ff0 	ldmia.w	sp!, {r4, r5, r6, r7, r8, r9, sl, fp, pc}
2ffd7a44:	6840      	ldr	r0, [r0, #4]
2ffd7a46:	ab0f      	add	r3, sp, #60	; 0x3c
2ffd7a48:	464a      	mov	r2, r9
2ffd7a4a:	4659      	mov	r1, fp
2ffd7a4c:	f000 fac0 	bl	2ffd7fd0 <plat_get_rotpk_info>
2ffd7a50:	e7b8      	b.n	2ffd79c4 <auth_mod_verify_img+0xe4>
2ffd7a52:	9b04      	ldr	r3, [sp, #16]
2ffd7a54:	9a05      	ldr	r2, [sp, #20]
2ffd7a56:	990c      	ldr	r1, [sp, #48]	; 0x30
2ffd7a58:	9808      	ldr	r0, [sp, #32]
2ffd7a5a:	e77a      	b.n	2ffd7952 <auth_mod_verify_img+0x72>
2ffd7a5c:	9b04      	ldr	r3, [sp, #16]
2ffd7a5e:	9a09      	ldr	r2, [sp, #36]	; 0x24
2ffd7a60:	9303      	str	r3, [sp, #12]
2ffd7a62:	9b05      	ldr	r3, [sp, #20]
2ffd7a64:	990b      	ldr	r1, [sp, #44]	; 0x2c
2ffd7a66:	9302      	str	r3, [sp, #8]
2ffd7a68:	9b0e      	ldr	r3, [sp, #56]	; 0x38
2ffd7a6a:	9807      	ldr	r0, [sp, #28]
2ffd7a6c:	9301      	str	r3, [sp, #4]
2ffd7a6e:	9b0a      	ldr	r3, [sp, #40]	; 0x28
2ffd7a70:	9300      	str	r3, [sp, #0]
2ffd7a72:	9b0d      	ldr	r3, [sp, #52]	; 0x34
2ffd7a74:	f000 f898 	bl	2ffd7ba8 <crypto_mod_verify_signature>
2ffd7a78:	e76d      	b.n	2ffd7956 <auth_mod_verify_img+0x76>
2ffd7a7a:	2300      	movs	r3, #0
2ffd7a7c:	463a      	mov	r2, r7
2ffd7a7e:	930d      	str	r3, [sp, #52]	; 0x34
2ffd7a80:	ab0e      	add	r3, sp, #56	; 0x38
2ffd7a82:	9301      	str	r3, [sp, #4]
2ffd7a84:	ab0d      	add	r3, sp, #52	; 0x34
2ffd7a86:	9300      	str	r3, [sp, #0]
2ffd7a88:	4643      	mov	r3, r8
2ffd7a8a:	6871      	ldr	r1, [r6, #4]
2ffd7a8c:	6860      	ldr	r0, [r4, #4]
2ffd7a8e:	f000 f94b 	bl	2ffd7d28 <img_parser_get_auth_param>
2ffd7a92:	2800      	cmp	r0, #0
2ffd7a94:	f47f af61 	bne.w	2ffd795a <auth_mod_verify_img+0x7a>
2ffd7a98:	9b0d      	ldr	r3, [sp, #52]	; 0x34
2ffd7a9a:	b91b      	cbnz	r3, 2ffd7aa4 <auth_mod_verify_img+0x1c4>
2ffd7a9c:	4830      	ldr	r0, [pc, #192]	; (2ffd7b60 <auth_mod_verify_img+0x280>)
2ffd7a9e:	21f9      	movs	r1, #249	; 0xf9
2ffd7aa0:	f009 fc9a 	bl	2ffe13d8 <__assert>
2ffd7aa4:	781a      	ldrb	r2, [r3, #0]
2ffd7aa6:	2a02      	cmp	r2, #2
2ffd7aa8:	f47f af2c 	bne.w	2ffd7904 <auth_mod_verify_img+0x24>
2ffd7aac:	f993 2001 	ldrsb.w	r2, [r3, #1]
2ffd7ab0:	7859      	ldrb	r1, [r3, #1]
2ffd7ab2:	2a00      	cmp	r2, #0
2ffd7ab4:	f6ff af26 	blt.w	2ffd7904 <auth_mod_verify_img+0x24>
2ffd7ab8:	2904      	cmp	r1, #4
2ffd7aba:	f63f af23 	bhi.w	2ffd7904 <auth_mod_verify_img+0x24>
2ffd7abe:	f993 2002 	ldrsb.w	r2, [r3, #2]
2ffd7ac2:	2a00      	cmp	r2, #0
2ffd7ac4:	f6ff af1e 	blt.w	2ffd7904 <auth_mod_verify_img+0x24>
2ffd7ac8:	1c9a      	adds	r2, r3, #2
2ffd7aca:	f1c3 23ff 	rsb	r3, r3, #4278255360	; 0xff00ff00
2ffd7ace:	f503 037f 	add.w	r3, r3, #16711680	; 0xff0000
2ffd7ad2:	4681      	mov	r9, r0
2ffd7ad4:	33fe      	adds	r3, #254	; 0xfe
2ffd7ad6:	18d0      	adds	r0, r2, r3
2ffd7ad8:	4288      	cmp	r0, r1
2ffd7ada:	d313      	bcc.n	2ffd7b04 <auth_mod_verify_img+0x224>
2ffd7adc:	68b3      	ldr	r3, [r6, #8]
2ffd7ade:	a90f      	add	r1, sp, #60	; 0x3c
2ffd7ae0:	6858      	ldr	r0, [r3, #4]
2ffd7ae2:	f000 fabb 	bl	2ffd805c <plat_get_nv_ctr>
2ffd7ae6:	2800      	cmp	r0, #0
2ffd7ae8:	f47f af37 	bne.w	2ffd795a <auth_mod_verify_img+0x7a>
2ffd7aec:	9b0f      	ldr	r3, [sp, #60]	; 0x3c
2ffd7aee:	4599      	cmp	r9, r3
2ffd7af0:	f4ff af08 	bcc.w	2ffd7904 <auth_mod_verify_img+0x24>
2ffd7af4:	d991      	bls.n	2ffd7a1a <auth_mod_verify_img+0x13a>
2ffd7af6:	68b3      	ldr	r3, [r6, #8]
2ffd7af8:	464a      	mov	r2, r9
2ffd7afa:	4621      	mov	r1, r4
2ffd7afc:	6858      	ldr	r0, [r3, #4]
2ffd7afe:	f7ff feb8 	bl	2ffd7872 <plat_set_nv_ctr2>
2ffd7b02:	e728      	b.n	2ffd7956 <auth_mod_verify_img+0x76>
2ffd7b04:	f812 0b01 	ldrb.w	r0, [r2], #1
2ffd7b08:	ea40 2909 	orr.w	r9, r0, r9, lsl #8
2ffd7b0c:	e7e3      	b.n	2ffd7ad6 <auth_mod_verify_img+0x1f6>
2ffd7b0e:	2600      	movs	r6, #0
2ffd7b10:	f10d 093c 	add.w	r9, sp, #60	; 0x3c
2ffd7b14:	f10d 0a38 	add.w	sl, sp, #56	; 0x38
2ffd7b18:	6923      	ldr	r3, [r4, #16]
2ffd7b1a:	5999      	ldr	r1, [r3, r6]
2ffd7b1c:	b1b1      	cbz	r1, 2ffd7b4c <auth_mod_verify_img+0x26c>
2ffd7b1e:	f8cd 9004 	str.w	r9, [sp, #4]
2ffd7b22:	4643      	mov	r3, r8
2ffd7b24:	f8cd a000 	str.w	sl, [sp]
2ffd7b28:	463a      	mov	r2, r7
2ffd7b2a:	6860      	ldr	r0, [r4, #4]
2ffd7b2c:	f000 f8fc 	bl	2ffd7d28 <img_parser_get_auth_param>
2ffd7b30:	2800      	cmp	r0, #0
2ffd7b32:	f47f af12 	bne.w	2ffd795a <auth_mod_verify_img+0x7a>
2ffd7b36:	6923      	ldr	r3, [r4, #16]
2ffd7b38:	9a0f      	ldr	r2, [sp, #60]	; 0x3c
2ffd7b3a:	4433      	add	r3, r6
2ffd7b3c:	6899      	ldr	r1, [r3, #8]
2ffd7b3e:	4291      	cmp	r1, r2
2ffd7b40:	f4ff aee0 	bcc.w	2ffd7904 <auth_mod_verify_img+0x24>
2ffd7b44:	990e      	ldr	r1, [sp, #56]	; 0x38
2ffd7b46:	6858      	ldr	r0, [r3, #4]
2ffd7b48:	f009 fc6e 	bl	2ffe1428 <memcpy>
2ffd7b4c:	360c      	adds	r6, #12
2ffd7b4e:	2e30      	cmp	r6, #48	; 0x30
2ffd7b50:	d1e2      	bne.n	2ffd7b18 <auth_mod_verify_img+0x238>
2ffd7b52:	e76b      	b.n	2ffd7a2c <auth_mod_verify_img+0x14c>
2ffd7b54:	2ffe23dc 	.word	0x2ffe23dc
2ffd7b58:	2ffe2266 	.word	0x2ffe2266
2ffd7b5c:	2ffe815c 	.word	0x2ffe815c
2ffd7b60:	2ffe224e 	.word	0x2ffe224e

2ffd7b64 <crypto_mod_init>:
2ffd7b64:	4b0d      	ldr	r3, [pc, #52]	; (2ffd7b9c <crypto_mod_init+0x38>)
2ffd7b66:	b510      	push	{r4, lr}
2ffd7b68:	681c      	ldr	r4, [r3, #0]
2ffd7b6a:	b91c      	cbnz	r4, 2ffd7b74 <crypto_mod_init+0x10>
2ffd7b6c:	212f      	movs	r1, #47	; 0x2f
2ffd7b6e:	480c      	ldr	r0, [pc, #48]	; (2ffd7ba0 <crypto_mod_init+0x3c>)
2ffd7b70:	f009 fc32 	bl	2ffe13d8 <__assert>
2ffd7b74:	685a      	ldr	r2, [r3, #4]
2ffd7b76:	b90a      	cbnz	r2, 2ffd7b7c <crypto_mod_init+0x18>
2ffd7b78:	2130      	movs	r1, #48	; 0x30
2ffd7b7a:	e7f8      	b.n	2ffd7b6e <crypto_mod_init+0xa>
2ffd7b7c:	6899      	ldr	r1, [r3, #8]
2ffd7b7e:	b909      	cbnz	r1, 2ffd7b84 <crypto_mod_init+0x20>
2ffd7b80:	2131      	movs	r1, #49	; 0x31
2ffd7b82:	e7f4      	b.n	2ffd7b6e <crypto_mod_init+0xa>
2ffd7b84:	68db      	ldr	r3, [r3, #12]
2ffd7b86:	b90b      	cbnz	r3, 2ffd7b8c <crypto_mod_init+0x28>
2ffd7b88:	2132      	movs	r1, #50	; 0x32
2ffd7b8a:	e7f0      	b.n	2ffd7b6e <crypto_mod_init+0xa>
2ffd7b8c:	4790      	blx	r2
2ffd7b8e:	4805      	ldr	r0, [pc, #20]	; (2ffd7ba4 <crypto_mod_init+0x40>)
2ffd7b90:	4621      	mov	r1, r4
2ffd7b92:	e8bd 4010 	ldmia.w	sp!, {r4, lr}
2ffd7b96:	f003 bb1d 	b.w	2ffdb1d4 <tf_log>
2ffd7b9a:	bf00      	nop
2ffd7b9c:	2ffe2480 	.word	0x2ffe2480
2ffd7ba0:	2ffe22a8 	.word	0x2ffe22a8
2ffd7ba4:	2ffe22c2 	.word	0x2ffe22c2

2ffd7ba8 <crypto_mod_verify_signature>:
2ffd7ba8:	e92d 41f3 	stmdb	sp!, {r0, r1, r4, r5, r6, r7, r8, lr}
2ffd7bac:	f8dd 8020 	ldr.w	r8, [sp, #32]
2ffd7bb0:	f8dd e024 	ldr.w	lr, [sp, #36]	; 0x24
2ffd7bb4:	f8dd c028 	ldr.w	ip, [sp, #40]	; 0x28
2ffd7bb8:	9f0b      	ldr	r7, [sp, #44]	; 0x2c
2ffd7bba:	b918      	cbnz	r0, 2ffd7bc4 <crypto_mod_verify_signature+0x1c>
2ffd7bbc:	2148      	movs	r1, #72	; 0x48
2ffd7bbe:	4813      	ldr	r0, [pc, #76]	; (2ffd7c0c <crypto_mod_verify_signature+0x64>)
2ffd7bc0:	f009 fc0a 	bl	2ffe13d8 <__assert>
2ffd7bc4:	b909      	cbnz	r1, 2ffd7bca <crypto_mod_verify_signature+0x22>
2ffd7bc6:	2149      	movs	r1, #73	; 0x49
2ffd7bc8:	e7f9      	b.n	2ffd7bbe <crypto_mod_verify_signature+0x16>
2ffd7bca:	b90a      	cbnz	r2, 2ffd7bd0 <crypto_mod_verify_signature+0x28>
2ffd7bcc:	214a      	movs	r1, #74	; 0x4a
2ffd7bce:	e7f6      	b.n	2ffd7bbe <crypto_mod_verify_signature+0x16>
2ffd7bd0:	b90b      	cbnz	r3, 2ffd7bd6 <crypto_mod_verify_signature+0x2e>
2ffd7bd2:	214b      	movs	r1, #75	; 0x4b
2ffd7bd4:	e7f3      	b.n	2ffd7bbe <crypto_mod_verify_signature+0x16>
2ffd7bd6:	f1b8 0f00 	cmp.w	r8, #0
2ffd7bda:	d101      	bne.n	2ffd7be0 <crypto_mod_verify_signature+0x38>
2ffd7bdc:	214c      	movs	r1, #76	; 0x4c
2ffd7bde:	e7ee      	b.n	2ffd7bbe <crypto_mod_verify_signature+0x16>
2ffd7be0:	f1be 0f00 	cmp.w	lr, #0
2ffd7be4:	d101      	bne.n	2ffd7bea <crypto_mod_verify_signature+0x42>
2ffd7be6:	214d      	movs	r1, #77	; 0x4d
2ffd7be8:	e7e9      	b.n	2ffd7bbe <crypto_mod_verify_signature+0x16>
2ffd7bea:	f1bc 0f00 	cmp.w	ip, #0
2ffd7bee:	d101      	bne.n	2ffd7bf4 <crypto_mod_verify_signature+0x4c>
2ffd7bf0:	214e      	movs	r1, #78	; 0x4e
2ffd7bf2:	e7e4      	b.n	2ffd7bbe <crypto_mod_verify_signature+0x16>
2ffd7bf4:	b90f      	cbnz	r7, 2ffd7bfa <crypto_mod_verify_signature+0x52>
2ffd7bf6:	214f      	movs	r1, #79	; 0x4f
2ffd7bf8:	e7e1      	b.n	2ffd7bbe <crypto_mod_verify_signature+0x16>
2ffd7bfa:	4c05      	ldr	r4, [pc, #20]	; (2ffd7c10 <crypto_mod_verify_signature+0x68>)
2ffd7bfc:	68a4      	ldr	r4, [r4, #8]
2ffd7bfe:	9401      	str	r4, [sp, #4]
2ffd7c00:	46a4      	mov	ip, r4
2ffd7c02:	b002      	add	sp, #8
2ffd7c04:	e8bd 41f0 	ldmia.w	sp!, {r4, r5, r6, r7, r8, lr}
2ffd7c08:	4760      	bx	ip
2ffd7c0a:	bf00      	nop
2ffd7c0c:	2ffe22a8 	.word	0x2ffe22a8
2ffd7c10:	2ffe2480 	.word	0x2ffe2480

2ffd7c14 <crypto_mod_verify_hash>:
2ffd7c14:	b573      	push	{r0, r1, r4, r5, r6, lr}
2ffd7c16:	b918      	cbnz	r0, 2ffd7c20 <crypto_mod_verify_hash+0xc>
2ffd7c18:	2162      	movs	r1, #98	; 0x62
2ffd7c1a:	480a      	ldr	r0, [pc, #40]	; (2ffd7c44 <crypto_mod_verify_hash+0x30>)
2ffd7c1c:	f009 fbdc 	bl	2ffe13d8 <__assert>
2ffd7c20:	b909      	cbnz	r1, 2ffd7c26 <crypto_mod_verify_hash+0x12>
2ffd7c22:	2163      	movs	r1, #99	; 0x63
2ffd7c24:	e7f9      	b.n	2ffd7c1a <crypto_mod_verify_hash+0x6>
2ffd7c26:	b90a      	cbnz	r2, 2ffd7c2c <crypto_mod_verify_hash+0x18>
2ffd7c28:	2164      	movs	r1, #100	; 0x64
2ffd7c2a:	e7f6      	b.n	2ffd7c1a <crypto_mod_verify_hash+0x6>
2ffd7c2c:	b90b      	cbnz	r3, 2ffd7c32 <crypto_mod_verify_hash+0x1e>
2ffd7c2e:	2165      	movs	r1, #101	; 0x65
2ffd7c30:	e7f3      	b.n	2ffd7c1a <crypto_mod_verify_hash+0x6>
2ffd7c32:	4c05      	ldr	r4, [pc, #20]	; (2ffd7c48 <crypto_mod_verify_hash+0x34>)
2ffd7c34:	68e4      	ldr	r4, [r4, #12]
2ffd7c36:	9401      	str	r4, [sp, #4]
2ffd7c38:	46a4      	mov	ip, r4
2ffd7c3a:	b002      	add	sp, #8
2ffd7c3c:	e8bd 4070 	ldmia.w	sp!, {r4, r5, r6, lr}
2ffd7c40:	4760      	bx	ip
2ffd7c42:	bf00      	nop
2ffd7c44:	2ffe22a8 	.word	0x2ffe22a8
2ffd7c48:	2ffe2480 	.word	0x2ffe2480

2ffd7c4c <img_parser_init>:
2ffd7c4c:	e92d 43f8 	stmdb	sp!, {r3, r4, r5, r6, r7, r8, r9, lr}
2ffd7c50:	f04f 32ff 	mov.w	r2, #4294967295	; 0xffffffff
2ffd7c54:	4e1d      	ldr	r6, [pc, #116]	; (2ffd7ccc <img_parser_init+0x80>)
2ffd7c56:	2114      	movs	r1, #20
2ffd7c58:	481d      	ldr	r0, [pc, #116]	; (2ffd7cd0 <img_parser_init+0x84>)
2ffd7c5a:	6032      	str	r2, [r6, #0]
2ffd7c5c:	6072      	str	r2, [r6, #4]
2ffd7c5e:	60b2      	str	r2, [r6, #8]
2ffd7c60:	4a1c      	ldr	r2, [pc, #112]	; (2ffd7cd4 <img_parser_init+0x88>)
2ffd7c62:	1a12      	subs	r2, r2, r0
2ffd7c64:	2a13      	cmp	r2, #19
2ffd7c66:	fbb2 f8f1 	udiv	r8, r2, r1
2ffd7c6a:	d803      	bhi.n	2ffd7c74 <img_parser_init+0x28>
2ffd7c6c:	212f      	movs	r1, #47	; 0x2f
2ffd7c6e:	481a      	ldr	r0, [pc, #104]	; (2ffd7cd8 <img_parser_init+0x8c>)
2ffd7c70:	f009 fbb2 	bl	2ffe13d8 <__assert>
2ffd7c74:	4d19      	ldr	r5, [pc, #100]	; (2ffd7cdc <img_parser_init+0x90>)
2ffd7c76:	2400      	movs	r4, #0
2ffd7c78:	4689      	mov	r9, r1
2ffd7c7a:	6028      	str	r0, [r5, #0]
2ffd7c7c:	4544      	cmp	r4, r8
2ffd7c7e:	d101      	bne.n	2ffd7c84 <img_parser_init+0x38>
2ffd7c80:	e8bd 83f8 	ldmia.w	sp!, {r3, r4, r5, r6, r7, r8, r9, pc}
2ffd7c84:	fb09 f704 	mul.w	r7, r9, r4
2ffd7c88:	682b      	ldr	r3, [r5, #0]
2ffd7c8a:	19db      	adds	r3, r3, r7
2ffd7c8c:	d101      	bne.n	2ffd7c92 <img_parser_init+0x46>
2ffd7c8e:	211b      	movs	r1, #27
2ffd7c90:	e7ed      	b.n	2ffd7c6e <img_parser_init+0x22>
2ffd7c92:	689a      	ldr	r2, [r3, #8]
2ffd7c94:	b90a      	cbnz	r2, 2ffd7c9a <img_parser_init+0x4e>
2ffd7c96:	211c      	movs	r1, #28
2ffd7c98:	e7e9      	b.n	2ffd7c6e <img_parser_init+0x22>
2ffd7c9a:	6858      	ldr	r0, [r3, #4]
2ffd7c9c:	b908      	cbnz	r0, 2ffd7ca2 <img_parser_init+0x56>
2ffd7c9e:	211d      	movs	r1, #29
2ffd7ca0:	e7e5      	b.n	2ffd7c6e <img_parser_init+0x22>
2ffd7ca2:	68d8      	ldr	r0, [r3, #12]
2ffd7ca4:	b908      	cbnz	r0, 2ffd7caa <img_parser_init+0x5e>
2ffd7ca6:	211e      	movs	r1, #30
2ffd7ca8:	e7e1      	b.n	2ffd7c6e <img_parser_init+0x22>
2ffd7caa:	691b      	ldr	r3, [r3, #16]
2ffd7cac:	b90b      	cbnz	r3, 2ffd7cb2 <img_parser_init+0x66>
2ffd7cae:	211f      	movs	r1, #31
2ffd7cb0:	e7dd      	b.n	2ffd7c6e <img_parser_init+0x22>
2ffd7cb2:	4790      	blx	r2
2ffd7cb4:	682b      	ldr	r3, [r5, #0]
2ffd7cb6:	59db      	ldr	r3, [r3, r7]
2ffd7cb8:	f856 2023 	ldr.w	r2, [r6, r3, lsl #2]
2ffd7cbc:	3201      	adds	r2, #1
2ffd7cbe:	d001      	beq.n	2ffd7cc4 <img_parser_init+0x78>
2ffd7cc0:	213b      	movs	r1, #59	; 0x3b
2ffd7cc2:	e7d4      	b.n	2ffd7c6e <img_parser_init+0x22>
2ffd7cc4:	f846 4023 	str.w	r4, [r6, r3, lsl #2]
2ffd7cc8:	3401      	adds	r4, #1
2ffd7cca:	e7d7      	b.n	2ffd7c7c <img_parser_init+0x30>
2ffd7ccc:	2ffe7734 	.word	0x2ffe7734
2ffd7cd0:	2ffe52a0 	.word	0x2ffe52a0
2ffd7cd4:	2ffe52b4 	.word	0x2ffe52b4
2ffd7cd8:	2ffe22de 	.word	0x2ffe22de
2ffd7cdc:	2ffe7730 	.word	0x2ffe7730

2ffd7ce0 <img_parser_check_integrity>:
2ffd7ce0:	460b      	mov	r3, r1
2ffd7ce2:	4611      	mov	r1, r2
2ffd7ce4:	b510      	push	{r4, lr}
2ffd7ce6:	b91b      	cbnz	r3, 2ffd7cf0 <img_parser_check_integrity+0x10>
2ffd7ce8:	2148      	movs	r1, #72	; 0x48
2ffd7cea:	480c      	ldr	r0, [pc, #48]	; (2ffd7d1c <img_parser_check_integrity+0x3c>)
2ffd7cec:	f009 fb74 	bl	2ffe13d8 <__assert>
2ffd7cf0:	b90a      	cbnz	r2, 2ffd7cf6 <img_parser_check_integrity+0x16>
2ffd7cf2:	2149      	movs	r1, #73	; 0x49
2ffd7cf4:	e7f9      	b.n	2ffd7cea <img_parser_check_integrity+0xa>
2ffd7cf6:	b180      	cbz	r0, 2ffd7d1a <img_parser_check_integrity+0x3a>
2ffd7cf8:	4a09      	ldr	r2, [pc, #36]	; (2ffd7d20 <img_parser_check_integrity+0x40>)
2ffd7cfa:	f852 2020 	ldr.w	r2, [r2, r0, lsl #2]
2ffd7cfe:	1c50      	adds	r0, r2, #1
2ffd7d00:	d101      	bne.n	2ffd7d06 <img_parser_check_integrity+0x26>
2ffd7d02:	2152      	movs	r1, #82	; 0x52
2ffd7d04:	e7f1      	b.n	2ffd7cea <img_parser_check_integrity+0xa>
2ffd7d06:	4807      	ldr	r0, [pc, #28]	; (2ffd7d24 <img_parser_check_integrity+0x44>)
2ffd7d08:	2414      	movs	r4, #20
2ffd7d0a:	6800      	ldr	r0, [r0, #0]
2ffd7d0c:	fb04 0202 	mla	r2, r4, r2, r0
2ffd7d10:	e8bd 4010 	ldmia.w	sp!, {r4, lr}
2ffd7d14:	68d2      	ldr	r2, [r2, #12]
2ffd7d16:	4618      	mov	r0, r3
2ffd7d18:	4710      	bx	r2
2ffd7d1a:	bd10      	pop	{r4, pc}
2ffd7d1c:	2ffe22de 	.word	0x2ffe22de
2ffd7d20:	2ffe7734 	.word	0x2ffe7734
2ffd7d24:	2ffe7730 	.word	0x2ffe7730

2ffd7d28 <img_parser_get_auth_param>:
2ffd7d28:	e92d 41f0 	stmdb	sp!, {r4, r5, r6, r7, r8, lr}
2ffd7d2c:	4615      	mov	r5, r2
2ffd7d2e:	9f07      	ldr	r7, [sp, #28]
2ffd7d30:	461a      	mov	r2, r3
2ffd7d32:	9b06      	ldr	r3, [sp, #24]
2ffd7d34:	460c      	mov	r4, r1
2ffd7d36:	b919      	cbnz	r1, 2ffd7d40 <img_parser_get_auth_param+0x18>
2ffd7d38:	216a      	movs	r1, #106	; 0x6a
2ffd7d3a:	4816      	ldr	r0, [pc, #88]	; (2ffd7d94 <img_parser_get_auth_param+0x6c>)
2ffd7d3c:	f009 fb4c 	bl	2ffe13d8 <__assert>
2ffd7d40:	b90d      	cbnz	r5, 2ffd7d46 <img_parser_get_auth_param+0x1e>
2ffd7d42:	216b      	movs	r1, #107	; 0x6b
2ffd7d44:	e7f9      	b.n	2ffd7d3a <img_parser_get_auth_param+0x12>
2ffd7d46:	b90a      	cbnz	r2, 2ffd7d4c <img_parser_get_auth_param+0x24>
2ffd7d48:	216c      	movs	r1, #108	; 0x6c
2ffd7d4a:	e7f6      	b.n	2ffd7d3a <img_parser_get_auth_param+0x12>
2ffd7d4c:	b90b      	cbnz	r3, 2ffd7d52 <img_parser_get_auth_param+0x2a>
2ffd7d4e:	216d      	movs	r1, #109	; 0x6d
2ffd7d50:	e7f3      	b.n	2ffd7d3a <img_parser_get_auth_param+0x12>
2ffd7d52:	b90f      	cbnz	r7, 2ffd7d58 <img_parser_get_auth_param+0x30>
2ffd7d54:	216e      	movs	r1, #110	; 0x6e
2ffd7d56:	e7f0      	b.n	2ffd7d3a <img_parser_get_auth_param+0x12>
2ffd7d58:	b940      	cbnz	r0, 2ffd7d6c <img_parser_get_auth_param+0x44>
2ffd7d5a:	6809      	ldr	r1, [r1, #0]
2ffd7d5c:	2901      	cmp	r1, #1
2ffd7d5e:	d001      	beq.n	2ffd7d64 <img_parser_get_auth_param+0x3c>
2ffd7d60:	2172      	movs	r1, #114	; 0x72
2ffd7d62:	e7ea      	b.n	2ffd7d3a <img_parser_get_auth_param+0x12>
2ffd7d64:	601d      	str	r5, [r3, #0]
2ffd7d66:	603a      	str	r2, [r7, #0]
2ffd7d68:	e8bd 81f0 	ldmia.w	sp!, {r4, r5, r6, r7, r8, pc}
2ffd7d6c:	490a      	ldr	r1, [pc, #40]	; (2ffd7d98 <img_parser_get_auth_param+0x70>)
2ffd7d6e:	f851 1020 	ldr.w	r1, [r1, r0, lsl #2]
2ffd7d72:	1c48      	adds	r0, r1, #1
2ffd7d74:	d101      	bne.n	2ffd7d7a <img_parser_get_auth_param+0x52>
2ffd7d76:	217a      	movs	r1, #122	; 0x7a
2ffd7d78:	e7df      	b.n	2ffd7d3a <img_parser_get_auth_param+0x12>
2ffd7d7a:	4808      	ldr	r0, [pc, #32]	; (2ffd7d9c <img_parser_get_auth_param+0x74>)
2ffd7d7c:	2614      	movs	r6, #20
2ffd7d7e:	6800      	ldr	r0, [r0, #0]
2ffd7d80:	9706      	str	r7, [sp, #24]
2ffd7d82:	fb06 0101 	mla	r1, r6, r1, r0
2ffd7d86:	4620      	mov	r0, r4
2ffd7d88:	690e      	ldr	r6, [r1, #16]
2ffd7d8a:	4629      	mov	r1, r5
2ffd7d8c:	46b4      	mov	ip, r6
2ffd7d8e:	e8bd 41f0 	ldmia.w	sp!, {r4, r5, r6, r7, r8, lr}
2ffd7d92:	4760      	bx	ip
2ffd7d94:	2ffe22de 	.word	0x2ffe22de
2ffd7d98:	2ffe7734 	.word	0x2ffe7734
2ffd7d9c:	2ffe7730 	.word	0x2ffe7730

2ffd7da0 <crypto_verify_hash>:
2ffd7da0:	2b20      	cmp	r3, #32
2ffd7da2:	b5f0      	push	{r4, r5, r6, r7, lr}
2ffd7da4:	4604      	mov	r4, r0
2ffd7da6:	b089      	sub	sp, #36	; 0x24
2ffd7da8:	460f      	mov	r7, r1
2ffd7daa:	4616      	mov	r6, r2
2ffd7dac:	461d      	mov	r5, r3
2ffd7dae:	d117      	bne.n	2ffd7de0 <crypto_verify_hash+0x40>
2ffd7db0:	2003      	movs	r0, #3
2ffd7db2:	f7ff f899 	bl	2ffd6ee8 <stm32_hash_init>
2ffd7db6:	4620      	mov	r0, r4
2ffd7db8:	466a      	mov	r2, sp
2ffd7dba:	4639      	mov	r1, r7
2ffd7dbc:	f7ff f888 	bl	2ffd6ed0 <stm32_hash_final_update>
2ffd7dc0:	4604      	mov	r4, r0
2ffd7dc2:	b940      	cbnz	r0, 2ffd7dd6 <crypto_verify_hash+0x36>
2ffd7dc4:	462a      	mov	r2, r5
2ffd7dc6:	4631      	mov	r1, r6
2ffd7dc8:	4668      	mov	r0, sp
2ffd7dca:	f009 fb1f 	bl	2ffe140c <memcmp>
2ffd7dce:	1e04      	subs	r4, r0, #0
2ffd7dd0:	bf18      	it	ne
2ffd7dd2:	f06f 044f 	mvnne.w	r4, #79	; 0x4f
2ffd7dd6:	f003 fc83 	bl	2ffdb6e0 <stm32mp_delete_loaded_header>
2ffd7dda:	4620      	mov	r0, r4
2ffd7ddc:	b009      	add	sp, #36	; 0x24
2ffd7dde:	bdf0      	pop	{r4, r5, r6, r7, pc}
2ffd7de0:	f06f 0415 	mvn.w	r4, #21
2ffd7de4:	e7f7      	b.n	2ffd7dd6 <crypto_verify_hash+0x36>
	...

2ffd7de8 <crypto_verify_signature>:
2ffd7de8:	e92d 4ff0 	stmdb	sp!, {r4, r5, r6, r7, r8, r9, sl, fp, lr}
2ffd7dec:	b08d      	sub	sp, #52	; 0x34
2ffd7dee:	469b      	mov	fp, r3
2ffd7df0:	4606      	mov	r6, r0
2ffd7df2:	9c16      	ldr	r4, [sp, #88]	; 0x58
2ffd7df4:	460f      	mov	r7, r1
2ffd7df6:	f8dd 9060 	ldr.w	r9, [sp, #96]	; 0x60
2ffd7dfa:	4615      	mov	r5, r2
2ffd7dfc:	f003 fc7e 	bl	2ffdb6fc <stm32mp_get_loaded_header>
2ffd7e00:	07a3      	lsls	r3, r4, #30
2ffd7e02:	4680      	mov	r8, r0
2ffd7e04:	d005      	beq.n	2ffd7e12 <crypto_verify_signature+0x2a>
2ffd7e06:	f06f 0415 	mvn.w	r4, #21
2ffd7e0a:	4620      	mov	r0, r4
2ffd7e0c:	b00d      	add	sp, #52	; 0x34
2ffd7e0e:	e8bd 8ff0 	ldmia.w	sp!, {r4, r5, r6, r7, r8, r9, sl, fp, pc}
2ffd7e12:	9b17      	ldr	r3, [sp, #92]	; 0x5c
2ffd7e14:	2b08      	cmp	r3, #8
2ffd7e16:	d1f6      	bne.n	2ffd7e06 <crypto_verify_signature+0x1e>
2ffd7e18:	6823      	ldr	r3, [r4, #0]
2ffd7e1a:	f8d4 a004 	ldr.w	sl, [r4, #4]
2ffd7e1e:	9303      	str	r3, [sp, #12]
2ffd7e20:	f003 fe0c 	bl	2ffdba3c <stm32mp_is_closed_device>
2ffd7e24:	4604      	mov	r4, r0
2ffd7e26:	b950      	cbnz	r0, 2ffd7e3e <crypto_verify_signature+0x56>
2ffd7e28:	9b03      	ldr	r3, [sp, #12]
2ffd7e2a:	b12b      	cbz	r3, 2ffd7e38 <crypto_verify_signature+0x50>
2ffd7e2c:	4829      	ldr	r0, [pc, #164]	; (2ffd7ed4 <crypto_verify_signature+0xec>)
2ffd7e2e:	f003 f9d1 	bl	2ffdb1d4 <tf_log>
2ffd7e32:	f003 fc55 	bl	2ffdb6e0 <stm32mp_delete_loaded_header>
2ffd7e36:	e7e8      	b.n	2ffd7e0a <crypto_verify_signature+0x22>
2ffd7e38:	4827      	ldr	r0, [pc, #156]	; (2ffd7ed8 <crypto_verify_signature+0xf0>)
2ffd7e3a:	f003 f9cb 	bl	2ffdb1d4 <tf_log>
2ffd7e3e:	9b19      	ldr	r3, [sp, #100]	; 0x64
2ffd7e40:	2b40      	cmp	r3, #64	; 0x40
2ffd7e42:	d1e0      	bne.n	2ffd7e06 <crypto_verify_signature+0x1e>
2ffd7e44:	f1bb 0f40 	cmp.w	fp, #64	; 0x40
2ffd7e48:	d1dd      	bne.n	2ffd7e06 <crypto_verify_signature+0x1e>
2ffd7e4a:	2302      	movs	r3, #2
2ffd7e4c:	2200      	movs	r2, #0
2ffd7e4e:	9300      	str	r3, [sp, #0]
2ffd7e50:	2000      	movs	r0, #0
2ffd7e52:	f44f 3300 	mov.w	r3, #131072	; 0x20000
2ffd7e56:	2100      	movs	r1, #0
2ffd7e58:	f003 ff90 	bl	2ffdbd7c <mmap_add_dynamic_region>
2ffd7e5c:	4604      	mov	r4, r0
2ffd7e5e:	2800      	cmp	r0, #0
2ffd7e60:	d1d3      	bne.n	2ffd7e0a <crypto_verify_signature+0x22>
2ffd7e62:	f003 fdeb 	bl	2ffdba3c <stm32mp_is_closed_device>
2ffd7e66:	b9b0      	cbnz	r0, 2ffd7e96 <crypto_verify_signature+0xae>
2ffd7e68:	4b1c      	ldr	r3, [pc, #112]	; (2ffd7edc <crypto_verify_signature+0xf4>)
2ffd7e6a:	4621      	mov	r1, r4
2ffd7e6c:	4648      	mov	r0, r9
2ffd7e6e:	681b      	ldr	r3, [r3, #0]
2ffd7e70:	4798      	blx	r3
2ffd7e72:	2877      	cmp	r0, #119	; 0x77
2ffd7e74:	d00c      	beq.n	2ffd7e90 <crypto_verify_signature+0xa8>
2ffd7e76:	481a      	ldr	r0, [pc, #104]	; (2ffd7ee0 <crypto_verify_signature+0xf8>)
2ffd7e78:	f06f 0415 	mvn.w	r4, #21
2ffd7e7c:	f003 f9aa 	bl	2ffdb1d4 <tf_log>
2ffd7e80:	f44f 3100 	mov.w	r1, #131072	; 0x20000
2ffd7e84:	2000      	movs	r0, #0
2ffd7e86:	f003 ff8d 	bl	2ffdbda4 <mmap_remove_dynamic_region>
2ffd7e8a:	2c00      	cmp	r4, #0
2ffd7e8c:	d0bd      	beq.n	2ffd7e0a <crypto_verify_signature+0x22>
2ffd7e8e:	e7d0      	b.n	2ffd7e32 <crypto_verify_signature+0x4a>
2ffd7e90:	4814      	ldr	r0, [pc, #80]	; (2ffd7ee4 <crypto_verify_signature+0xfc>)
2ffd7e92:	f003 f99f 	bl	2ffdb1d4 <tf_log>
2ffd7e96:	2003      	movs	r0, #3
2ffd7e98:	f7ff f826 	bl	2ffd6ee8 <stm32_hash_init>
2ffd7e9c:	21b8      	movs	r1, #184	; 0xb8
2ffd7e9e:	f108 0048 	add.w	r0, r8, #72	; 0x48
2ffd7ea2:	f7fe ff3d 	bl	2ffd6d20 <stm32_hash_update>
2ffd7ea6:	4604      	mov	r4, r0
2ffd7ea8:	2800      	cmp	r0, #0
2ffd7eaa:	d1e9      	bne.n	2ffd7e80 <crypto_verify_signature+0x98>
2ffd7eac:	aa04      	add	r2, sp, #16
2ffd7eae:	4639      	mov	r1, r7
2ffd7eb0:	4630      	mov	r0, r6
2ffd7eb2:	f7ff f80d 	bl	2ffd6ed0 <stm32_hash_final_update>
2ffd7eb6:	4604      	mov	r4, r0
2ffd7eb8:	2800      	cmp	r0, #0
2ffd7eba:	d1e1      	bne.n	2ffd7e80 <crypto_verify_signature+0x98>
2ffd7ebc:	4b07      	ldr	r3, [pc, #28]	; (2ffd7edc <crypto_verify_signature+0xf4>)
2ffd7ebe:	462a      	mov	r2, r5
2ffd7ec0:	4649      	mov	r1, r9
2ffd7ec2:	a804      	add	r0, sp, #16
2ffd7ec4:	685e      	ldr	r6, [r3, #4]
2ffd7ec6:	4653      	mov	r3, sl
2ffd7ec8:	47b0      	blx	r6
2ffd7eca:	2877      	cmp	r0, #119	; 0x77
2ffd7ecc:	bf18      	it	ne
2ffd7ece:	f06f 044f 	mvnne.w	r4, #79	; 0x4f
2ffd7ed2:	e7d5      	b.n	2ffd7e80 <crypto_verify_signature+0x98>
2ffd7ed4:	2ffe23e0 	.word	0x2ffe23e0
2ffd7ed8:	2ffe2407 	.word	0x2ffe2407
2ffd7edc:	2ffe7740 	.word	0x2ffe7740
2ffd7ee0:	2ffe2428 	.word	0x2ffe2428
2ffd7ee4:	2ffe2444 	.word	0x2ffe2444

2ffd7ee8 <crypto_lib_init>:
2ffd7ee8:	b510      	push	{r4, lr}
2ffd7eea:	f003 fb31 	bl	2ffdb550 <stm32mp_get_boot_ctx_address>
2ffd7eee:	4604      	mov	r4, r0
2ffd7ef0:	f003 fdb6 	bl	2ffdba60 <stm32mp_is_auth_supported>
2ffd7ef4:	b328      	cbz	r0, 2ffd7f42 <crypto_lib_init+0x5a>
2ffd7ef6:	f894 105d 	ldrb.w	r1, [r4, #93]	; 0x5d
2ffd7efa:	f894 305c 	ldrb.w	r3, [r4, #92]	; 0x5c
2ffd7efe:	4a11      	ldr	r2, [pc, #68]	; (2ffd7f44 <crypto_lib_init+0x5c>)
2ffd7f00:	ea43 2301 	orr.w	r3, r3, r1, lsl #8
2ffd7f04:	f894 105e 	ldrb.w	r1, [r4, #94]	; 0x5e
2ffd7f08:	ea43 4301 	orr.w	r3, r3, r1, lsl #16
2ffd7f0c:	f894 105f 	ldrb.w	r1, [r4, #95]	; 0x5f
2ffd7f10:	ea43 6301 	orr.w	r3, r3, r1, lsl #24
2ffd7f14:	6013      	str	r3, [r2, #0]
2ffd7f16:	f894 1061 	ldrb.w	r1, [r4, #97]	; 0x61
2ffd7f1a:	f894 3060 	ldrb.w	r3, [r4, #96]	; 0x60
2ffd7f1e:	ea43 2301 	orr.w	r3, r3, r1, lsl #8
2ffd7f22:	f894 1062 	ldrb.w	r1, [r4, #98]	; 0x62
2ffd7f26:	ea43 4301 	orr.w	r3, r3, r1, lsl #16
2ffd7f2a:	f894 1063 	ldrb.w	r1, [r4, #99]	; 0x63
2ffd7f2e:	ea43 6301 	orr.w	r3, r3, r1, lsl #24
2ffd7f32:	6053      	str	r3, [r2, #4]
2ffd7f34:	f7ff f806 	bl	2ffd6f44 <stm32_hash_register>
2ffd7f38:	b118      	cbz	r0, 2ffd7f42 <crypto_lib_init+0x5a>
2ffd7f3a:	f003 f9e9 	bl	2ffdb310 <console_flush>
2ffd7f3e:	f7fe e990 	blx	2ffd6260 <do_panic>
2ffd7f42:	bd10      	pop	{r4, pc}
2ffd7f44:	2ffe7740 	.word	0x2ffe7740

2ffd7f48 <img_lib_init>:
2ffd7f48:	4770      	bx	lr

2ffd7f4a <img_get_auth_param>:
2ffd7f4a:	b5f8      	push	{r3, r4, r5, r6, r7, lr}
2ffd7f4c:	4606      	mov	r6, r0
2ffd7f4e:	9d06      	ldr	r5, [sp, #24]
2ffd7f50:	461c      	mov	r4, r3
2ffd7f52:	460f      	mov	r7, r1
2ffd7f54:	f003 fbd2 	bl	2ffdb6fc <stm32mp_get_loaded_header>
2ffd7f58:	6833      	ldr	r3, [r6, #0]
2ffd7f5a:	3b01      	subs	r3, #1
2ffd7f5c:	2b05      	cmp	r3, #5
2ffd7f5e:	d82b      	bhi.n	2ffd7fb8 <img_get_auth_param+0x6e>
2ffd7f60:	e8df f003 	tbb	[pc, r3]
2ffd7f64:	2a090311 	.word	0x2a090311
2ffd7f68:	240d      	.short	0x240d
2ffd7f6a:	3004      	adds	r0, #4
2ffd7f6c:	2340      	movs	r3, #64	; 0x40
2ffd7f6e:	602b      	str	r3, [r5, #0]
2ffd7f70:	6020      	str	r0, [r4, #0]
2ffd7f72:	2000      	movs	r0, #0
2ffd7f74:	bdf8      	pop	{r3, r4, r5, r6, r7, pc}
2ffd7f76:	2308      	movs	r3, #8
2ffd7f78:	3064      	adds	r0, #100	; 0x64
2ffd7f7a:	602b      	str	r3, [r5, #0]
2ffd7f7c:	e7f8      	b.n	2ffd7f70 <img_get_auth_param+0x26>
2ffd7f7e:	2340      	movs	r3, #64	; 0x40
2ffd7f80:	306c      	adds	r0, #108	; 0x6c
2ffd7f82:	602b      	str	r3, [r5, #0]
2ffd7f84:	e7f4      	b.n	2ffd7f70 <img_get_auth_param+0x26>
2ffd7f86:	6872      	ldr	r2, [r6, #4]
2ffd7f88:	b9b2      	cbnz	r2, 2ffd7fb8 <img_get_auth_param+0x6e>
2ffd7f8a:	f890 104d 	ldrb.w	r1, [r0, #77]	; 0x4d
2ffd7f8e:	f890 304c 	ldrb.w	r3, [r0, #76]	; 0x4c
2ffd7f92:	ea43 2301 	orr.w	r3, r3, r1, lsl #8
2ffd7f96:	f890 104e 	ldrb.w	r1, [r0, #78]	; 0x4e
2ffd7f9a:	ea43 4301 	orr.w	r3, r3, r1, lsl #16
2ffd7f9e:	f890 104f 	ldrb.w	r1, [r0, #79]	; 0x4f
2ffd7fa2:	ea43 6301 	orr.w	r3, r3, r1, lsl #24
2ffd7fa6:	602b      	str	r3, [r5, #0]
2ffd7fa8:	6027      	str	r7, [r4, #0]
2ffd7faa:	e7e2      	b.n	2ffd7f72 <img_get_auth_param+0x28>
2ffd7fac:	6872      	ldr	r2, [r6, #4]
2ffd7fae:	b91a      	cbnz	r2, 2ffd7fb8 <img_get_auth_param+0x6e>
2ffd7fb0:	2304      	movs	r3, #4
2ffd7fb2:	3060      	adds	r0, #96	; 0x60
2ffd7fb4:	602b      	str	r3, [r5, #0]
2ffd7fb6:	e7db      	b.n	2ffd7f70 <img_get_auth_param+0x26>
2ffd7fb8:	f06f 0015 	mvn.w	r0, #21
2ffd7fbc:	e7da      	b.n	2ffd7f74 <img_get_auth_param+0x2a>

2ffd7fbe <img_check_integrity>:
2ffd7fbe:	b510      	push	{r4, lr}
2ffd7fc0:	4604      	mov	r4, r0
2ffd7fc2:	f003 fb9b 	bl	2ffdb6fc <stm32mp_get_loaded_header>
2ffd7fc6:	4621      	mov	r1, r4
2ffd7fc8:	e8bd 4010 	ldmia.w	sp!, {r4, lr}
2ffd7fcc:	f003 bb02 	b.w	2ffdb5d4 <stm32mp_check_header>

2ffd7fd0 <plat_get_rotpk_info>:
2ffd7fd0:	e92d 4ff0 	stmdb	sp!, {r4, r5, r6, r7, r8, r9, sl, fp, lr}
2ffd7fd4:	4689      	mov	r9, r1
2ffd7fd6:	b085      	sub	sp, #20
2ffd7fd8:	4690      	mov	r8, r2
2ffd7fda:	461f      	mov	r7, r3
2ffd7fdc:	b128      	cbz	r0, 2ffd7fea <plat_get_rotpk_info+0x1a>
2ffd7fde:	f06f 0615 	mvn.w	r6, #21
2ffd7fe2:	4630      	mov	r0, r6
2ffd7fe4:	b005      	add	sp, #20
2ffd7fe6:	e8bd 8ff0 	ldmia.w	sp!, {r4, r5, r6, r7, r8, r9, sl, fp, pc}
2ffd7fea:	481a      	ldr	r0, [pc, #104]	; (2ffd8054 <plat_get_rotpk_info+0x84>)
2ffd7fec:	aa03      	add	r2, sp, #12
2ffd7fee:	a901      	add	r1, sp, #4
2ffd7ff0:	f003 fbba 	bl	2ffdb768 <stm32_get_otp_index>
2ffd7ff4:	4604      	mov	r4, r0
2ffd7ff6:	2800      	cmp	r0, #0
2ffd7ff8:	d1f1      	bne.n	2ffd7fde <plat_get_rotpk_info+0xe>
2ffd7ffa:	9b03      	ldr	r3, [sp, #12]
2ffd7ffc:	f5b3 7f80 	cmp.w	r3, #256	; 0x100
2ffd8000:	d1ed      	bne.n	2ffd7fde <plat_get_rotpk_info+0xe>
2ffd8002:	f8df a054 	ldr.w	sl, [pc, #84]	; 2ffd8058 <plat_get_rotpk_info+0x88>
2ffd8006:	46d3      	mov	fp, sl
2ffd8008:	9801      	ldr	r0, [sp, #4]
2ffd800a:	a902      	add	r1, sp, #8
2ffd800c:	4420      	add	r0, r4
2ffd800e:	f003 fbbf 	bl	2ffdb790 <stm32_get_otp_value_from_idx>
2ffd8012:	4606      	mov	r6, r0
2ffd8014:	2800      	cmp	r0, #0
2ffd8016:	d1e2      	bne.n	2ffd7fde <plat_get_rotpk_info+0xe>
2ffd8018:	9d02      	ldr	r5, [sp, #8]
2ffd801a:	ea85 4335 	eor.w	r3, r5, r5, ror #16
2ffd801e:	f423 037f 	bic.w	r3, r3, #16711680	; 0xff0000
2ffd8022:	ea4f 2535 	mov.w	r5, r5, ror #8
2ffd8026:	ea85 2513 	eor.w	r5, r5, r3, lsr #8
2ffd802a:	f84a 5b04 	str.w	r5, [sl], #4
2ffd802e:	3401      	adds	r4, #1
2ffd8030:	2c08      	cmp	r4, #8
2ffd8032:	d1e9      	bne.n	2ffd8008 <plat_get_rotpk_info+0x38>
2ffd8034:	f8c9 b000 	str.w	fp, [r9]
2ffd8038:	2320      	movs	r3, #32
2ffd803a:	f8c8 3000 	str.w	r3, [r8]
2ffd803e:	2301      	movs	r3, #1
2ffd8040:	603b      	str	r3, [r7, #0]
2ffd8042:	f003 fcfb 	bl	2ffdba3c <stm32mp_is_closed_device>
2ffd8046:	2800      	cmp	r0, #0
2ffd8048:	d1cb      	bne.n	2ffd7fe2 <plat_get_rotpk_info+0x12>
2ffd804a:	683b      	ldr	r3, [r7, #0]
2ffd804c:	f043 0302 	orr.w	r3, r3, #2
2ffd8050:	603b      	str	r3, [r7, #0]
2ffd8052:	e7c6      	b.n	2ffd7fe2 <plat_get_rotpk_info+0x12>
2ffd8054:	2ffe24a5 	.word	0x2ffe24a5
2ffd8058:	2ffe7748 	.word	0x2ffe7748

2ffd805c <plat_get_nv_ctr>:
2ffd805c:	b508      	push	{r3, lr}
2ffd805e:	b110      	cbz	r0, 2ffd8066 <plat_get_nv_ctr+0xa>
2ffd8060:	f06f 0015 	mvn.w	r0, #21
2ffd8064:	bd08      	pop	{r3, pc}
2ffd8066:	4803      	ldr	r0, [pc, #12]	; (2ffd8074 <plat_get_nv_ctr+0x18>)
2ffd8068:	f003 fbaa 	bl	2ffdb7c0 <stm32_get_otp_value>
2ffd806c:	2800      	cmp	r0, #0
2ffd806e:	d0f9      	beq.n	2ffd8064 <plat_get_nv_ctr+0x8>
2ffd8070:	e7f6      	b.n	2ffd8060 <plat_get_nv_ctr+0x4>
2ffd8072:	bf00      	nop
2ffd8074:	2ffe1f71 	.word	0x2ffe1f71

2ffd8078 <plat_set_nv_ctr>:
2ffd8078:	f06f 0015 	mvn.w	r0, #21
2ffd807c:	4770      	bx	lr

2ffd807e <device_type_uart>:
2ffd807e:	2009      	movs	r0, #9
2ffd8080:	4770      	bx	lr

2ffd8082 <uart_dev_init>:
2ffd8082:	2000      	movs	r0, #0
2ffd8084:	4770      	bx	lr

2ffd8086 <uart_dev_close>:
2ffd8086:	2000      	movs	r0, #0
2ffd8088:	4770      	bx	lr
	...

2ffd808c <uart_block_close>:
2ffd808c:	4b02      	ldr	r3, [pc, #8]	; (2ffd8098 <uart_block_close+0xc>)
2ffd808e:	2201      	movs	r2, #1
2ffd8090:	2000      	movs	r0, #0
2ffd8092:	731a      	strb	r2, [r3, #12]
2ffd8094:	4770      	bx	lr
2ffd8096:	bf00      	nop
2ffd8098:	2ffe60f4 	.word	0x2ffe60f4

2ffd809c <uart_read_byte>:
2ffd809c:	b538      	push	{r3, r4, r5, lr}
2ffd809e:	4605      	mov	r5, r0
2ffd80a0:	4c0e      	ldr	r4, [pc, #56]	; (2ffd80dc <uart_read_byte+0x40>)
2ffd80a2:	6820      	ldr	r0, [r4, #0]
2ffd80a4:	f000 faae 	bl	2ffd8604 <HAL_UART_GetState>
2ffd80a8:	b910      	cbnz	r0, 2ffd80b0 <uart_read_byte+0x14>
2ffd80aa:	6823      	ldr	r3, [r4, #0]
2ffd80ac:	2220      	movs	r2, #32
2ffd80ae:	679a      	str	r2, [r3, #120]	; 0x78
2ffd80b0:	6820      	ldr	r0, [r4, #0]
2ffd80b2:	f06f 0301 	mvn.w	r3, #1
2ffd80b6:	2201      	movs	r2, #1
2ffd80b8:	4629      	mov	r1, r5
2ffd80ba:	f000 fbd5 	bl	2ffd8868 <HAL_UART_Receive>
2ffd80be:	b948      	cbnz	r0, 2ffd80d4 <uart_read_byte+0x38>
2ffd80c0:	6823      	ldr	r3, [r4, #0]
2ffd80c2:	681b      	ldr	r3, [r3, #0]
2ffd80c4:	69db      	ldr	r3, [r3, #28]
2ffd80c6:	f013 0f0f 	tst.w	r3, #15
2ffd80ca:	bf14      	ite	ne
2ffd80cc:	f06f 0004 	mvnne.w	r0, #4
2ffd80d0:	2000      	moveq	r0, #0
2ffd80d2:	bd38      	pop	{r3, r4, r5, pc}
2ffd80d4:	f06f 0004 	mvn.w	r0, #4
2ffd80d8:	e7fb      	b.n	2ffd80d2 <uart_read_byte+0x36>
2ffd80da:	bf00      	nop
2ffd80dc:	2ffe796c 	.word	0x2ffe796c

2ffd80e0 <uart_flush_rx_fifo>:
2ffd80e0:	b537      	push	{r0, r1, r2, r4, r5, lr}
2ffd80e2:	2300      	movs	r3, #0
2ffd80e4:	4d0a      	ldr	r5, [pc, #40]	; (2ffd8110 <uart_flush_rx_fifo+0x30>)
2ffd80e6:	4604      	mov	r4, r0
2ffd80e8:	f88d 3007 	strb.w	r3, [sp, #7]
2ffd80ec:	210f      	movs	r1, #15
2ffd80ee:	682a      	ldr	r2, [r5, #0]
2ffd80f0:	6812      	ldr	r2, [r2, #0]
2ffd80f2:	6211      	str	r1, [r2, #32]
2ffd80f4:	682b      	ldr	r3, [r5, #0]
2ffd80f6:	681b      	ldr	r3, [r3, #0]
2ffd80f8:	69db      	ldr	r3, [r3, #28]
2ffd80fa:	069b      	lsls	r3, r3, #26
2ffd80fc:	d500      	bpl.n	2ffd8100 <uart_flush_rx_fifo+0x20>
2ffd80fe:	b90c      	cbnz	r4, 2ffd8104 <uart_flush_rx_fifo+0x24>
2ffd8100:	b003      	add	sp, #12
2ffd8102:	bd30      	pop	{r4, r5, pc}
2ffd8104:	f10d 0007 	add.w	r0, sp, #7
2ffd8108:	3c01      	subs	r4, #1
2ffd810a:	f7ff ffc7 	bl	2ffd809c <uart_read_byte>
2ffd810e:	e7f1      	b.n	2ffd80f4 <uart_flush_rx_fifo+0x14>
2ffd8110:	2ffe796c 	.word	0x2ffe796c

2ffd8114 <uart_write_byte>:
2ffd8114:	b513      	push	{r0, r1, r4, lr}
2ffd8116:	4c0a      	ldr	r4, [pc, #40]	; (2ffd8140 <uart_write_byte+0x2c>)
2ffd8118:	f88d 0007 	strb.w	r0, [sp, #7]
2ffd811c:	6820      	ldr	r0, [r4, #0]
2ffd811e:	f000 fa71 	bl	2ffd8604 <HAL_UART_GetState>
2ffd8122:	b910      	cbnz	r0, 2ffd812a <uart_write_byte+0x16>
2ffd8124:	6823      	ldr	r3, [r4, #0]
2ffd8126:	2220      	movs	r2, #32
2ffd8128:	675a      	str	r2, [r3, #116]	; 0x74
2ffd812a:	6820      	ldr	r0, [r4, #0]
2ffd812c:	f06f 0301 	mvn.w	r3, #1
2ffd8130:	2201      	movs	r2, #1
2ffd8132:	f10d 0107 	add.w	r1, sp, #7
2ffd8136:	f000 fb43 	bl	2ffd87c0 <HAL_UART_Transmit>
2ffd813a:	b002      	add	sp, #8
2ffd813c:	bd10      	pop	{r4, pc}
2ffd813e:	bf00      	nop
2ffd8140:	2ffe796c 	.word	0x2ffe796c

2ffd8144 <uart_dev_open>:
2ffd8144:	b510      	push	{r4, lr}
2ffd8146:	b919      	cbnz	r1, 2ffd8150 <uart_dev_open+0xc>
2ffd8148:	480b      	ldr	r0, [pc, #44]	; (2ffd8178 <uart_dev_open+0x34>)
2ffd814a:	2186      	movs	r1, #134	; 0x86
2ffd814c:	f009 f944 	bl	2ffe13d8 <__assert>
2ffd8150:	4a0a      	ldr	r2, [pc, #40]	; (2ffd817c <uart_dev_open+0x38>)
2ffd8152:	600a      	str	r2, [r1, #0]
2ffd8154:	4a0a      	ldr	r2, [pc, #40]	; (2ffd8180 <uart_dev_open+0x3c>)
2ffd8156:	6010      	str	r0, [r2, #0]
2ffd8158:	f000 fc19 	bl	2ffd898e <HAL_UART_Init>
2ffd815c:	4604      	mov	r4, r0
2ffd815e:	b940      	cbnz	r0, 2ffd8172 <uart_dev_open+0x2e>
2ffd8160:	f06f 0001 	mvn.w	r0, #1
2ffd8164:	f7ff ffbc 	bl	2ffd80e0 <uart_flush_rx_fifo>
2ffd8168:	201f      	movs	r0, #31
2ffd816a:	f7ff ffd3 	bl	2ffd8114 <uart_write_byte>
2ffd816e:	4620      	mov	r0, r4
2ffd8170:	bd10      	pop	{r4, pc}
2ffd8172:	f06f 0004 	mvn.w	r0, #4
2ffd8176:	e7fb      	b.n	2ffd8170 <uart_dev_open+0x2c>
2ffd8178:	2ffe24ad 	.word	0x2ffe24ad
2ffd817c:	2ffe2740 	.word	0x2ffe2740
2ffd8180:	2ffe796c 	.word	0x2ffe796c

2ffd8184 <uart_block_read>:
2ffd8184:	e92d 4ff0 	stmdb	sp!, {r4, r5, r6, r7, r8, r9, sl, fp, lr}
2ffd8188:	4691      	mov	r9, r2
2ffd818a:	4ec2      	ldr	r6, [pc, #776]	; (2ffd8494 <uart_block_read+0x310>)
2ffd818c:	b087      	sub	sp, #28
2ffd818e:	460d      	mov	r5, r1
2ffd8190:	6832      	ldr	r2, [r6, #0]
2ffd8192:	9302      	str	r3, [sp, #8]
2ffd8194:	2a00      	cmp	r2, #0
2ffd8196:	d03a      	beq.n	2ffd820e <uart_block_read+0x8a>
2ffd8198:	4bbf      	ldr	r3, [pc, #764]	; (2ffd8498 <uart_block_read+0x314>)
2ffd819a:	681c      	ldr	r4, [r3, #0]
2ffd819c:	b334      	cbz	r4, 2ffd81ec <uart_block_read+0x68>
2ffd819e:	49bf      	ldr	r1, [pc, #764]	; (2ffd849c <uart_block_read+0x318>)
2ffd81a0:	4628      	mov	r0, r5
2ffd81a2:	f009 f941 	bl	2ffe1428 <memcpy>
2ffd81a6:	6834      	ldr	r4, [r6, #0]
2ffd81a8:	4fbb      	ldr	r7, [pc, #748]	; (2ffd8498 <uart_block_read+0x314>)
2ffd81aa:	f04f 0800 	mov.w	r8, #0
2ffd81ae:	f007 fb5f 	bl	2ffdf870 <stm32_iwdg_refresh>
2ffd81b2:	2300      	movs	r3, #0
2ffd81b4:	f10d 0013 	add.w	r0, sp, #19
2ffd81b8:	f88d 3013 	strb.w	r3, [sp, #19]
2ffd81bc:	f88d 3014 	strb.w	r3, [sp, #20]
2ffd81c0:	f7ff ff6c 	bl	2ffd809c <uart_read_byte>
2ffd81c4:	b960      	cbnz	r0, 2ffd81e0 <uart_block_read+0x5c>
2ffd81c6:	f89d 1013 	ldrb.w	r1, [sp, #19]
2ffd81ca:	2903      	cmp	r1, #3
2ffd81cc:	d904      	bls.n	2ffd81d8 <uart_block_read+0x54>
2ffd81ce:	f001 03ef 	and.w	r3, r1, #239	; 0xef
2ffd81d2:	2b21      	cmp	r3, #33	; 0x21
2ffd81d4:	f040 817a 	bne.w	2ffd84cc <uart_block_read+0x348>
2ffd81d8:	a805      	add	r0, sp, #20
2ffd81da:	f7ff ff5f 	bl	2ffd809c <uart_read_byte>
2ffd81de:	b1c0      	cbz	r0, 2ffd8212 <uart_block_read+0x8e>
2ffd81e0:	3005      	adds	r0, #5
2ffd81e2:	d121      	bne.n	2ffd8228 <uart_block_read+0xa4>
2ffd81e4:	48ae      	ldr	r0, [pc, #696]	; (2ffd84a0 <uart_block_read+0x31c>)
2ffd81e6:	f002 fff5 	bl	2ffdb1d4 <tf_log>
2ffd81ea:	e01d      	b.n	2ffd8228 <uart_block_read+0xa4>
2ffd81ec:	f5b2 7f80 	cmp.w	r2, #256	; 0x100
2ffd81f0:	d0da      	beq.n	2ffd81a8 <uart_block_read+0x24>
2ffd81f2:	48aa      	ldr	r0, [pc, #680]	; (2ffd849c <uart_block_read+0x318>)
2ffd81f4:	f003 fa66 	bl	2ffdb6c4 <stm32mp_save_loaded_header>
2ffd81f8:	6832      	ldr	r2, [r6, #0]
2ffd81fa:	4628      	mov	r0, r5
2ffd81fc:	49a9      	ldr	r1, [pc, #676]	; (2ffd84a4 <uart_block_read+0x320>)
2ffd81fe:	f5a2 7280 	sub.w	r2, r2, #256	; 0x100
2ffd8202:	f009 f911 	bl	2ffe1428 <memcpy>
2ffd8206:	6834      	ldr	r4, [r6, #0]
2ffd8208:	f5a4 7480 	sub.w	r4, r4, #256	; 0x100
2ffd820c:	e7cc      	b.n	2ffd81a8 <uart_block_read+0x24>
2ffd820e:	4614      	mov	r4, r2
2ffd8210:	e7ca      	b.n	2ffd81a8 <uart_block_read+0x24>
2ffd8212:	f89d 1013 	ldrb.w	r1, [sp, #19]
2ffd8216:	f89d 2014 	ldrb.w	r2, [sp, #20]
2ffd821a:	ea81 0302 	eor.w	r3, r1, r2
2ffd821e:	2bff      	cmp	r3, #255	; 0xff
2ffd8220:	d008      	beq.n	2ffd8234 <uart_block_read+0xb0>
2ffd8222:	48a1      	ldr	r0, [pc, #644]	; (2ffd84a8 <uart_block_read+0x324>)
2ffd8224:	f002 ffd6 	bl	2ffdb1d4 <tf_log>
2ffd8228:	2002      	movs	r0, #2
2ffd822a:	f004 fc39 	bl	2ffdcaa0 <mdelay>
2ffd822e:	f06f 0001 	mvn.w	r0, #1
2ffd8232:	e0a0      	b.n	2ffd8376 <uart_block_read+0x1f2>
2ffd8234:	f89d a013 	ldrb.w	sl, [sp, #19]
2ffd8238:	2079      	movs	r0, #121	; 0x79
2ffd823a:	f7ff ff6b 	bl	2ffd8114 <uart_write_byte>
2ffd823e:	f1ba 0f03 	cmp.w	sl, #3
2ffd8242:	d808      	bhi.n	2ffd8256 <uart_block_read+0xd2>
2ffd8244:	f10a 3aff 	add.w	sl, sl, #4294967295	; 0xffffffff
2ffd8248:	f1ba 0f02 	cmp.w	sl, #2
2ffd824c:	d811      	bhi.n	2ffd8272 <uart_block_read+0xee>
2ffd824e:	e8df f00a 	tbb	[pc, sl]
2ffd8252:	3f45      	.short	0x3f45
2ffd8254:	47          	.byte	0x47
2ffd8255:	00          	.byte	0x00
2ffd8256:	f1ba 0f31 	cmp.w	sl, #49	; 0x31
2ffd825a:	d05c      	beq.n	2ffd8316 <uart_block_read+0x192>
2ffd825c:	f1ba 0f7f 	cmp.w	sl, #127	; 0x7f
2ffd8260:	d0a5      	beq.n	2ffd81ae <uart_block_read+0x2a>
2ffd8262:	f1ba 0f21 	cmp.w	sl, #33	; 0x21
2ffd8266:	f000 80de 	beq.w	2ffd8426 <uart_block_read+0x2a2>
2ffd826a:	4890      	ldr	r0, [pc, #576]	; (2ffd84ac <uart_block_read+0x328>)
2ffd826c:	f002 ffb2 	bl	2ffdb1d4 <tf_log>
2ffd8270:	e7dd      	b.n	2ffd822e <uart_block_read+0xaa>
2ffd8272:	2006      	movs	r0, #6
2ffd8274:	f7ff ff4e 	bl	2ffd8114 <uart_write_byte>
2ffd8278:	2040      	movs	r0, #64	; 0x40
2ffd827a:	f7ff ff4b 	bl	2ffd8114 <uart_write_byte>
2ffd827e:	2000      	movs	r0, #0
2ffd8280:	f7ff ff48 	bl	2ffd8114 <uart_write_byte>
2ffd8284:	2001      	movs	r0, #1
2ffd8286:	f7ff ff45 	bl	2ffd8114 <uart_write_byte>
2ffd828a:	2002      	movs	r0, #2
2ffd828c:	f7ff ff42 	bl	2ffd8114 <uart_write_byte>
2ffd8290:	2003      	movs	r0, #3
2ffd8292:	f7ff ff3f 	bl	2ffd8114 <uart_write_byte>
2ffd8296:	2021      	movs	r0, #33	; 0x21
2ffd8298:	f7ff ff3c 	bl	2ffd8114 <uart_write_byte>
2ffd829c:	2031      	movs	r0, #49	; 0x31
2ffd829e:	f7ff ff39 	bl	2ffd8114 <uart_write_byte>
2ffd82a2:	f04f 0a00 	mov.w	sl, #0
2ffd82a6:	2079      	movs	r0, #121	; 0x79
2ffd82a8:	f7ff ff34 	bl	2ffd8114 <uart_write_byte>
2ffd82ac:	f1ba 0f00 	cmp.w	sl, #0
2ffd82b0:	f43f af7d 	beq.w	2ffd81ae <uart_block_read+0x2a>
2ffd82b4:	9b02      	ldr	r3, [sp, #8]
2ffd82b6:	464a      	mov	r2, r9
2ffd82b8:	487d      	ldr	r0, [pc, #500]	; (2ffd84b0 <uart_block_read+0x32c>)
2ffd82ba:	4629      	mov	r1, r5
2ffd82bc:	f8c3 8000 	str.w	r8, [r3]
2ffd82c0:	4b75      	ldr	r3, [pc, #468]	; (2ffd8498 <uart_block_read+0x314>)
2ffd82c2:	7b1b      	ldrb	r3, [r3, #12]
2ffd82c4:	f002 ff86 	bl	2ffdb1d4 <tf_log>
2ffd82c8:	2000      	movs	r0, #0
2ffd82ca:	b007      	add	sp, #28
2ffd82cc:	e8bd 8ff0 	ldmia.w	sp!, {r4, r5, r6, r7, r8, r9, sl, fp, pc}
2ffd82d0:	2001      	movs	r0, #1
2ffd82d2:	f7ff ff1f 	bl	2ffd8114 <uart_write_byte>
2ffd82d6:	2005      	movs	r0, #5
2ffd82d8:	f7ff ff1c 	bl	2ffd8114 <uart_write_byte>
2ffd82dc:	2000      	movs	r0, #0
2ffd82de:	e7de      	b.n	2ffd829e <uart_block_read+0x11a>
2ffd82e0:	f8df a1e4 	ldr.w	sl, [pc, #484]	; 2ffd84c8 <uart_block_read+0x344>
2ffd82e4:	2005      	movs	r0, #5
2ffd82e6:	f7ff ff15 	bl	2ffd8114 <uart_write_byte>
2ffd82ea:	7b38      	ldrb	r0, [r7, #12]
2ffd82ec:	f7ff ff12 	bl	2ffd8114 <uart_write_byte>
2ffd82f0:	f8da 0000 	ldr.w	r0, [sl]
2ffd82f4:	9505      	str	r5, [sp, #20]
2ffd82f6:	f000 f985 	bl	2ffd8604 <HAL_UART_GetState>
2ffd82fa:	b918      	cbnz	r0, 2ffd8304 <uart_block_read+0x180>
2ffd82fc:	f8da 3000 	ldr.w	r3, [sl]
2ffd8300:	2220      	movs	r2, #32
2ffd8302:	675a      	str	r2, [r3, #116]	; 0x74
2ffd8304:	f8da 0000 	ldr.w	r0, [sl]
2ffd8308:	f06f 0301 	mvn.w	r3, #1
2ffd830c:	2204      	movs	r2, #4
2ffd830e:	a905      	add	r1, sp, #20
2ffd8310:	f000 fa56 	bl	2ffd87c0 <HAL_UART_Transmit>
2ffd8314:	e7e2      	b.n	2ffd82dc <uart_block_read+0x158>
2ffd8316:	192b      	adds	r3, r5, r4
2ffd8318:	f10d 0013 	add.w	r0, sp, #19
2ffd831c:	9301      	str	r3, [sp, #4]
2ffd831e:	2300      	movs	r3, #0
2ffd8320:	f88d 3012 	strb.w	r3, [sp, #18]
2ffd8324:	f88d 3013 	strb.w	r3, [sp, #19]
2ffd8328:	f88d 3014 	strb.w	r3, [sp, #20]
2ffd832c:	f7ff feb6 	bl	2ffd809c <uart_read_byte>
2ffd8330:	2800      	cmp	r0, #0
2ffd8332:	f47f af7c 	bne.w	2ffd822e <uart_block_read+0xaa>
2ffd8336:	f89d a013 	ldrb.w	sl, [sp, #19]
2ffd833a:	2203      	movs	r2, #3
2ffd833c:	f88d 0012 	strb.w	r0, [sp, #18]
2ffd8340:	4683      	mov	fp, r0
2ffd8342:	9203      	str	r2, [sp, #12]
2ffd8344:	f10d 0012 	add.w	r0, sp, #18
2ffd8348:	f7ff fea8 	bl	2ffd809c <uart_read_byte>
2ffd834c:	2800      	cmp	r0, #0
2ffd834e:	f47f af6e 	bne.w	2ffd822e <uart_block_read+0xaa>
2ffd8352:	9a03      	ldr	r2, [sp, #12]
2ffd8354:	f89d 0012 	ldrb.w	r0, [sp, #18]
2ffd8358:	3a01      	subs	r2, #1
2ffd835a:	ea80 0a0a 	eor.w	sl, r0, sl
2ffd835e:	ea40 2b0b 	orr.w	fp, r0, fp, lsl #8
2ffd8362:	d1ee      	bne.n	2ffd8342 <uart_block_read+0x1be>
2ffd8364:	687a      	ldr	r2, [r7, #4]
2ffd8366:	4593      	cmp	fp, r2
2ffd8368:	d00b      	beq.n	2ffd8382 <uart_block_read+0x1fe>
2ffd836a:	4852      	ldr	r0, [pc, #328]	; (2ffd84b4 <uart_block_read+0x330>)
2ffd836c:	4659      	mov	r1, fp
2ffd836e:	f002 ff31 	bl	2ffdb1d4 <tf_log>
2ffd8372:	f64f 70ff 	movw	r0, #65535	; 0xffff
2ffd8376:	f7ff feb3 	bl	2ffd80e0 <uart_flush_rx_fifo>
2ffd837a:	201f      	movs	r0, #31
2ffd837c:	f7ff feca 	bl	2ffd8114 <uart_write_byte>
2ffd8380:	e715      	b.n	2ffd81ae <uart_block_read+0x2a>
2ffd8382:	f10d 0012 	add.w	r0, sp, #18
2ffd8386:	f7ff fe89 	bl	2ffd809c <uart_read_byte>
2ffd838a:	2800      	cmp	r0, #0
2ffd838c:	f47f af4f 	bne.w	2ffd822e <uart_block_read+0xaa>
2ffd8390:	f89d 2012 	ldrb.w	r2, [sp, #18]
2ffd8394:	4592      	cmp	sl, r2
2ffd8396:	d004      	beq.n	2ffd83a2 <uart_block_read+0x21e>
2ffd8398:	4847      	ldr	r0, [pc, #284]	; (2ffd84b8 <uart_block_read+0x334>)
2ffd839a:	4651      	mov	r1, sl
2ffd839c:	f002 ff1a 	bl	2ffdb1d4 <tf_log>
2ffd83a0:	e7e7      	b.n	2ffd8372 <uart_block_read+0x1ee>
2ffd83a2:	2079      	movs	r0, #121	; 0x79
2ffd83a4:	f7ff feb6 	bl	2ffd8114 <uart_write_byte>
2ffd83a8:	a805      	add	r0, sp, #20
2ffd83aa:	f7ff fe77 	bl	2ffd809c <uart_read_byte>
2ffd83ae:	2800      	cmp	r0, #0
2ffd83b0:	f47f af3d 	bne.w	2ffd822e <uart_block_read+0xaa>
2ffd83b4:	f89d b014 	ldrb.w	fp, [sp, #20]
2ffd83b8:	46da      	mov	sl, fp
2ffd83ba:	f01a 0f07 	tst.w	sl, #7
2ffd83be:	d001      	beq.n	2ffd83c4 <uart_block_read+0x240>
2ffd83c0:	f007 fa56 	bl	2ffdf870 <stm32_iwdg_refresh>
2ffd83c4:	f10d 0012 	add.w	r0, sp, #18
2ffd83c8:	f7ff fe68 	bl	2ffd809c <uart_read_byte>
2ffd83cc:	2800      	cmp	r0, #0
2ffd83ce:	f47f af2e 	bne.w	2ffd822e <uart_block_read+0xaa>
2ffd83d2:	f89d 2012 	ldrb.w	r2, [sp, #18]
2ffd83d6:	9b01      	ldr	r3, [sp, #4]
2ffd83d8:	f1ba 0a01 	subs.w	sl, sl, #1
2ffd83dc:	f803 2b01 	strb.w	r2, [r3], #1
2ffd83e0:	ea82 0b0b 	eor.w	fp, r2, fp
2ffd83e4:	9301      	str	r3, [sp, #4]
2ffd83e6:	d2e8      	bcs.n	2ffd83ba <uart_block_read+0x236>
2ffd83e8:	f10d 0012 	add.w	r0, sp, #18
2ffd83ec:	f7ff fe56 	bl	2ffd809c <uart_read_byte>
2ffd83f0:	2800      	cmp	r0, #0
2ffd83f2:	f47f af1c 	bne.w	2ffd822e <uart_block_read+0xaa>
2ffd83f6:	f89d 2012 	ldrb.w	r2, [sp, #18]
2ffd83fa:	4593      	cmp	fp, r2
2ffd83fc:	d002      	beq.n	2ffd8404 <uart_block_read+0x280>
2ffd83fe:	482f      	ldr	r0, [pc, #188]	; (2ffd84bc <uart_block_read+0x338>)
2ffd8400:	4659      	mov	r1, fp
2ffd8402:	e7cb      	b.n	2ffd839c <uart_block_read+0x218>
2ffd8404:	687b      	ldr	r3, [r7, #4]
2ffd8406:	3301      	adds	r3, #1
2ffd8408:	607b      	str	r3, [r7, #4]
2ffd840a:	f89d 3014 	ldrb.w	r3, [sp, #20]
2ffd840e:	3301      	adds	r3, #1
2ffd8410:	4498      	add	r8, r3
2ffd8412:	45c1      	cmp	r9, r8
2ffd8414:	441c      	add	r4, r3
2ffd8416:	f63f af44 	bhi.w	2ffd82a2 <uart_block_read+0x11e>
2ffd841a:	6830      	ldr	r0, [r6, #0]
2ffd841c:	fab0 fa80 	clz	sl, r0
2ffd8420:	ea4f 1a5a 	mov.w	sl, sl, lsr #5
2ffd8424:	e73f      	b.n	2ffd82a6 <uart_block_read+0x122>
2ffd8426:	2304      	movs	r3, #4
2ffd8428:	f04f 0a00 	mov.w	sl, #0
2ffd842c:	f88d a014 	strb.w	sl, [sp, #20]
2ffd8430:	9301      	str	r3, [sp, #4]
2ffd8432:	a805      	add	r0, sp, #20
2ffd8434:	f7ff fe32 	bl	2ffd809c <uart_read_byte>
2ffd8438:	2800      	cmp	r0, #0
2ffd843a:	f47f aef8 	bne.w	2ffd822e <uart_block_read+0xaa>
2ffd843e:	9b01      	ldr	r3, [sp, #4]
2ffd8440:	f89d 2014 	ldrb.w	r2, [sp, #20]
2ffd8444:	3b01      	subs	r3, #1
2ffd8446:	ea8a 0a02 	eor.w	sl, sl, r2
2ffd844a:	d1f1      	bne.n	2ffd8430 <uart_block_read+0x2ac>
2ffd844c:	a805      	add	r0, sp, #20
2ffd844e:	f7ff fe25 	bl	2ffd809c <uart_read_byte>
2ffd8452:	2800      	cmp	r0, #0
2ffd8454:	f47f aeeb 	bne.w	2ffd822e <uart_block_read+0xaa>
2ffd8458:	f89d 2014 	ldrb.w	r2, [sp, #20]
2ffd845c:	4592      	cmp	sl, r2
2ffd845e:	d002      	beq.n	2ffd8466 <uart_block_read+0x2e2>
2ffd8460:	4817      	ldr	r0, [pc, #92]	; (2ffd84c0 <uart_block_read+0x33c>)
2ffd8462:	4651      	mov	r1, sl
2ffd8464:	e79a      	b.n	2ffd839c <uart_block_read+0x218>
2ffd8466:	7b39      	ldrb	r1, [r7, #12]
2ffd8468:	b129      	cbz	r1, 2ffd8476 <uart_block_read+0x2f2>
2ffd846a:	2903      	cmp	r1, #3
2ffd846c:	d00d      	beq.n	2ffd848a <uart_block_read+0x306>
2ffd846e:	4815      	ldr	r0, [pc, #84]	; (2ffd84c4 <uart_block_read+0x340>)
2ffd8470:	f002 feb0 	bl	2ffdb1d4 <tf_log>
2ffd8474:	e6db      	b.n	2ffd822e <uart_block_read+0xaa>
2ffd8476:	f505 7180 	add.w	r1, r5, #256	; 0x100
2ffd847a:	4808      	ldr	r0, [pc, #32]	; (2ffd849c <uart_block_read+0x318>)
2ffd847c:	f003 f8aa 	bl	2ffdb5d4 <stm32mp_check_header>
2ffd8480:	b128      	cbz	r0, 2ffd848e <uart_block_read+0x30a>
2ffd8482:	305c      	adds	r0, #92	; 0x5c
2ffd8484:	f43f af75 	beq.w	2ffd8372 <uart_block_read+0x1ee>
2ffd8488:	e6d1      	b.n	2ffd822e <uart_block_read+0xaa>
2ffd848a:	4629      	mov	r1, r5
2ffd848c:	e7f5      	b.n	2ffd847a <uart_block_read+0x2f6>
2ffd848e:	f04f 0a01 	mov.w	sl, #1
2ffd8492:	e708      	b.n	2ffd82a6 <uart_block_read+0x122>
2ffd8494:	2ffe7968 	.word	0x2ffe7968
2ffd8498:	2ffe60f4 	.word	0x2ffe60f4
2ffd849c:	2ffe7768 	.word	0x2ffe7768
2ffd84a0:	2ffe252b 	.word	0x2ffe252b
2ffd84a4:	2ffe7868 	.word	0x2ffe7868
2ffd84a8:	2ffe24d2 	.word	0x2ffe24d2
2ffd84ac:	2ffe2682 	.word	0x2ffe2682
2ffd84b0:	2ffe269a 	.word	0x2ffe269a
2ffd84b4:	2ffe2553 	.word	0x2ffe2553
2ffd84b8:	2ffe2579 	.word	0x2ffe2579
2ffd84bc:	2ffe25cc 	.word	0x2ffe25cc
2ffd84c0:	2ffe2621 	.word	0x2ffe2621
2ffd84c4:	2ffe266a 	.word	0x2ffe266a
2ffd84c8:	2ffe796c 	.word	0x2ffe796c
2ffd84cc:	297f      	cmp	r1, #127	; 0x7f
2ffd84ce:	f43f aeb1 	beq.w	2ffd8234 <uart_block_read+0xb0>
2ffd84d2:	4802      	ldr	r0, [pc, #8]	; (2ffd84dc <uart_block_read+0x358>)
2ffd84d4:	f002 fe7e 	bl	2ffdb1d4 <tf_log>
2ffd84d8:	e6a6      	b.n	2ffd8228 <uart_block_read+0xa4>
2ffd84da:	bf00      	nop
2ffd84dc:	2ffe2507 	.word	0x2ffe2507

2ffd84e0 <uart_block_len>:
2ffd84e0:	b570      	push	{r4, r5, r6, lr}
2ffd84e2:	460d      	mov	r5, r1
2ffd84e4:	b918      	cbnz	r0, 2ffd84ee <uart_block_len+0xe>
2ffd84e6:	21a8      	movs	r1, #168	; 0xa8
2ffd84e8:	4810      	ldr	r0, [pc, #64]	; (2ffd852c <uart_block_len+0x4c>)
2ffd84ea:	f008 ff75 	bl	2ffe13d8 <__assert>
2ffd84ee:	b909      	cbnz	r1, 2ffd84f4 <uart_block_len+0x14>
2ffd84f0:	21a9      	movs	r1, #169	; 0xa9
2ffd84f2:	e7f9      	b.n	2ffd84e8 <uart_block_len+0x8>
2ffd84f4:	4e0e      	ldr	r6, [pc, #56]	; (2ffd8530 <uart_block_len+0x50>)
2ffd84f6:	2400      	movs	r4, #0
2ffd84f8:	4b0e      	ldr	r3, [pc, #56]	; (2ffd8534 <uart_block_len+0x54>)
2ffd84fa:	f44f 7280 	mov.w	r2, #256	; 0x100
2ffd84fe:	6034      	str	r4, [r6, #0]
2ffd8500:	4631      	mov	r1, r6
2ffd8502:	601c      	str	r4, [r3, #0]
2ffd8504:	f7ff fe3e 	bl	2ffd8184 <uart_block_read>
2ffd8508:	6832      	ldr	r2, [r6, #0]
2ffd850a:	4b0b      	ldr	r3, [pc, #44]	; (2ffd8538 <uart_block_len+0x58>)
2ffd850c:	429a      	cmp	r2, r3
2ffd850e:	d10a      	bne.n	2ffd8526 <uart_block_len+0x46>
2ffd8510:	4b0a      	ldr	r3, [pc, #40]	; (2ffd853c <uart_block_len+0x5c>)
2ffd8512:	6cf1      	ldr	r1, [r6, #76]	; 0x4c
2ffd8514:	689b      	ldr	r3, [r3, #8]
2ffd8516:	4299      	cmp	r1, r3
2ffd8518:	d805      	bhi.n	2ffd8526 <uart_block_len+0x46>
2ffd851a:	4809      	ldr	r0, [pc, #36]	; (2ffd8540 <uart_block_len+0x60>)
2ffd851c:	6029      	str	r1, [r5, #0]
2ffd851e:	f002 fe59 	bl	2ffdb1d4 <tf_log>
2ffd8522:	4620      	mov	r0, r4
2ffd8524:	bd70      	pop	{r4, r5, r6, pc}
2ffd8526:	f06f 0004 	mvn.w	r0, #4
2ffd852a:	e7fb      	b.n	2ffd8524 <uart_block_len+0x44>
2ffd852c:	2ffe24ad 	.word	0x2ffe24ad
2ffd8530:	2ffe7768 	.word	0x2ffe7768
2ffd8534:	2ffe7968 	.word	0x2ffe7968
2ffd8538:	324d5453 	.word	0x324d5453
2ffd853c:	2ffe60f4 	.word	0x2ffe60f4
2ffd8540:	2ffe26cd 	.word	0x2ffe26cd

2ffd8544 <uart_block_open>:
2ffd8544:	b5f7      	push	{r0, r1, r2, r4, r5, r6, r7, lr}
2ffd8546:	2300      	movs	r3, #0
2ffd8548:	4c1e      	ldr	r4, [pc, #120]	; (2ffd85c4 <uart_block_open+0x80>)
2ffd854a:	4608      	mov	r0, r1
2ffd854c:	4617      	mov	r7, r2
2ffd854e:	7b26      	ldrb	r6, [r4, #12]
2ffd8550:	e9cd 3300 	strd	r3, r3, [sp]
2ffd8554:	2e01      	cmp	r6, #1
2ffd8556:	d12e      	bne.n	2ffd85b6 <uart_block_open+0x72>
2ffd8558:	b919      	cbnz	r1, 2ffd8562 <uart_block_open+0x1e>
2ffd855a:	21cb      	movs	r1, #203	; 0xcb
2ffd855c:	481a      	ldr	r0, [pc, #104]	; (2ffd85c8 <uart_block_open+0x84>)
2ffd855e:	f008 ff3b 	bl	2ffe13d8 <__assert>
2ffd8562:	b90a      	cbnz	r2, 2ffd8568 <uart_block_open+0x24>
2ffd8564:	21cc      	movs	r1, #204	; 0xcc
2ffd8566:	e7f9      	b.n	2ffd855c <uart_block_open+0x18>
2ffd8568:	4918      	ldr	r1, [pc, #96]	; (2ffd85cc <uart_block_open+0x88>)
2ffd856a:	6063      	str	r3, [r4, #4]
2ffd856c:	f009 f94f 	bl	2ffe180e <strcmp>
2ffd8570:	4605      	mov	r5, r0
2ffd8572:	b9e0      	cbnz	r0, 2ffd85ae <uart_block_open+0x6a>
2ffd8574:	4b16      	ldr	r3, [pc, #88]	; (2ffd85d0 <uart_block_open+0x8c>)
2ffd8576:	a901      	add	r1, sp, #4
2ffd8578:	7320      	strb	r0, [r4, #12]
2ffd857a:	4638      	mov	r0, r7
2ffd857c:	60a3      	str	r3, [r4, #8]
2ffd857e:	6026      	str	r6, [r4, #0]
2ffd8580:	f7ff ffae 	bl	2ffd84e0 <uart_block_len>
2ffd8584:	9a01      	ldr	r2, [sp, #4]
2ffd8586:	466b      	mov	r3, sp
2ffd8588:	f04f 4140 	mov.w	r1, #3221225472	; 0xc0000000
2ffd858c:	4638      	mov	r0, r7
2ffd858e:	f7ff fdf9 	bl	2ffd8184 <uart_block_read>
2ffd8592:	9901      	ldr	r1, [sp, #4]
2ffd8594:	f04f 4040 	mov.w	r0, #3221225472	; 0xc0000000
2ffd8598:	f501 7180 	add.w	r1, r1, #256	; 0x100
2ffd859c:	f7fd ef06 	blx	2ffd63ac <flush_dcache_range>
2ffd85a0:	6065      	str	r5, [r4, #4]
2ffd85a2:	2303      	movs	r3, #3
2ffd85a4:	7323      	strb	r3, [r4, #12]
2ffd85a6:	f008 f8a1 	bl	2ffe06ec <dt_get_ddr_size>
2ffd85aa:	60a0      	str	r0, [r4, #8]
2ffd85ac:	6025      	str	r5, [r4, #0]
2ffd85ae:	607c      	str	r4, [r7, #4]
2ffd85b0:	2000      	movs	r0, #0
2ffd85b2:	b003      	add	sp, #12
2ffd85b4:	bdf0      	pop	{r4, r5, r6, r7, pc}
2ffd85b6:	4807      	ldr	r0, [pc, #28]	; (2ffd85d4 <uart_block_open+0x90>)
2ffd85b8:	f002 fe0c 	bl	2ffdb1d4 <tf_log>
2ffd85bc:	f06f 0004 	mvn.w	r0, #4
2ffd85c0:	e7f7      	b.n	2ffd85b2 <uart_block_open+0x6e>
2ffd85c2:	bf00      	nop
2ffd85c4:	2ffe60f4 	.word	0x2ffe60f4
2ffd85c8:	2ffe24ad 	.word	0x2ffe24ad
2ffd85cc:	2ffe26e0 	.word	0x2ffe26e0
2ffd85d0:	c0100000 	.word	0xc0100000
2ffd85d4:	2ffe26e5 	.word	0x2ffe26e5

2ffd85d8 <register_io_dev_uart>:
2ffd85d8:	b510      	push	{r4, lr}
2ffd85da:	4604      	mov	r4, r0
2ffd85dc:	b920      	cbnz	r0, 2ffd85e8 <register_io_dev_uart+0x10>
2ffd85de:	4806      	ldr	r0, [pc, #24]	; (2ffd85f8 <register_io_dev_uart+0x20>)
2ffd85e0:	f44f 7111 	mov.w	r1, #580	; 0x244
2ffd85e4:	f008 fef8 	bl	2ffe13d8 <__assert>
2ffd85e8:	4804      	ldr	r0, [pc, #16]	; (2ffd85fc <register_io_dev_uart+0x24>)
2ffd85ea:	f7fe fa69 	bl	2ffd6ac0 <io_register_device>
2ffd85ee:	b908      	cbnz	r0, 2ffd85f4 <register_io_dev_uart+0x1c>
2ffd85f0:	4b03      	ldr	r3, [pc, #12]	; (2ffd8600 <register_io_dev_uart+0x28>)
2ffd85f2:	6023      	str	r3, [r4, #0]
2ffd85f4:	bd10      	pop	{r4, pc}
2ffd85f6:	bf00      	nop
2ffd85f8:	2ffe24ad 	.word	0x2ffe24ad
2ffd85fc:	2ffe2740 	.word	0x2ffe2740
2ffd8600:	2ffe2718 	.word	0x2ffe2718

2ffd8604 <HAL_UART_GetState>:
2ffd8604:	6f42      	ldr	r2, [r0, #116]	; 0x74
2ffd8606:	6f80      	ldr	r0, [r0, #120]	; 0x78
2ffd8608:	4310      	orrs	r0, r2
2ffd860a:	4770      	bx	lr

2ffd860c <UART_SetConfig>:
2ffd860c:	b538      	push	{r3, r4, r5, lr}
2ffd860e:	4604      	mov	r4, r0
2ffd8610:	6883      	ldr	r3, [r0, #8]
2ffd8612:	6902      	ldr	r2, [r0, #16]
2ffd8614:	6a81      	ldr	r1, [r0, #40]	; 0x28
2ffd8616:	4313      	orrs	r3, r2
2ffd8618:	6942      	ldr	r2, [r0, #20]
2ffd861a:	f1b1 5f00 	cmp.w	r1, #536870912	; 0x20000000
2ffd861e:	ea43 0302 	orr.w	r3, r3, r2
2ffd8622:	69c2      	ldr	r2, [r0, #28]
2ffd8624:	6800      	ldr	r0, [r0, #0]
2ffd8626:	ea43 0302 	orr.w	r3, r3, r2
2ffd862a:	6805      	ldr	r5, [r0, #0]
2ffd862c:	4a25      	ldr	r2, [pc, #148]	; (2ffd86c4 <UART_SetConfig+0xb8>)
2ffd862e:	ea43 0301 	orr.w	r3, r3, r1
2ffd8632:	bf08      	it	eq
2ffd8634:	6b21      	ldreq	r1, [r4, #48]	; 0x30
2ffd8636:	ea02 0205 	and.w	r2, r2, r5
2ffd863a:	ea43 0302 	orr.w	r3, r3, r2
2ffd863e:	6003      	str	r3, [r0, #0]
2ffd8640:	6843      	ldr	r3, [r0, #4]
2ffd8642:	68e2      	ldr	r2, [r4, #12]
2ffd8644:	f423 5340 	bic.w	r3, r3, #12288	; 0x3000
2ffd8648:	ea43 0302 	orr.w	r3, r3, r2
2ffd864c:	6043      	str	r3, [r0, #4]
2ffd864e:	6a22      	ldr	r2, [r4, #32]
2ffd8650:	69a3      	ldr	r3, [r4, #24]
2ffd8652:	ea42 0203 	orr.w	r2, r2, r3
2ffd8656:	bf02      	ittt	eq
2ffd8658:	6ae3      	ldreq	r3, [r4, #44]	; 0x2c
2ffd865a:	430b      	orreq	r3, r1
2ffd865c:	431a      	orreq	r2, r3
2ffd865e:	6883      	ldr	r3, [r0, #8]
2ffd8660:	f023 436e 	bic.w	r3, r3, #3992977408	; 0xee000000
2ffd8664:	f423 6330 	bic.w	r3, r3, #2816	; 0xb00
2ffd8668:	4313      	orrs	r3, r2
2ffd866a:	6083      	str	r3, [r0, #8]
2ffd866c:	6ac3      	ldr	r3, [r0, #44]	; 0x2c
2ffd866e:	6a62      	ldr	r2, [r4, #36]	; 0x24
2ffd8670:	f023 030f 	bic.w	r3, r3, #15
2ffd8674:	4313      	orrs	r3, r2
2ffd8676:	62c3      	str	r3, [r0, #44]	; 0x2c
2ffd8678:	f004 fe76 	bl	2ffdd368 <fdt_get_uart_clock_freq>
2ffd867c:	b1f8      	cbz	r0, 2ffd86be <UART_SetConfig+0xb2>
2ffd867e:	6861      	ldr	r1, [r4, #4]
2ffd8680:	6a65      	ldr	r5, [r4, #36]	; 0x24
2ffd8682:	6822      	ldr	r2, [r4, #0]
2ffd8684:	4b10      	ldr	r3, [pc, #64]	; (2ffd86c8 <UART_SetConfig+0xbc>)
2ffd8686:	69e4      	ldr	r4, [r4, #28]
2ffd8688:	f833 3015 	ldrh.w	r3, [r3, r5, lsl #1]
2ffd868c:	f5b4 4f00 	cmp.w	r4, #32768	; 0x8000
2ffd8690:	fbb0 f0f3 	udiv	r0, r0, r3
2ffd8694:	ea4f 0351 	mov.w	r3, r1, lsr #1
2ffd8698:	d10c      	bne.n	2ffd86b4 <UART_SetConfig+0xa8>
2ffd869a:	eb03 0040 	add.w	r0, r3, r0, lsl #1
2ffd869e:	fbb0 f0f1 	udiv	r0, r0, r1
2ffd86a2:	f020 030f 	bic.w	r3, r0, #15
2ffd86a6:	f3c0 0042 	ubfx	r0, r0, #1, #3
2ffd86aa:	b29b      	uxth	r3, r3
2ffd86ac:	4318      	orrs	r0, r3
2ffd86ae:	60d0      	str	r0, [r2, #12]
2ffd86b0:	2000      	movs	r0, #0
2ffd86b2:	bd38      	pop	{r3, r4, r5, pc}
2ffd86b4:	4418      	add	r0, r3
2ffd86b6:	fbb0 f0f1 	udiv	r0, r0, r1
2ffd86ba:	b280      	uxth	r0, r0
2ffd86bc:	e7f7      	b.n	2ffd86ae <UART_SetConfig+0xa2>
2ffd86be:	2001      	movs	r0, #1
2ffd86c0:	e7f7      	b.n	2ffd86b2 <UART_SetConfig+0xa6>
2ffd86c2:	bf00      	nop
2ffd86c4:	cfff69f3 	.word	0xcfff69f3
2ffd86c8:	2ffe2748 	.word	0x2ffe2748

2ffd86cc <UART_AdvFeatureConfig>:
2ffd86cc:	6b43      	ldr	r3, [r0, #52]	; 0x34
2ffd86ce:	b510      	push	{r4, lr}
2ffd86d0:	07da      	lsls	r2, r3, #31
2ffd86d2:	d506      	bpl.n	2ffd86e2 <UART_AdvFeatureConfig+0x16>
2ffd86d4:	6801      	ldr	r1, [r0, #0]
2ffd86d6:	6b84      	ldr	r4, [r0, #56]	; 0x38
2ffd86d8:	684a      	ldr	r2, [r1, #4]
2ffd86da:	f422 3200 	bic.w	r2, r2, #131072	; 0x20000
2ffd86de:	4322      	orrs	r2, r4
2ffd86e0:	604a      	str	r2, [r1, #4]
2ffd86e2:	079c      	lsls	r4, r3, #30
2ffd86e4:	d506      	bpl.n	2ffd86f4 <UART_AdvFeatureConfig+0x28>
2ffd86e6:	6801      	ldr	r1, [r0, #0]
2ffd86e8:	6bc4      	ldr	r4, [r0, #60]	; 0x3c
2ffd86ea:	684a      	ldr	r2, [r1, #4]
2ffd86ec:	f422 3280 	bic.w	r2, r2, #65536	; 0x10000
2ffd86f0:	4322      	orrs	r2, r4
2ffd86f2:	604a      	str	r2, [r1, #4]
2ffd86f4:	0759      	lsls	r1, r3, #29
2ffd86f6:	d506      	bpl.n	2ffd8706 <UART_AdvFeatureConfig+0x3a>
2ffd86f8:	6801      	ldr	r1, [r0, #0]
2ffd86fa:	6c04      	ldr	r4, [r0, #64]	; 0x40
2ffd86fc:	684a      	ldr	r2, [r1, #4]
2ffd86fe:	f422 2280 	bic.w	r2, r2, #262144	; 0x40000
2ffd8702:	4322      	orrs	r2, r4
2ffd8704:	604a      	str	r2, [r1, #4]
2ffd8706:	071a      	lsls	r2, r3, #28
2ffd8708:	d506      	bpl.n	2ffd8718 <UART_AdvFeatureConfig+0x4c>
2ffd870a:	6801      	ldr	r1, [r0, #0]
2ffd870c:	6c44      	ldr	r4, [r0, #68]	; 0x44
2ffd870e:	684a      	ldr	r2, [r1, #4]
2ffd8710:	f422 4200 	bic.w	r2, r2, #32768	; 0x8000
2ffd8714:	4322      	orrs	r2, r4
2ffd8716:	604a      	str	r2, [r1, #4]
2ffd8718:	06dc      	lsls	r4, r3, #27
2ffd871a:	d506      	bpl.n	2ffd872a <UART_AdvFeatureConfig+0x5e>
2ffd871c:	6801      	ldr	r1, [r0, #0]
2ffd871e:	6c84      	ldr	r4, [r0, #72]	; 0x48
2ffd8720:	688a      	ldr	r2, [r1, #8]
2ffd8722:	f422 5280 	bic.w	r2, r2, #4096	; 0x1000
2ffd8726:	4322      	orrs	r2, r4
2ffd8728:	608a      	str	r2, [r1, #8]
2ffd872a:	0699      	lsls	r1, r3, #26
2ffd872c:	d506      	bpl.n	2ffd873c <UART_AdvFeatureConfig+0x70>
2ffd872e:	6801      	ldr	r1, [r0, #0]
2ffd8730:	6cc4      	ldr	r4, [r0, #76]	; 0x4c
2ffd8732:	688a      	ldr	r2, [r1, #8]
2ffd8734:	f422 5200 	bic.w	r2, r2, #8192	; 0x2000
2ffd8738:	4322      	orrs	r2, r4
2ffd873a:	608a      	str	r2, [r1, #8]
2ffd873c:	065a      	lsls	r2, r3, #25
2ffd873e:	d510      	bpl.n	2ffd8762 <UART_AdvFeatureConfig+0x96>
2ffd8740:	6801      	ldr	r1, [r0, #0]
2ffd8742:	6d04      	ldr	r4, [r0, #80]	; 0x50
2ffd8744:	684a      	ldr	r2, [r1, #4]
2ffd8746:	f5b4 1f80 	cmp.w	r4, #1048576	; 0x100000
2ffd874a:	f422 1280 	bic.w	r2, r2, #1048576	; 0x100000
2ffd874e:	ea42 0204 	orr.w	r2, r2, r4
2ffd8752:	604a      	str	r2, [r1, #4]
2ffd8754:	d105      	bne.n	2ffd8762 <UART_AdvFeatureConfig+0x96>
2ffd8756:	684a      	ldr	r2, [r1, #4]
2ffd8758:	6d44      	ldr	r4, [r0, #84]	; 0x54
2ffd875a:	f422 02c0 	bic.w	r2, r2, #6291456	; 0x600000
2ffd875e:	4322      	orrs	r2, r4
2ffd8760:	604a      	str	r2, [r1, #4]
2ffd8762:	061b      	lsls	r3, r3, #24
2ffd8764:	d506      	bpl.n	2ffd8774 <UART_AdvFeatureConfig+0xa8>
2ffd8766:	6802      	ldr	r2, [r0, #0]
2ffd8768:	6d81      	ldr	r1, [r0, #88]	; 0x58
2ffd876a:	6853      	ldr	r3, [r2, #4]
2ffd876c:	f423 2300 	bic.w	r3, r3, #524288	; 0x80000
2ffd8770:	430b      	orrs	r3, r1
2ffd8772:	6053      	str	r3, [r2, #4]
2ffd8774:	bd10      	pop	{r4, pc}

2ffd8776 <UART_WaitOnFlagUntilTimeout>:
2ffd8776:	b5f0      	push	{r4, r5, r6, r7, lr}
2ffd8778:	9d05      	ldr	r5, [sp, #20]
2ffd877a:	6804      	ldr	r4, [r0, #0]
2ffd877c:	69e6      	ldr	r6, [r4, #28]
2ffd877e:	ea31 0606 	bics.w	r6, r1, r6
2ffd8782:	bf0c      	ite	eq
2ffd8784:	2601      	moveq	r6, #1
2ffd8786:	2600      	movne	r6, #0
2ffd8788:	4296      	cmp	r6, r2
2ffd878a:	d001      	beq.n	2ffd8790 <UART_WaitOnFlagUntilTimeout+0x1a>
2ffd878c:	2000      	movs	r0, #0
2ffd878e:	e010      	b.n	2ffd87b2 <UART_WaitOnFlagUntilTimeout+0x3c>
2ffd8790:	1c6e      	adds	r6, r5, #1
2ffd8792:	d0f3      	beq.n	2ffd877c <UART_WaitOnFlagUntilTimeout+0x6>
2ffd8794:	b975      	cbnz	r5, 2ffd87b4 <UART_WaitOnFlagUntilTimeout+0x3e>
2ffd8796:	6823      	ldr	r3, [r4, #0]
2ffd8798:	f423 73d0 	bic.w	r3, r3, #416	; 0x1a0
2ffd879c:	6023      	str	r3, [r4, #0]
2ffd879e:	68a3      	ldr	r3, [r4, #8]
2ffd87a0:	f023 0301 	bic.w	r3, r3, #1
2ffd87a4:	60a3      	str	r3, [r4, #8]
2ffd87a6:	2320      	movs	r3, #32
2ffd87a8:	6743      	str	r3, [r0, #116]	; 0x74
2ffd87aa:	6783      	str	r3, [r0, #120]	; 0x78
2ffd87ac:	2300      	movs	r3, #0
2ffd87ae:	6703      	str	r3, [r0, #112]	; 0x70
2ffd87b0:	2003      	movs	r0, #3
2ffd87b2:	bdf0      	pop	{r4, r5, r6, r7, pc}
2ffd87b4:	ec57 6f0e 	mrrc	15, 0, r6, r7, cr14
2ffd87b8:	1af6      	subs	r6, r6, r3
2ffd87ba:	42ae      	cmp	r6, r5
2ffd87bc:	d9de      	bls.n	2ffd877c <UART_WaitOnFlagUntilTimeout+0x6>
2ffd87be:	e7ea      	b.n	2ffd8796 <UART_WaitOnFlagUntilTimeout+0x20>

2ffd87c0 <HAL_UART_Transmit>:
2ffd87c0:	e92d 43f7 	stmdb	sp!, {r0, r1, r2, r4, r5, r6, r7, r8, r9, lr}
2ffd87c4:	4698      	mov	r8, r3
2ffd87c6:	6f43      	ldr	r3, [r0, #116]	; 0x74
2ffd87c8:	4604      	mov	r4, r0
2ffd87ca:	460d      	mov	r5, r1
2ffd87cc:	2b20      	cmp	r3, #32
2ffd87ce:	d149      	bne.n	2ffd8864 <HAL_UART_Transmit+0xa4>
2ffd87d0:	2900      	cmp	r1, #0
2ffd87d2:	d045      	beq.n	2ffd8860 <HAL_UART_Transmit+0xa0>
2ffd87d4:	2a00      	cmp	r2, #0
2ffd87d6:	d043      	beq.n	2ffd8860 <HAL_UART_Transmit+0xa0>
2ffd87d8:	6f03      	ldr	r3, [r0, #112]	; 0x70
2ffd87da:	2b01      	cmp	r3, #1
2ffd87dc:	d042      	beq.n	2ffd8864 <HAL_UART_Transmit+0xa4>
2ffd87de:	2301      	movs	r3, #1
2ffd87e0:	6703      	str	r3, [r0, #112]	; 0x70
2ffd87e2:	2300      	movs	r3, #0
2ffd87e4:	67c3      	str	r3, [r0, #124]	; 0x7c
2ffd87e6:	2321      	movs	r3, #33	; 0x21
2ffd87e8:	6743      	str	r3, [r0, #116]	; 0x74
2ffd87ea:	ec57 6f0e 	mrrc	15, 0, r6, r7, cr14
2ffd87ee:	f8a0 2060 	strh.w	r2, [r0, #96]	; 0x60
2ffd87f2:	46b1      	mov	r9, r6
2ffd87f4:	f8a0 2062 	strh.w	r2, [r0, #98]	; 0x62
2ffd87f8:	f8b4 2062 	ldrh.w	r2, [r4, #98]	; 0x62
2ffd87fc:	b292      	uxth	r2, r2
2ffd87fe:	b942      	cbnz	r2, 2ffd8812 <HAL_UART_Transmit+0x52>
2ffd8800:	f8cd 8000 	str.w	r8, [sp]
2ffd8804:	4633      	mov	r3, r6
2ffd8806:	2140      	movs	r1, #64	; 0x40
2ffd8808:	4620      	mov	r0, r4
2ffd880a:	f7ff ffb4 	bl	2ffd8776 <UART_WaitOnFlagUntilTimeout>
2ffd880e:	b180      	cbz	r0, 2ffd8832 <HAL_UART_Transmit+0x72>
2ffd8810:	e00e      	b.n	2ffd8830 <HAL_UART_Transmit+0x70>
2ffd8812:	f8b4 2062 	ldrh.w	r2, [r4, #98]	; 0x62
2ffd8816:	464b      	mov	r3, r9
2ffd8818:	f8cd 8000 	str.w	r8, [sp]
2ffd881c:	2180      	movs	r1, #128	; 0x80
2ffd881e:	3a01      	subs	r2, #1
2ffd8820:	4620      	mov	r0, r4
2ffd8822:	b292      	uxth	r2, r2
2ffd8824:	f8a4 2062 	strh.w	r2, [r4, #98]	; 0x62
2ffd8828:	2200      	movs	r2, #0
2ffd882a:	f7ff ffa4 	bl	2ffd8776 <UART_WaitOnFlagUntilTimeout>
2ffd882e:	b138      	cbz	r0, 2ffd8840 <HAL_UART_Transmit+0x80>
2ffd8830:	2003      	movs	r0, #3
2ffd8832:	2320      	movs	r3, #32
2ffd8834:	6763      	str	r3, [r4, #116]	; 0x74
2ffd8836:	2300      	movs	r3, #0
2ffd8838:	6723      	str	r3, [r4, #112]	; 0x70
2ffd883a:	b003      	add	sp, #12
2ffd883c:	e8bd 83f0 	ldmia.w	sp!, {r4, r5, r6, r7, r8, r9, pc}
2ffd8840:	68a3      	ldr	r3, [r4, #8]
2ffd8842:	6822      	ldr	r2, [r4, #0]
2ffd8844:	f5b3 5f80 	cmp.w	r3, #4096	; 0x1000
2ffd8848:	d107      	bne.n	2ffd885a <HAL_UART_Transmit+0x9a>
2ffd884a:	6923      	ldr	r3, [r4, #16]
2ffd884c:	b92b      	cbnz	r3, 2ffd885a <HAL_UART_Transmit+0x9a>
2ffd884e:	f835 3b02 	ldrh.w	r3, [r5], #2
2ffd8852:	f3c3 0308 	ubfx	r3, r3, #0, #9
2ffd8856:	8513      	strh	r3, [r2, #40]	; 0x28
2ffd8858:	e7ce      	b.n	2ffd87f8 <HAL_UART_Transmit+0x38>
2ffd885a:	f815 3b01 	ldrb.w	r3, [r5], #1
2ffd885e:	e7fa      	b.n	2ffd8856 <HAL_UART_Transmit+0x96>
2ffd8860:	2001      	movs	r0, #1
2ffd8862:	e7ea      	b.n	2ffd883a <HAL_UART_Transmit+0x7a>
2ffd8864:	2002      	movs	r0, #2
2ffd8866:	e7e8      	b.n	2ffd883a <HAL_UART_Transmit+0x7a>

2ffd8868 <HAL_UART_Receive>:
2ffd8868:	e92d 43f7 	stmdb	sp!, {r0, r1, r2, r4, r5, r6, r7, r8, r9, lr}
2ffd886c:	461e      	mov	r6, r3
2ffd886e:	6f83      	ldr	r3, [r0, #120]	; 0x78
2ffd8870:	4604      	mov	r4, r0
2ffd8872:	460d      	mov	r5, r1
2ffd8874:	2b20      	cmp	r3, #32
2ffd8876:	d15c      	bne.n	2ffd8932 <HAL_UART_Receive+0xca>
2ffd8878:	2900      	cmp	r1, #0
2ffd887a:	d058      	beq.n	2ffd892e <HAL_UART_Receive+0xc6>
2ffd887c:	2a00      	cmp	r2, #0
2ffd887e:	d056      	beq.n	2ffd892e <HAL_UART_Receive+0xc6>
2ffd8880:	6f03      	ldr	r3, [r0, #112]	; 0x70
2ffd8882:	2b01      	cmp	r3, #1
2ffd8884:	d055      	beq.n	2ffd8932 <HAL_UART_Receive+0xca>
2ffd8886:	2301      	movs	r3, #1
2ffd8888:	6703      	str	r3, [r0, #112]	; 0x70
2ffd888a:	2300      	movs	r3, #0
2ffd888c:	67c3      	str	r3, [r0, #124]	; 0x7c
2ffd888e:	2322      	movs	r3, #34	; 0x22
2ffd8890:	6783      	str	r3, [r0, #120]	; 0x78
2ffd8892:	ec59 8f0e 	mrrc	15, 0, r8, r9, cr14
2ffd8896:	6883      	ldr	r3, [r0, #8]
2ffd8898:	f8a0 2068 	strh.w	r2, [r0, #104]	; 0x68
2ffd889c:	f8a0 206a 	strh.w	r2, [r0, #106]	; 0x6a
2ffd88a0:	f5b3 5f80 	cmp.w	r3, #4096	; 0x1000
2ffd88a4:	d114      	bne.n	2ffd88d0 <HAL_UART_Receive+0x68>
2ffd88a6:	6903      	ldr	r3, [r0, #16]
2ffd88a8:	b983      	cbnz	r3, 2ffd88cc <HAL_UART_Receive+0x64>
2ffd88aa:	f240 13ff 	movw	r3, #511	; 0x1ff
2ffd88ae:	f8a4 306c 	strh.w	r3, [r4, #108]	; 0x6c
2ffd88b2:	f8b4 706c 	ldrh.w	r7, [r4, #108]	; 0x6c
2ffd88b6:	f8b4 006a 	ldrh.w	r0, [r4, #106]	; 0x6a
2ffd88ba:	b280      	uxth	r0, r0
2ffd88bc:	b9b0      	cbnz	r0, 2ffd88ec <HAL_UART_Receive+0x84>
2ffd88be:	2320      	movs	r3, #32
2ffd88c0:	67a3      	str	r3, [r4, #120]	; 0x78
2ffd88c2:	2300      	movs	r3, #0
2ffd88c4:	6723      	str	r3, [r4, #112]	; 0x70
2ffd88c6:	b003      	add	sp, #12
2ffd88c8:	e8bd 83f0 	ldmia.w	sp!, {r4, r5, r6, r7, r8, r9, pc}
2ffd88cc:	23ff      	movs	r3, #255	; 0xff
2ffd88ce:	e7ee      	b.n	2ffd88ae <HAL_UART_Receive+0x46>
2ffd88d0:	b923      	cbnz	r3, 2ffd88dc <HAL_UART_Receive+0x74>
2ffd88d2:	6903      	ldr	r3, [r0, #16]
2ffd88d4:	2b00      	cmp	r3, #0
2ffd88d6:	d0f9      	beq.n	2ffd88cc <HAL_UART_Receive+0x64>
2ffd88d8:	237f      	movs	r3, #127	; 0x7f
2ffd88da:	e7e8      	b.n	2ffd88ae <HAL_UART_Receive+0x46>
2ffd88dc:	f1b3 5f80 	cmp.w	r3, #268435456	; 0x10000000
2ffd88e0:	d1e7      	bne.n	2ffd88b2 <HAL_UART_Receive+0x4a>
2ffd88e2:	6903      	ldr	r3, [r0, #16]
2ffd88e4:	2b00      	cmp	r3, #0
2ffd88e6:	d0f7      	beq.n	2ffd88d8 <HAL_UART_Receive+0x70>
2ffd88e8:	233f      	movs	r3, #63	; 0x3f
2ffd88ea:	e7e0      	b.n	2ffd88ae <HAL_UART_Receive+0x46>
2ffd88ec:	f8b4 206a 	ldrh.w	r2, [r4, #106]	; 0x6a
2ffd88f0:	4643      	mov	r3, r8
2ffd88f2:	9600      	str	r6, [sp, #0]
2ffd88f4:	2120      	movs	r1, #32
2ffd88f6:	3a01      	subs	r2, #1
2ffd88f8:	4620      	mov	r0, r4
2ffd88fa:	b292      	uxth	r2, r2
2ffd88fc:	f8a4 206a 	strh.w	r2, [r4, #106]	; 0x6a
2ffd8900:	2200      	movs	r2, #0
2ffd8902:	f7ff ff38 	bl	2ffd8776 <UART_WaitOnFlagUntilTimeout>
2ffd8906:	b980      	cbnz	r0, 2ffd892a <HAL_UART_Receive+0xc2>
2ffd8908:	68a2      	ldr	r2, [r4, #8]
2ffd890a:	6823      	ldr	r3, [r4, #0]
2ffd890c:	f5b2 5f80 	cmp.w	r2, #4096	; 0x1000
2ffd8910:	d106      	bne.n	2ffd8920 <HAL_UART_Receive+0xb8>
2ffd8912:	6922      	ldr	r2, [r4, #16]
2ffd8914:	b922      	cbnz	r2, 2ffd8920 <HAL_UART_Receive+0xb8>
2ffd8916:	8c9b      	ldrh	r3, [r3, #36]	; 0x24
2ffd8918:	403b      	ands	r3, r7
2ffd891a:	f825 3b02 	strh.w	r3, [r5], #2
2ffd891e:	e7ca      	b.n	2ffd88b6 <HAL_UART_Receive+0x4e>
2ffd8920:	8c9b      	ldrh	r3, [r3, #36]	; 0x24
2ffd8922:	403b      	ands	r3, r7
2ffd8924:	f805 3b01 	strb.w	r3, [r5], #1
2ffd8928:	e7c5      	b.n	2ffd88b6 <HAL_UART_Receive+0x4e>
2ffd892a:	2003      	movs	r0, #3
2ffd892c:	e7c7      	b.n	2ffd88be <HAL_UART_Receive+0x56>
2ffd892e:	2001      	movs	r0, #1
2ffd8930:	e7c9      	b.n	2ffd88c6 <HAL_UART_Receive+0x5e>
2ffd8932:	2002      	movs	r0, #2
2ffd8934:	e7c7      	b.n	2ffd88c6 <HAL_UART_Receive+0x5e>

2ffd8936 <UART_CheckIdleState>:
2ffd8936:	2200      	movs	r2, #0
2ffd8938:	b5d3      	push	{r0, r1, r4, r6, r7, lr}
2ffd893a:	4604      	mov	r4, r0
2ffd893c:	67c2      	str	r2, [r0, #124]	; 0x7c
2ffd893e:	ec57 6f0e 	mrrc	15, 0, r6, r7, cr14
2ffd8942:	6803      	ldr	r3, [r0, #0]
2ffd8944:	681b      	ldr	r3, [r3, #0]
2ffd8946:	0719      	lsls	r1, r3, #28
2ffd8948:	d414      	bmi.n	2ffd8974 <UART_CheckIdleState+0x3e>
2ffd894a:	6823      	ldr	r3, [r4, #0]
2ffd894c:	681b      	ldr	r3, [r3, #0]
2ffd894e:	075b      	lsls	r3, r3, #29
2ffd8950:	d50a      	bpl.n	2ffd8968 <UART_CheckIdleState+0x32>
2ffd8952:	f06f 437e 	mvn.w	r3, #4261412864	; 0xfe000000
2ffd8956:	2200      	movs	r2, #0
2ffd8958:	9300      	str	r3, [sp, #0]
2ffd895a:	f44f 0180 	mov.w	r1, #4194304	; 0x400000
2ffd895e:	4633      	mov	r3, r6
2ffd8960:	4620      	mov	r0, r4
2ffd8962:	f7ff ff08 	bl	2ffd8776 <UART_WaitOnFlagUntilTimeout>
2ffd8966:	b978      	cbnz	r0, 2ffd8988 <UART_CheckIdleState+0x52>
2ffd8968:	2320      	movs	r3, #32
2ffd896a:	2000      	movs	r0, #0
2ffd896c:	6763      	str	r3, [r4, #116]	; 0x74
2ffd896e:	6720      	str	r0, [r4, #112]	; 0x70
2ffd8970:	67a3      	str	r3, [r4, #120]	; 0x78
2ffd8972:	e00a      	b.n	2ffd898a <UART_CheckIdleState+0x54>
2ffd8974:	f06f 437e 	mvn.w	r3, #4261412864	; 0xfe000000
2ffd8978:	f44f 1100 	mov.w	r1, #2097152	; 0x200000
2ffd897c:	9300      	str	r3, [sp, #0]
2ffd897e:	4633      	mov	r3, r6
2ffd8980:	f7ff fef9 	bl	2ffd8776 <UART_WaitOnFlagUntilTimeout>
2ffd8984:	2800      	cmp	r0, #0
2ffd8986:	d0e0      	beq.n	2ffd894a <UART_CheckIdleState+0x14>
2ffd8988:	2003      	movs	r0, #3
2ffd898a:	b002      	add	sp, #8
2ffd898c:	bdd0      	pop	{r4, r6, r7, pc}

2ffd898e <HAL_UART_Init>:
2ffd898e:	b510      	push	{r4, lr}
2ffd8990:	4604      	mov	r4, r0
2ffd8992:	b328      	cbz	r0, 2ffd89e0 <HAL_UART_Init+0x52>
2ffd8994:	6f43      	ldr	r3, [r0, #116]	; 0x74
2ffd8996:	b903      	cbnz	r3, 2ffd899a <HAL_UART_Init+0xc>
2ffd8998:	6703      	str	r3, [r0, #112]	; 0x70
2ffd899a:	6822      	ldr	r2, [r4, #0]
2ffd899c:	2324      	movs	r3, #36	; 0x24
2ffd899e:	6763      	str	r3, [r4, #116]	; 0x74
2ffd89a0:	4620      	mov	r0, r4
2ffd89a2:	6813      	ldr	r3, [r2, #0]
2ffd89a4:	f023 0301 	bic.w	r3, r3, #1
2ffd89a8:	6013      	str	r3, [r2, #0]
2ffd89aa:	f7ff fe2f 	bl	2ffd860c <UART_SetConfig>
2ffd89ae:	2801      	cmp	r0, #1
2ffd89b0:	d016      	beq.n	2ffd89e0 <HAL_UART_Init+0x52>
2ffd89b2:	6b63      	ldr	r3, [r4, #52]	; 0x34
2ffd89b4:	b113      	cbz	r3, 2ffd89bc <HAL_UART_Init+0x2e>
2ffd89b6:	4620      	mov	r0, r4
2ffd89b8:	f7ff fe88 	bl	2ffd86cc <UART_AdvFeatureConfig>
2ffd89bc:	6823      	ldr	r3, [r4, #0]
2ffd89be:	4620      	mov	r0, r4
2ffd89c0:	e8bd 4010 	ldmia.w	sp!, {r4, lr}
2ffd89c4:	685a      	ldr	r2, [r3, #4]
2ffd89c6:	f422 4290 	bic.w	r2, r2, #18432	; 0x4800
2ffd89ca:	605a      	str	r2, [r3, #4]
2ffd89cc:	689a      	ldr	r2, [r3, #8]
2ffd89ce:	f022 022a 	bic.w	r2, r2, #42	; 0x2a
2ffd89d2:	609a      	str	r2, [r3, #8]
2ffd89d4:	681a      	ldr	r2, [r3, #0]
2ffd89d6:	f042 0201 	orr.w	r2, r2, #1
2ffd89da:	601a      	str	r2, [r3, #0]
2ffd89dc:	f7ff bfab 	b.w	2ffd8936 <UART_CheckIdleState>
2ffd89e0:	2001      	movs	r0, #1
2ffd89e2:	bd10      	pop	{r4, pc}

2ffd89e4 <set_reg>:
2ffd89e4:	b5f8      	push	{r3, r4, r5, r6, r7, lr}
2ffd89e6:	4b12      	ldr	r3, [pc, #72]	; (2ffd8a30 <set_reg+0x4c>)
2ffd89e8:	010c      	lsls	r4, r1, #4
2ffd89ea:	eb03 1101 	add.w	r1, r3, r1, lsl #4
2ffd89ee:	4423      	add	r3, r4
2ffd89f0:	68c9      	ldr	r1, [r1, #12]
2ffd89f2:	7a1d      	ldrb	r5, [r3, #8]
2ffd89f4:	685b      	ldr	r3, [r3, #4]
2ffd89f6:	2901      	cmp	r1, #1
2ffd89f8:	f04f 0100 	mov.w	r1, #0
2ffd89fc:	bf0c      	ite	eq
2ffd89fe:	6940      	ldreq	r0, [r0, #20]
2ffd8a00:	6900      	ldrne	r0, [r0, #16]
2ffd8a02:	42a9      	cmp	r1, r5
2ffd8a04:	d300      	bcc.n	2ffd8a08 <set_reg+0x24>
2ffd8a06:	bdf8      	pop	{r3, r4, r5, r6, r7, pc}
2ffd8a08:	889e      	ldrh	r6, [r3, #4]
2ffd8a0a:	461f      	mov	r7, r3
2ffd8a0c:	3308      	adds	r3, #8
2ffd8a0e:	f813 4c02 	ldrb.w	r4, [r3, #-2]
2ffd8a12:	2cff      	cmp	r4, #255	; 0xff
2ffd8a14:	d107      	bne.n	2ffd8a26 <set_reg+0x42>
2ffd8a16:	6839      	ldr	r1, [r7, #0]
2ffd8a18:	4806      	ldr	r0, [pc, #24]	; (2ffd8a34 <set_reg+0x50>)
2ffd8a1a:	f002 fbdb 	bl	2ffdb1d4 <tf_log>
2ffd8a1e:	f002 fc77 	bl	2ffdb310 <console_flush>
2ffd8a22:	f7fd ec1e 	blx	2ffd6260 <do_panic>
2ffd8a26:	5914      	ldr	r4, [r2, r4]
2ffd8a28:	3101      	adds	r1, #1
2ffd8a2a:	5034      	str	r4, [r6, r0]
2ffd8a2c:	e7e9      	b.n	2ffd8a02 <set_reg+0x1e>
2ffd8a2e:	bf00      	nop
2ffd8a30:	2ffe2c3c 	.word	0x2ffe2c3c
2ffd8a34:	2ffe2760 	.word	0x2ffe2760

2ffd8a38 <board_ddr_power_init>:
2ffd8a38:	b510      	push	{r4, lr}
2ffd8a3a:	4604      	mov	r4, r0
2ffd8a3c:	f007 f8d2 	bl	2ffdfbe4 <dt_pmic_status>
2ffd8a40:	2800      	cmp	r0, #0
2ffd8a42:	dd04      	ble.n	2ffd8a4e <board_ddr_power_init+0x16>
2ffd8a44:	4620      	mov	r0, r4
2ffd8a46:	e8bd 4010 	ldmia.w	sp!, {r4, lr}
2ffd8a4a:	f007 b9dd 	b.w	2ffdfe08 <pmic_ddr_power_init>
2ffd8a4e:	2000      	movs	r0, #0
2ffd8a50:	bd10      	pop	{r4, pc}

2ffd8a52 <stm32mp1_mode_register_write.isra.0>:
2ffd8a52:	6983      	ldr	r3, [r0, #24]
2ffd8a54:	07db      	lsls	r3, r3, #31
2ffd8a56:	d4fc      	bmi.n	2ffd8a52 <stm32mp1_mode_register_write.isra.0>
2ffd8a58:	0309      	lsls	r1, r1, #12
2ffd8a5a:	f041 0310 	orr.w	r3, r1, #16
2ffd8a5e:	f041 4100 	orr.w	r1, r1, #2147483648	; 0x80000000
2ffd8a62:	6103      	str	r3, [r0, #16]
2ffd8a64:	f041 0110 	orr.w	r1, r1, #16
2ffd8a68:	6142      	str	r2, [r0, #20]
2ffd8a6a:	6101      	str	r1, [r0, #16]
2ffd8a6c:	6983      	ldr	r3, [r0, #24]
2ffd8a6e:	07db      	lsls	r3, r3, #31
2ffd8a70:	d4fc      	bmi.n	2ffd8a6c <stm32mp1_mode_register_write.isra.0+0x1a>
2ffd8a72:	4770      	bx	lr

2ffd8a74 <stm32mp1_wait_sw_done_ack>:
2ffd8a74:	f8d0 3320 	ldr.w	r3, [r0, #800]	; 0x320
2ffd8a78:	e92d 43d0 	stmdb	sp!, {r4, r6, r7, r8, r9, lr}
2ffd8a7c:	f043 0301 	orr.w	r3, r3, #1
2ffd8a80:	f8c0 3320 	str.w	r3, [r0, #800]	; 0x320
2ffd8a84:	4604      	mov	r4, r0
2ffd8a86:	ee1e 0f10 	mrc	15, 0, r0, cr14, cr0, {0}
2ffd8a8a:	ec57 6f0e 	mrrc	15, 0, r6, r7, cr14
2ffd8a8e:	490d      	ldr	r1, [pc, #52]	; (2ffd8ac4 <stm32mp1_wait_sw_done_ack+0x50>)
2ffd8a90:	2300      	movs	r3, #0
2ffd8a92:	4a0c      	ldr	r2, [pc, #48]	; (2ffd8ac4 <stm32mp1_wait_sw_done_ack+0x50>)
2ffd8a94:	fba0 0101 	umull	r0, r1, r0, r1
2ffd8a98:	f008 e868 	blx	2ffe0b6c <__aeabi_uldivmod>
2ffd8a9c:	eb10 0806 	adds.w	r8, r0, r6
2ffd8aa0:	eb41 0907 	adc.w	r9, r1, r7
2ffd8aa4:	f8d4 3324 	ldr.w	r3, [r4, #804]	; 0x324
2ffd8aa8:	ec51 0f0e 	mrrc	15, 0, r0, r1, cr14
2ffd8aac:	4589      	cmp	r9, r1
2ffd8aae:	bf08      	it	eq
2ffd8ab0:	4580      	cmpeq	r8, r0
2ffd8ab2:	d203      	bcs.n	2ffd8abc <stm32mp1_wait_sw_done_ack+0x48>
2ffd8ab4:	f002 fc2c 	bl	2ffdb310 <console_flush>
2ffd8ab8:	f7fd ebd2 	blx	2ffd6260 <do_panic>
2ffd8abc:	07db      	lsls	r3, r3, #31
2ffd8abe:	d5f1      	bpl.n	2ffd8aa4 <stm32mp1_wait_sw_done_ack+0x30>
2ffd8ac0:	e8bd 83d0 	ldmia.w	sp!, {r4, r6, r7, r8, r9, pc}
2ffd8ac4:	000f4240 	.word	0x000f4240

2ffd8ac8 <stm32mp1_wait_operating_mode.isra.0>:
2ffd8ac8:	e92d 43f8 	stmdb	sp!, {r3, r4, r5, r6, r7, r8, r9, lr}
2ffd8acc:	4605      	mov	r5, r0
2ffd8ace:	460c      	mov	r4, r1
2ffd8ad0:	ee1e 0f10 	mrc	15, 0, r0, cr14, cr0, {0}
2ffd8ad4:	ec59 8f0e 	mrrc	15, 0, r8, r9, cr14
2ffd8ad8:	4915      	ldr	r1, [pc, #84]	; (2ffd8b30 <stm32mp1_wait_operating_mode.isra.0+0x68>)
2ffd8ada:	2300      	movs	r3, #0
2ffd8adc:	4a14      	ldr	r2, [pc, #80]	; (2ffd8b30 <stm32mp1_wait_operating_mode.isra.0+0x68>)
2ffd8ade:	fba0 0101 	umull	r0, r1, r0, r1
2ffd8ae2:	f008 e844 	blx	2ffe0b6c <__aeabi_uldivmod>
2ffd8ae6:	eb10 0608 	adds.w	r6, r0, r8
2ffd8aea:	eb41 0709 	adc.w	r7, r1, r9
2ffd8aee:	6829      	ldr	r1, [r5, #0]
2ffd8af0:	684b      	ldr	r3, [r1, #4]
2ffd8af2:	f003 0207 	and.w	r2, r3, #7
2ffd8af6:	f003 0330 	and.w	r3, r3, #48	; 0x30
2ffd8afa:	ec59 8f0e 	mrrc	15, 0, r8, r9, cr14
2ffd8afe:	454f      	cmp	r7, r9
2ffd8b00:	bf08      	it	eq
2ffd8b02:	4546      	cmpeq	r6, r8
2ffd8b04:	d203      	bcs.n	2ffd8b0e <stm32mp1_wait_operating_mode.isra.0+0x46>
2ffd8b06:	f002 fc03 	bl	2ffdb310 <console_flush>
2ffd8b0a:	f7fd ebaa 	blx	2ffd6260 <do_panic>
2ffd8b0e:	2c03      	cmp	r4, #3
2ffd8b10:	d105      	bne.n	2ffd8b1e <stm32mp1_wait_operating_mode.isra.0+0x56>
2ffd8b12:	2a03      	cmp	r2, #3
2ffd8b14:	d1ec      	bne.n	2ffd8af0 <stm32mp1_wait_operating_mode.isra.0+0x28>
2ffd8b16:	2b20      	cmp	r3, #32
2ffd8b18:	d1ea      	bne.n	2ffd8af0 <stm32mp1_wait_operating_mode.isra.0+0x28>
2ffd8b1a:	e8bd 83f8 	ldmia.w	sp!, {r3, r4, r5, r6, r7, r8, r9, pc}
2ffd8b1e:	42a2      	cmp	r2, r4
2ffd8b20:	d0fb      	beq.n	2ffd8b1a <stm32mp1_wait_operating_mode.isra.0+0x52>
2ffd8b22:	2c01      	cmp	r4, #1
2ffd8b24:	d1e4      	bne.n	2ffd8af0 <stm32mp1_wait_operating_mode.isra.0+0x28>
2ffd8b26:	2a03      	cmp	r2, #3
2ffd8b28:	d1e2      	bne.n	2ffd8af0 <stm32mp1_wait_operating_mode.isra.0+0x28>
2ffd8b2a:	2b30      	cmp	r3, #48	; 0x30
2ffd8b2c:	e7f4      	b.n	2ffd8b18 <stm32mp1_wait_operating_mode.isra.0+0x50>
2ffd8b2e:	bf00      	nop
2ffd8b30:	000f4240 	.word	0x000f4240

2ffd8b34 <stm32mp1_ddrphy_idone_wait>:
2ffd8b34:	e92d 4370 	stmdb	sp!, {r4, r5, r6, r8, r9, lr}
2ffd8b38:	4606      	mov	r6, r0
2ffd8b3a:	ee1e 0f10 	mrc	15, 0, r0, cr14, cr0, {0}
2ffd8b3e:	ec59 8f0e 	mrrc	15, 0, r8, r9, cr14
2ffd8b42:	4914      	ldr	r1, [pc, #80]	; (2ffd8b94 <stm32mp1_ddrphy_idone_wait+0x60>)
2ffd8b44:	2300      	movs	r3, #0
2ffd8b46:	4a13      	ldr	r2, [pc, #76]	; (2ffd8b94 <stm32mp1_ddrphy_idone_wait+0x60>)
2ffd8b48:	fba0 0101 	umull	r0, r1, r0, r1
2ffd8b4c:	f008 e80e 	blx	2ffe0b6c <__aeabi_uldivmod>
2ffd8b50:	eb10 0408 	adds.w	r4, r0, r8
2ffd8b54:	eb41 0509 	adc.w	r5, r1, r9
2ffd8b58:	68f3      	ldr	r3, [r6, #12]
2ffd8b5a:	ec51 0f0e 	mrrc	15, 0, r0, r1, cr14
2ffd8b5e:	428d      	cmp	r5, r1
2ffd8b60:	bf08      	it	eq
2ffd8b62:	4284      	cmpeq	r4, r0
2ffd8b64:	d203      	bcs.n	2ffd8b6e <stm32mp1_ddrphy_idone_wait+0x3a>
2ffd8b66:	f002 fbd3 	bl	2ffdb310 <console_flush>
2ffd8b6a:	f7fd eb7a 	blx	2ffd6260 <do_panic>
2ffd8b6e:	f3c3 1240 	ubfx	r2, r3, #5, #1
2ffd8b72:	0658      	lsls	r0, r3, #25
2ffd8b74:	bf48      	it	mi
2ffd8b76:	3201      	addmi	r2, #1
2ffd8b78:	0619      	lsls	r1, r3, #24
2ffd8b7a:	bf48      	it	mi
2ffd8b7c:	3201      	addmi	r2, #1
2ffd8b7e:	05d8      	lsls	r0, r3, #23
2ffd8b80:	bf48      	it	mi
2ffd8b82:	3201      	addmi	r2, #1
2ffd8b84:	0599      	lsls	r1, r3, #22
2ffd8b86:	d403      	bmi.n	2ffd8b90 <stm32mp1_ddrphy_idone_wait+0x5c>
2ffd8b88:	f003 0301 	and.w	r3, r3, #1
2ffd8b8c:	4313      	orrs	r3, r2
2ffd8b8e:	d0e3      	beq.n	2ffd8b58 <stm32mp1_ddrphy_idone_wait+0x24>
2ffd8b90:	e8bd 8370 	ldmia.w	sp!, {r4, r5, r6, r8, r9, pc}
2ffd8b94:	000f4240 	.word	0x000f4240

2ffd8b98 <stm32mp1_ddr_init>:
2ffd8b98:	68cb      	ldr	r3, [r1, #12]
2ffd8b9a:	e92d 4ff7 	stmdb	sp!, {r0, r1, r2, r4, r5, r6, r7, r8, r9, sl, fp, lr}
2ffd8b9e:	460d      	mov	r5, r1
2ffd8ba0:	07d9      	lsls	r1, r3, #31
2ffd8ba2:	4604      	mov	r4, r0
2ffd8ba4:	d507      	bpl.n	2ffd8bb6 <stm32mp1_ddr_init+0x1e>
2ffd8ba6:	2000      	movs	r0, #0
2ffd8ba8:	f7ff ff46 	bl	2ffd8a38 <board_ddr_power_init>
2ffd8bac:	b190      	cbz	r0, 2ffd8bd4 <stm32mp1_ddr_init+0x3c>
2ffd8bae:	f002 fbaf 	bl	2ffdb310 <console_flush>
2ffd8bb2:	f7fd eb56 	blx	2ffd6260 <do_panic>
2ffd8bb6:	075a      	lsls	r2, r3, #29
2ffd8bb8:	d501      	bpl.n	2ffd8bbe <stm32mp1_ddr_init+0x26>
2ffd8bba:	2001      	movs	r0, #1
2ffd8bbc:	e7f4      	b.n	2ffd8ba8 <stm32mp1_ddr_init+0x10>
2ffd8bbe:	071f      	lsls	r7, r3, #28
2ffd8bc0:	d501      	bpl.n	2ffd8bc6 <stm32mp1_ddr_init+0x2e>
2ffd8bc2:	2002      	movs	r0, #2
2ffd8bc4:	e7f0      	b.n	2ffd8ba8 <stm32mp1_ddr_init+0x10>
2ffd8bc6:	4802      	ldr	r0, [pc, #8]	; (2ffd8bd0 <stm32mp1_ddr_init+0x38>)
2ffd8bc8:	f002 fb04 	bl	2ffdb1d4 <tf_log>
2ffd8bcc:	e7ef      	b.n	2ffd8bae <stm32mp1_ddr_init+0x16>
2ffd8bce:	bf00      	nop
2ffd8bd0:	2ffe2781 	.word	0x2ffe2781
2ffd8bd4:	69a3      	ldr	r3, [r4, #24]
2ffd8bd6:	f895 118d 	ldrb.w	r1, [r5, #397]	; 0x18d
2ffd8bda:	68da      	ldr	r2, [r3, #12]
2ffd8bdc:	f402 5280 	and.w	r2, r2, #4096	; 0x1000
2ffd8be0:	2900      	cmp	r1, #0
2ffd8be2:	f000 81e5 	beq.w	2ffd8fb0 <stm32mp1_ddr_init+0x418>
2ffd8be6:	b90a      	cbnz	r2, 2ffd8bec <stm32mp1_ddr_init+0x54>
2ffd8be8:	f885 018d 	strb.w	r0, [r5, #397]	; 0x18d
2ffd8bec:	69e3      	ldr	r3, [r4, #28]
2ffd8bee:	4620      	mov	r0, r4
2ffd8bf0:	f8d3 20d8 	ldr.w	r2, [r3, #216]	; 0xd8
2ffd8bf4:	f442 4280 	orr.w	r2, r2, #16384	; 0x4000
2ffd8bf8:	f8c3 20d8 	str.w	r2, [r3, #216]	; 0xd8
2ffd8bfc:	f8d3 20d8 	ldr.w	r2, [r3, #216]	; 0xd8
2ffd8c00:	f442 4200 	orr.w	r2, r2, #32768	; 0x8000
2ffd8c04:	f8c3 20d8 	str.w	r2, [r3, #216]	; 0xd8
2ffd8c08:	f8d3 20d8 	ldr.w	r2, [r3, #216]	; 0xd8
2ffd8c0c:	f442 3280 	orr.w	r2, r2, #65536	; 0x10000
2ffd8c10:	f8c3 20d8 	str.w	r2, [r3, #216]	; 0xd8
2ffd8c14:	f8d3 20d8 	ldr.w	r2, [r3, #216]	; 0xd8
2ffd8c18:	f442 3200 	orr.w	r2, r2, #131072	; 0x20000
2ffd8c1c:	f8c3 20d8 	str.w	r2, [r3, #216]	; 0xd8
2ffd8c20:	f8d3 20d8 	ldr.w	r2, [r3, #216]	; 0xd8
2ffd8c24:	f442 2280 	orr.w	r2, r2, #262144	; 0x40000
2ffd8c28:	f8c3 20d8 	str.w	r2, [r3, #216]	; 0xd8
2ffd8c2c:	f8d3 20d8 	ldr.w	r2, [r3, #216]	; 0xd8
2ffd8c30:	f442 2200 	orr.w	r2, r2, #524288	; 0x80000
2ffd8c34:	f8c3 20d8 	str.w	r2, [r3, #216]	; 0xd8
2ffd8c38:	6869      	ldr	r1, [r5, #4]
2ffd8c3a:	f000 fbd3 	bl	2ffd93e4 <stm32mp1_ddr_clk_enable>
2ffd8c3e:	4606      	mov	r6, r0
2ffd8c40:	2800      	cmp	r0, #0
2ffd8c42:	d1b4      	bne.n	2ffd8bae <stm32mp1_ddr_init+0x16>
2ffd8c44:	69e3      	ldr	r3, [r4, #28]
2ffd8c46:	2002      	movs	r0, #2
2ffd8c48:	f8d3 20d8 	ldr.w	r2, [r3, #216]	; 0xd8
2ffd8c4c:	f422 2280 	bic.w	r2, r2, #262144	; 0x40000
2ffd8c50:	f8c3 20d8 	str.w	r2, [r3, #216]	; 0xd8
2ffd8c54:	f8d3 20d8 	ldr.w	r2, [r3, #216]	; 0xd8
2ffd8c58:	f422 2200 	bic.w	r2, r2, #524288	; 0x80000
2ffd8c5c:	f8c3 20d8 	str.w	r2, [r3, #216]	; 0xd8
2ffd8c60:	f8d3 20d8 	ldr.w	r2, [r3, #216]	; 0xd8
2ffd8c64:	f422 4280 	bic.w	r2, r2, #16384	; 0x4000
2ffd8c68:	f8c3 20d8 	str.w	r2, [r3, #216]	; 0xd8
2ffd8c6c:	f003 feea 	bl	2ffdca44 <udelay>
2ffd8c70:	6922      	ldr	r2, [r4, #16]
2ffd8c72:	4631      	mov	r1, r6
2ffd8c74:	4620      	mov	r0, r4
2ffd8c76:	f8d2 31b0 	ldr.w	r3, [r2, #432]	; 0x1b0
2ffd8c7a:	f023 0301 	bic.w	r3, r3, #1
2ffd8c7e:	f8c2 31b0 	str.w	r3, [r2, #432]	; 0x1b0
2ffd8c82:	f105 020c 	add.w	r2, r5, #12
2ffd8c86:	f7ff fead 	bl	2ffd89e4 <set_reg>
2ffd8c8a:	68ea      	ldr	r2, [r5, #12]
2ffd8c8c:	f248 0301 	movw	r3, #32769	; 0x8001
2ffd8c90:	2101      	movs	r1, #1
2ffd8c92:	4620      	mov	r0, r4
2ffd8c94:	4393      	bics	r3, r2
2ffd8c96:	bf01      	itttt	eq
2ffd8c98:	6922      	ldreq	r2, [r4, #16]
2ffd8c9a:	6813      	ldreq	r3, [r2, #0]
2ffd8c9c:	f423 4300 	biceq.w	r3, r3, #32768	; 0x8000
2ffd8ca0:	6013      	streq	r3, [r2, #0]
2ffd8ca2:	f105 0270 	add.w	r2, r5, #112	; 0x70
2ffd8ca6:	f7ff fe9d 	bl	2ffd89e4 <set_reg>
2ffd8caa:	f105 02a0 	add.w	r2, r5, #160	; 0xa0
2ffd8cae:	2103      	movs	r1, #3
2ffd8cb0:	4620      	mov	r0, r4
2ffd8cb2:	f7ff fe97 	bl	2ffd89e4 <set_reg>
2ffd8cb6:	f895 318d 	ldrb.w	r3, [r5, #397]	; 0x18d
2ffd8cba:	6922      	ldr	r2, [r4, #16]
2ffd8cbc:	b11b      	cbz	r3, 2ffd8cc6 <stm32mp1_ddr_init+0x12e>
2ffd8cbe:	6b13      	ldr	r3, [r2, #48]	; 0x30
2ffd8cc0:	f043 0320 	orr.w	r3, r3, #32
2ffd8cc4:	6313      	str	r3, [r2, #48]	; 0x30
2ffd8cc6:	f8d2 30d0 	ldr.w	r3, [r2, #208]	; 0xd0
2ffd8cca:	2102      	movs	r1, #2
2ffd8ccc:	4620      	mov	r0, r4
2ffd8cce:	f023 4340 	bic.w	r3, r3, #3221225472	; 0xc0000000
2ffd8cd2:	f043 4380 	orr.w	r3, r3, #1073741824	; 0x40000000
2ffd8cd6:	f8c2 30d0 	str.w	r3, [r2, #208]	; 0xd0
2ffd8cda:	f105 02c4 	add.w	r2, r5, #196	; 0xc4
2ffd8cde:	f7ff fe81 	bl	2ffd89e4 <set_reg>
2ffd8ce2:	69e3      	ldr	r3, [r4, #28]
2ffd8ce4:	2104      	movs	r1, #4
2ffd8ce6:	4620      	mov	r0, r4
2ffd8ce8:	f8d3 20d8 	ldr.w	r2, [r3, #216]	; 0xd8
2ffd8cec:	f422 3280 	bic.w	r2, r2, #65536	; 0x10000
2ffd8cf0:	f8c3 20d8 	str.w	r2, [r3, #216]	; 0xd8
2ffd8cf4:	f8d3 20d8 	ldr.w	r2, [r3, #216]	; 0xd8
2ffd8cf8:	f422 4200 	bic.w	r2, r2, #32768	; 0x8000
2ffd8cfc:	f8c3 20d8 	str.w	r2, [r3, #216]	; 0xd8
2ffd8d00:	f8d3 20d8 	ldr.w	r2, [r3, #216]	; 0xd8
2ffd8d04:	f422 3200 	bic.w	r2, r2, #131072	; 0x20000
2ffd8d08:	f8c3 20d8 	str.w	r2, [r3, #216]	; 0xd8
2ffd8d0c:	f505 7284 	add.w	r2, r5, #264	; 0x108
2ffd8d10:	f7ff fe68 	bl	2ffd89e4 <set_reg>
2ffd8d14:	f505 729a 	add.w	r2, r5, #308	; 0x134
2ffd8d18:	2105      	movs	r1, #5
2ffd8d1a:	4620      	mov	r0, r4
2ffd8d1c:	f7ff fe62 	bl	2ffd89e4 <set_reg>
2ffd8d20:	f895 318c 	ldrb.w	r3, [r5, #396]	; 0x18c
2ffd8d24:	b12b      	cbz	r3, 2ffd8d32 <stm32mp1_ddr_init+0x19a>
2ffd8d26:	f505 72ae 	add.w	r2, r5, #348	; 0x15c
2ffd8d2a:	2106      	movs	r1, #6
2ffd8d2c:	4620      	mov	r0, r4
2ffd8d2e:	f7ff fe59 	bl	2ffd89e4 <set_reg>
2ffd8d32:	68ea      	ldr	r2, [r5, #12]
2ffd8d34:	f248 0301 	movw	r3, #32769	; 0x8001
2ffd8d38:	6960      	ldr	r0, [r4, #20]
2ffd8d3a:	4393      	bics	r3, r2
2ffd8d3c:	bf02      	ittt	eq
2ffd8d3e:	6c43      	ldreq	r3, [r0, #68]	; 0x44
2ffd8d40:	f023 0301 	biceq.w	r3, r3, #1
2ffd8d44:	6443      	streq	r3, [r0, #68]	; 0x44
2ffd8d46:	f7ff fef5 	bl	2ffd8b34 <stm32mp1_ddrphy_idone_wait>
2ffd8d4a:	68eb      	ldr	r3, [r5, #12]
2ffd8d4c:	4ac4      	ldr	r2, [pc, #784]	; (2ffd9060 <stm32mp1_ddr_init+0x4c8>)
2ffd8d4e:	f013 0f01 	tst.w	r3, #1
2ffd8d52:	4bc4      	ldr	r3, [pc, #784]	; (2ffd9064 <stm32mp1_ddr_init+0x4cc>)
2ffd8d54:	bf18      	it	ne
2ffd8d56:	4613      	movne	r3, r2
2ffd8d58:	f895 218d 	ldrb.w	r2, [r5, #397]	; 0x18d
2ffd8d5c:	b10a      	cbz	r2, 2ffd8d62 <stm32mp1_ddr_init+0x1ca>
2ffd8d5e:	f043 4380 	orr.w	r3, r3, #1073741824	; 0x40000000
2ffd8d62:	6966      	ldr	r6, [r4, #20]
2ffd8d64:	f043 0301 	orr.w	r3, r3, #1
2ffd8d68:	200a      	movs	r0, #10
2ffd8d6a:	6073      	str	r3, [r6, #4]
2ffd8d6c:	f003 fe6a 	bl	2ffdca44 <udelay>
2ffd8d70:	4630      	mov	r0, r6
2ffd8d72:	f7ff fedf 	bl	2ffd8b34 <stm32mp1_ddrphy_idone_wait>
2ffd8d76:	f895 318d 	ldrb.w	r3, [r5, #397]	; 0x18d
2ffd8d7a:	b333      	cbz	r3, 2ffd8dca <stm32mp1_ddr_init+0x232>
2ffd8d7c:	6966      	ldr	r6, [r4, #20]
2ffd8d7e:	200a      	movs	r0, #10
2ffd8d80:	f8d5 1190 	ldr.w	r1, [r5, #400]	; 0x190
2ffd8d84:	f8d6 2180 	ldr.w	r2, [r6, #384]	; 0x180
2ffd8d88:	f042 5280 	orr.w	r2, r2, #268435456	; 0x10000000
2ffd8d8c:	f8c6 2180 	str.w	r2, [r6, #384]	; 0x180
2ffd8d90:	f8d6 3180 	ldr.w	r3, [r6, #384]	; 0x180
2ffd8d94:	f003 4370 	and.w	r3, r3, #4026531840	; 0xf0000000
2ffd8d98:	430b      	orrs	r3, r1
2ffd8d9a:	f8c6 3180 	str.w	r3, [r6, #384]	; 0x180
2ffd8d9e:	69a3      	ldr	r3, [r4, #24]
2ffd8da0:	68da      	ldr	r2, [r3, #12]
2ffd8da2:	f442 6200 	orr.w	r2, r2, #2048	; 0x800
2ffd8da6:	60da      	str	r2, [r3, #12]
2ffd8da8:	68da      	ldr	r2, [r3, #12]
2ffd8daa:	f422 5280 	bic.w	r2, r2, #4096	; 0x1000
2ffd8dae:	60da      	str	r2, [r3, #12]
2ffd8db0:	f8d6 3180 	ldr.w	r3, [r6, #384]	; 0x180
2ffd8db4:	f023 5380 	bic.w	r3, r3, #268435456	; 0x10000000
2ffd8db8:	f8c6 3180 	str.w	r3, [r6, #384]	; 0x180
2ffd8dbc:	2309      	movs	r3, #9
2ffd8dbe:	6073      	str	r3, [r6, #4]
2ffd8dc0:	f003 fe40 	bl	2ffdca44 <udelay>
2ffd8dc4:	4630      	mov	r0, r6
2ffd8dc6:	f7ff feb5 	bl	2ffd8b34 <stm32mp1_ddrphy_idone_wait>
2ffd8dca:	6920      	ldr	r0, [r4, #16]
2ffd8dcc:	f8d0 3320 	ldr.w	r3, [r0, #800]	; 0x320
2ffd8dd0:	f023 0301 	bic.w	r3, r3, #1
2ffd8dd4:	f8c0 3320 	str.w	r3, [r0, #800]	; 0x320
2ffd8dd8:	f8d0 31b0 	ldr.w	r3, [r0, #432]	; 0x1b0
2ffd8ddc:	f043 0301 	orr.w	r3, r3, #1
2ffd8de0:	f8c0 31b0 	str.w	r3, [r0, #432]	; 0x1b0
2ffd8de4:	f7ff fe46 	bl	2ffd8a74 <stm32mp1_wait_sw_done_ack>
2ffd8de8:	f895 318d 	ldrb.w	r3, [r5, #397]	; 0x18d
2ffd8dec:	b123      	cbz	r3, 2ffd8df8 <stm32mp1_ddr_init+0x260>
2ffd8dee:	6922      	ldr	r2, [r4, #16]
2ffd8df0:	6b13      	ldr	r3, [r2, #48]	; 0x30
2ffd8df2:	f023 0320 	bic.w	r3, r3, #32
2ffd8df6:	6313      	str	r3, [r2, #48]	; 0x30
2ffd8df8:	f104 0710 	add.w	r7, r4, #16
2ffd8dfc:	2101      	movs	r1, #1
2ffd8dfe:	4638      	mov	r0, r7
2ffd8e00:	f7ff fe62 	bl	2ffd8ac8 <stm32mp1_wait_operating_mode.isra.0>
2ffd8e04:	68eb      	ldr	r3, [r5, #12]
2ffd8e06:	041e      	lsls	r6, r3, #16
2ffd8e08:	d572      	bpl.n	2ffd8ef0 <stm32mp1_ddr_init+0x358>
2ffd8e0a:	6963      	ldr	r3, [r4, #20]
2ffd8e0c:	6920      	ldr	r0, [r4, #16]
2ffd8e0e:	6c5e      	ldr	r6, [r3, #68]	; 0x44
2ffd8e10:	f8d3 8048 	ldr.w	r8, [r3, #72]	; 0x48
2ffd8e14:	f8d0 3304 	ldr.w	r3, [r0, #772]	; 0x304
2ffd8e18:	4a93      	ldr	r2, [pc, #588]	; (2ffd9068 <stm32mp1_ddr_init+0x4d0>)
2ffd8e1a:	f043 0302 	orr.w	r3, r3, #2
2ffd8e1e:	f8c0 3304 	str.w	r3, [r0, #772]	; 0x304
2ffd8e22:	f8d0 3308 	ldr.w	r3, [r0, #776]	; 0x308
2ffd8e26:	4013      	ands	r3, r2
2ffd8e28:	f1b3 5f40 	cmp.w	r3, #805306368	; 0x30000000
2ffd8e2c:	d0f9      	beq.n	2ffd8e22 <stm32mp1_ddr_init+0x28a>
2ffd8e2e:	f426 7611 	bic.w	r6, r6, #580	; 0x244
2ffd8e32:	2101      	movs	r1, #1
2ffd8e34:	4632      	mov	r2, r6
2ffd8e36:	f7ff fe0c 	bl	2ffd8a52 <stm32mp1_mode_register_write.isra.0>
2ffd8e3a:	f428 62c0 	bic.w	r2, r8, #1536	; 0x600
2ffd8e3e:	2102      	movs	r1, #2
2ffd8e40:	6920      	ldr	r0, [r4, #16]
2ffd8e42:	f7ff fe06 	bl	2ffd8a52 <stm32mp1_mode_register_write.isra.0>
2ffd8e46:	6920      	ldr	r0, [r4, #16]
2ffd8e48:	f046 0201 	orr.w	r2, r6, #1
2ffd8e4c:	2101      	movs	r1, #1
2ffd8e4e:	f7ff fe00 	bl	2ffd8a52 <stm32mp1_mode_register_write.isra.0>
2ffd8e52:	6922      	ldr	r2, [r4, #16]
2ffd8e54:	2103      	movs	r1, #3
2ffd8e56:	4638      	mov	r0, r7
2ffd8e58:	6b13      	ldr	r3, [r2, #48]	; 0x30
2ffd8e5a:	f043 0320 	orr.w	r3, r3, #32
2ffd8e5e:	6313      	str	r3, [r2, #48]	; 0x30
2ffd8e60:	f7ff fe32 	bl	2ffd8ac8 <stm32mp1_wait_operating_mode.isra.0>
2ffd8e64:	6920      	ldr	r0, [r4, #16]
2ffd8e66:	f8d0 3320 	ldr.w	r3, [r0, #800]	; 0x320
2ffd8e6a:	f023 0301 	bic.w	r3, r3, #1
2ffd8e6e:	f8c0 3320 	str.w	r3, [r0, #800]	; 0x320
2ffd8e72:	6803      	ldr	r3, [r0, #0]
2ffd8e74:	f443 4300 	orr.w	r3, r3, #32768	; 0x8000
2ffd8e78:	6003      	str	r3, [r0, #0]
2ffd8e7a:	f7ff fdfb 	bl	2ffd8a74 <stm32mp1_wait_sw_done_ack>
2ffd8e7e:	20e0      	movs	r0, #224	; 0xe0
2ffd8e80:	f004 ffa9 	bl	2ffdddd6 <stm32mp_clk_get_rate>
2ffd8e84:	4b79      	ldr	r3, [pc, #484]	; (2ffd906c <stm32mp1_ddr_init+0x4d4>)
2ffd8e86:	2101      	movs	r1, #1
2ffd8e88:	4298      	cmp	r0, r3
2ffd8e8a:	4638      	mov	r0, r7
2ffd8e8c:	6963      	ldr	r3, [r4, #20]
2ffd8e8e:	691a      	ldr	r2, [r3, #16]
2ffd8e90:	bf94      	ite	ls
2ffd8e92:	f422 0200 	bicls.w	r2, r2, #8388608	; 0x800000
2ffd8e96:	f442 0200 	orrhi.w	r2, r2, #8388608	; 0x800000
2ffd8e9a:	611a      	str	r2, [r3, #16]
2ffd8e9c:	695a      	ldr	r2, [r3, #20]
2ffd8e9e:	f042 4200 	orr.w	r2, r2, #2147483648	; 0x80000000
2ffd8ea2:	615a      	str	r2, [r3, #20]
2ffd8ea4:	f8d3 21cc 	ldr.w	r2, [r3, #460]	; 0x1cc
2ffd8ea8:	f042 4200 	orr.w	r2, r2, #2147483648	; 0x80000000
2ffd8eac:	f8c3 21cc 	str.w	r2, [r3, #460]	; 0x1cc
2ffd8eb0:	f8d3 220c 	ldr.w	r2, [r3, #524]	; 0x20c
2ffd8eb4:	f042 4200 	orr.w	r2, r2, #2147483648	; 0x80000000
2ffd8eb8:	f8c3 220c 	str.w	r2, [r3, #524]	; 0x20c
2ffd8ebc:	f8d3 224c 	ldr.w	r2, [r3, #588]	; 0x24c
2ffd8ec0:	f042 4200 	orr.w	r2, r2, #2147483648	; 0x80000000
2ffd8ec4:	f8c3 224c 	str.w	r2, [r3, #588]	; 0x24c
2ffd8ec8:	f8d3 228c 	ldr.w	r2, [r3, #652]	; 0x28c
2ffd8ecc:	f042 4200 	orr.w	r2, r2, #2147483648	; 0x80000000
2ffd8ed0:	f8c3 228c 	str.w	r2, [r3, #652]	; 0x28c
2ffd8ed4:	6922      	ldr	r2, [r4, #16]
2ffd8ed6:	6b13      	ldr	r3, [r2, #48]	; 0x30
2ffd8ed8:	f023 0320 	bic.w	r3, r3, #32
2ffd8edc:	6313      	str	r3, [r2, #48]	; 0x30
2ffd8ede:	f7ff fdf3 	bl	2ffd8ac8 <stm32mp1_wait_operating_mode.isra.0>
2ffd8ee2:	6922      	ldr	r2, [r4, #16]
2ffd8ee4:	f8d2 3304 	ldr.w	r3, [r2, #772]	; 0x304
2ffd8ee8:	f023 0302 	bic.w	r3, r3, #2
2ffd8eec:	f8c2 3304 	str.w	r3, [r2, #772]	; 0x304
2ffd8ef0:	f895 b18c 	ldrb.w	fp, [r5, #396]	; 0x18c
2ffd8ef4:	f1bb 0f00 	cmp.w	fp, #0
2ffd8ef8:	d14a      	bne.n	2ffd8f90 <stm32mp1_ddr_init+0x3f8>
2ffd8efa:	6920      	ldr	r0, [r4, #16]
2ffd8efc:	ee1e 3f10 	mrc	15, 0, r3, cr14, cr0, {0}
2ffd8f00:	ec59 8f0e 	mrrc	15, 0, r8, r9, cr14
2ffd8f04:	f8d0 3320 	ldr.w	r3, [r0, #800]	; 0x320
2ffd8f08:	f023 0301 	bic.w	r3, r3, #1
2ffd8f0c:	f8c0 3320 	str.w	r3, [r0, #800]	; 0x320
2ffd8f10:	6e03      	ldr	r3, [r0, #96]	; 0x60
2ffd8f12:	f043 0301 	orr.w	r3, r3, #1
2ffd8f16:	6603      	str	r3, [r0, #96]	; 0x60
2ffd8f18:	6b03      	ldr	r3, [r0, #48]	; 0x30
2ffd8f1a:	f023 0303 	bic.w	r3, r3, #3
2ffd8f1e:	6303      	str	r3, [r0, #48]	; 0x30
2ffd8f20:	f8d0 31b0 	ldr.w	r3, [r0, #432]	; 0x1b0
2ffd8f24:	f023 0301 	bic.w	r3, r3, #1
2ffd8f28:	f8c0 31b0 	str.w	r3, [r0, #432]	; 0x1b0
2ffd8f2c:	f7ff fda2 	bl	2ffd8a74 <stm32mp1_wait_sw_done_ack>
2ffd8f30:	6966      	ldr	r6, [r4, #20]
2ffd8f32:	2381      	movs	r3, #129	; 0x81
2ffd8f34:	200a      	movs	r0, #10
2ffd8f36:	6073      	str	r3, [r6, #4]
2ffd8f38:	f003 fd84 	bl	2ffdca44 <udelay>
2ffd8f3c:	4630      	mov	r0, r6
2ffd8f3e:	f7ff fdf9 	bl	2ffd8b34 <stm32mp1_ddrphy_idone_wait>
2ffd8f42:	6960      	ldr	r0, [r4, #20]
2ffd8f44:	f7ff fdf6 	bl	2ffd8b34 <stm32mp1_ddrphy_idone_wait>
2ffd8f48:	f895 318d 	ldrb.w	r3, [r5, #397]	; 0x18d
2ffd8f4c:	6926      	ldr	r6, [r4, #16]
2ffd8f4e:	2b00      	cmp	r3, #0
2ffd8f50:	d13a      	bne.n	2ffd8fc8 <stm32mp1_ddr_init+0x430>
2ffd8f52:	6b29      	ldr	r1, [r5, #48]	; 0x30
2ffd8f54:	f8d6 3320 	ldr.w	r3, [r6, #800]	; 0x320
2ffd8f58:	6a2a      	ldr	r2, [r5, #32]
2ffd8f5a:	07cd      	lsls	r5, r1, #31
2ffd8f5c:	f023 0301 	bic.w	r3, r3, #1
2ffd8f60:	f8c6 3320 	str.w	r3, [r6, #800]	; 0x320
2ffd8f64:	d577      	bpl.n	2ffd9056 <stm32mp1_ddr_init+0x4be>
2ffd8f66:	0791      	lsls	r1, r2, #30
2ffd8f68:	4630      	mov	r0, r6
2ffd8f6a:	bf42      	ittt	mi
2ffd8f6c:	6b33      	ldrmi	r3, [r6, #48]	; 0x30
2ffd8f6e:	f043 0302 	orrmi.w	r3, r3, #2
2ffd8f72:	6333      	strmi	r3, [r6, #48]	; 0x30
2ffd8f74:	07d3      	lsls	r3, r2, #31
2ffd8f76:	bf42      	ittt	mi
2ffd8f78:	6b33      	ldrmi	r3, [r6, #48]	; 0x30
2ffd8f7a:	f043 0301 	orrmi.w	r3, r3, #1
2ffd8f7e:	6333      	strmi	r3, [r6, #48]	; 0x30
2ffd8f80:	f8d6 31b0 	ldr.w	r3, [r6, #432]	; 0x1b0
2ffd8f84:	f043 0301 	orr.w	r3, r3, #1
2ffd8f88:	f8c6 31b0 	str.w	r3, [r6, #432]	; 0x1b0
2ffd8f8c:	f7ff fd72 	bl	2ffd8a74 <stm32mp1_wait_sw_done_ack>
2ffd8f90:	6923      	ldr	r3, [r4, #16]
2ffd8f92:	f8d3 2490 	ldr.w	r2, [r3, #1168]	; 0x490
2ffd8f96:	f042 0201 	orr.w	r2, r2, #1
2ffd8f9a:	f8c3 2490 	str.w	r2, [r3, #1168]	; 0x490
2ffd8f9e:	f8d3 2540 	ldr.w	r2, [r3, #1344]	; 0x540
2ffd8fa2:	f042 0201 	orr.w	r2, r2, #1
2ffd8fa6:	f8c3 2540 	str.w	r2, [r3, #1344]	; 0x540
2ffd8faa:	b003      	add	sp, #12
2ffd8fac:	e8bd 8ff0 	ldmia.w	sp!, {r4, r5, r6, r7, r8, r9, sl, fp, pc}
2ffd8fb0:	2a00      	cmp	r2, #0
2ffd8fb2:	f43f ae1b 	beq.w	2ffd8bec <stm32mp1_ddr_init+0x54>
2ffd8fb6:	68da      	ldr	r2, [r3, #12]
2ffd8fb8:	f442 6200 	orr.w	r2, r2, #2048	; 0x800
2ffd8fbc:	60da      	str	r2, [r3, #12]
2ffd8fbe:	68da      	ldr	r2, [r3, #12]
2ffd8fc0:	f422 5280 	bic.w	r2, r2, #4096	; 0x1000
2ffd8fc4:	60da      	str	r2, [r3, #12]
2ffd8fc6:	e611      	b.n	2ffd8bec <stm32mp1_ddr_init+0x54>
2ffd8fc8:	ee1e 3f10 	mrc	15, 0, r3, cr14, cr0, {0}
2ffd8fcc:	ec53 2f0e 	mrrc	15, 0, r2, r3, cr14
2ffd8fd0:	e9cd 2300 	strd	r2, r3, [sp]
2ffd8fd4:	686b      	ldr	r3, [r5, #4]
2ffd8fd6:	4a26      	ldr	r2, [pc, #152]	; (2ffd9070 <stm32mp1_ddr_init+0x4d8>)
2ffd8fd8:	4293      	cmp	r3, r2
2ffd8fda:	d8ba      	bhi.n	2ffd8f52 <stm32mp1_ddr_init+0x3ba>
2ffd8fdc:	6e77      	ldr	r7, [r6, #100]	; 0x64
2ffd8fde:	f3c7 470b 	ubfx	r7, r7, #16, #12
2ffd8fe2:	ea4f 1c47 	mov.w	ip, r7, lsl #5
2ffd8fe6:	2f00      	cmp	r7, #0
2ffd8fe8:	d0b3      	beq.n	2ffd8f52 <stm32mp1_ddr_init+0x3ba>
2ffd8fea:	9900      	ldr	r1, [sp, #0]
2ffd8fec:	4667      	mov	r7, ip
2ffd8fee:	f8df c084 	ldr.w	ip, [pc, #132]	; 2ffd9074 <stm32mp1_ddr_init+0x4dc>
2ffd8ff2:	f04f 0a00 	mov.w	sl, #0
2ffd8ff6:	ebb1 0008 	subs.w	r0, r1, r8
2ffd8ffa:	9901      	ldr	r1, [sp, #4]
2ffd8ffc:	fbb2 f2f3 	udiv	r2, r2, r3
2ffd9000:	eb61 0e09 	sbc.w	lr, r1, r9
2ffd9004:	465b      	mov	r3, fp
2ffd9006:	fba0 010c 	umull	r0, r1, r0, ip
2ffd900a:	fb0c 110e 	mla	r1, ip, lr, r1
2ffd900e:	f007 edae 	blx	2ffe0b6c <__aeabi_uldivmod>
2ffd9012:	f117 3cff 	adds.w	ip, r7, #4294967295	; 0xffffffff
2ffd9016:	463a      	mov	r2, r7
2ffd9018:	f14a 3eff 	adc.w	lr, sl, #4294967295	; 0xffffffff
2ffd901c:	4653      	mov	r3, sl
2ffd901e:	eb10 000c 	adds.w	r0, r0, ip
2ffd9022:	eb41 010e 	adc.w	r1, r1, lr
2ffd9026:	f007 eda2 	blx	2ffe0b6c <__aeabi_uldivmod>
2ffd902a:	4680      	mov	r8, r0
2ffd902c:	4689      	mov	r9, r1
2ffd902e:	2200      	movs	r2, #0
2ffd9030:	2300      	movs	r3, #0
2ffd9032:	4599      	cmp	r9, r3
2ffd9034:	bf08      	it	eq
2ffd9036:	4590      	cmpeq	r8, r2
2ffd9038:	d08b      	beq.n	2ffd8f52 <stm32mp1_ddr_init+0x3ba>
2ffd903a:	f8d6 1310 	ldr.w	r1, [r6, #784]	; 0x310
2ffd903e:	07c8      	lsls	r0, r1, #31
2ffd9040:	d4fb      	bmi.n	2ffd903a <stm32mp1_ddr_init+0x4a2>
2ffd9042:	f8d6 130c 	ldr.w	r1, [r6, #780]	; 0x30c
2ffd9046:	3201      	adds	r2, #1
2ffd9048:	f143 0300 	adc.w	r3, r3, #0
2ffd904c:	f041 0101 	orr.w	r1, r1, #1
2ffd9050:	f8c6 130c 	str.w	r1, [r6, #780]	; 0x30c
2ffd9054:	e7ed      	b.n	2ffd9032 <stm32mp1_ddr_init+0x49a>
2ffd9056:	6e33      	ldr	r3, [r6, #96]	; 0x60
2ffd9058:	f023 0301 	bic.w	r3, r3, #1
2ffd905c:	6633      	str	r3, [r6, #96]	; 0x60
2ffd905e:	e782      	b.n	2ffd8f66 <stm32mp1_ddr_init+0x3ce>
2ffd9060:	0001007e 	.word	0x0001007e
2ffd9064:	0001005e 	.word	0x0001005e
2ffd9068:	34001f1f 	.word	0x34001f1f
2ffd906c:	05f5e0ff 	.word	0x05f5e0ff
2ffd9070:	3b9aca00 	.word	0x3b9aca00
2ffd9074:	000f4240 	.word	0x000f4240

2ffd9078 <stm32mp1_ddr_setup>:
2ffd9078:	e92d 4ff0 	stmdb	sp!, {r4, r5, r6, r7, r8, r9, sl, fp, lr}
2ffd907c:	f5ad 7d0d 	sub.w	sp, sp, #564	; 0x234
2ffd9080:	4ba5      	ldr	r3, [pc, #660]	; (2ffd9318 <stm32mp1_ddr_setup+0x2a0>)
2ffd9082:	2219      	movs	r2, #25
2ffd9084:	920d      	str	r2, [sp, #52]	; 0x34
2ffd9086:	2500      	movs	r5, #0
2ffd9088:	4aa4      	ldr	r2, [pc, #656]	; (2ffd931c <stm32mp1_ddr_setup+0x2a4>)
2ffd908a:	a80a      	add	r0, sp, #40	; 0x28
2ffd908c:	930b      	str	r3, [sp, #44]	; 0x2c
2ffd908e:	230c      	movs	r3, #12
2ffd9090:	920f      	str	r2, [sp, #60]	; 0x3c
2ffd9092:	2270      	movs	r2, #112	; 0x70
2ffd9094:	9210      	str	r2, [sp, #64]	; 0x40
2ffd9096:	4aa2      	ldr	r2, [pc, #648]	; (2ffd9320 <stm32mp1_ddr_setup+0x2a8>)
2ffd9098:	930c      	str	r3, [sp, #48]	; 0x30
2ffd909a:	9213      	str	r2, [sp, #76]	; 0x4c
2ffd909c:	22a0      	movs	r2, #160	; 0xa0
2ffd909e:	9214      	str	r2, [sp, #80]	; 0x50
2ffd90a0:	2209      	movs	r2, #9
2ffd90a2:	9215      	str	r2, [sp, #84]	; 0x54
2ffd90a4:	4a9f      	ldr	r2, [pc, #636]	; (2ffd9324 <stm32mp1_ddr_setup+0x2ac>)
2ffd90a6:	9311      	str	r3, [sp, #68]	; 0x44
2ffd90a8:	9217      	str	r2, [sp, #92]	; 0x5c
2ffd90aa:	22c4      	movs	r2, #196	; 0xc4
2ffd90ac:	9218      	str	r2, [sp, #96]	; 0x60
2ffd90ae:	2211      	movs	r2, #17
2ffd90b0:	9219      	str	r2, [sp, #100]	; 0x64
2ffd90b2:	4a9d      	ldr	r2, [pc, #628]	; (2ffd9328 <stm32mp1_ddr_setup+0x2b0>)
2ffd90b4:	9325      	str	r3, [sp, #148]	; 0x94
2ffd90b6:	ab8a      	add	r3, sp, #552	; 0x228
2ffd90b8:	921b      	str	r2, [sp, #108]	; 0x6c
2ffd90ba:	f44f 7284 	mov.w	r2, #264	; 0x108
2ffd90be:	921c      	str	r2, [sp, #112]	; 0x70
2ffd90c0:	220b      	movs	r2, #11
2ffd90c2:	921d      	str	r2, [sp, #116]	; 0x74
2ffd90c4:	4a99      	ldr	r2, [pc, #612]	; (2ffd932c <stm32mp1_ddr_setup+0x2b4>)
2ffd90c6:	950e      	str	r5, [sp, #56]	; 0x38
2ffd90c8:	921f      	str	r2, [sp, #124]	; 0x7c
2ffd90ca:	f44f 729a 	mov.w	r2, #308	; 0x134
2ffd90ce:	9220      	str	r2, [sp, #128]	; 0x80
2ffd90d0:	220a      	movs	r2, #10
2ffd90d2:	9221      	str	r2, [sp, #132]	; 0x84
2ffd90d4:	4a96      	ldr	r2, [pc, #600]	; (2ffd9330 <stm32mp1_ddr_setup+0x2b8>)
2ffd90d6:	9512      	str	r5, [sp, #72]	; 0x48
2ffd90d8:	9223      	str	r2, [sp, #140]	; 0x8c
2ffd90da:	f44f 72ae 	mov.w	r2, #348	; 0x15c
2ffd90de:	9516      	str	r5, [sp, #88]	; 0x58
2ffd90e0:	951a      	str	r5, [sp, #104]	; 0x68
2ffd90e2:	951e      	str	r5, [sp, #120]	; 0x78
2ffd90e4:	9522      	str	r5, [sp, #136]	; 0x88
2ffd90e6:	9224      	str	r2, [sp, #144]	; 0x90
2ffd90e8:	9326      	str	r3, [sp, #152]	; 0x98
2ffd90ea:	f007 f9b9 	bl	2ffe0460 <fdt_get_address>
2ffd90ee:	2800      	cmp	r0, #0
2ffd90f0:	f000 816d 	beq.w	2ffd93ce <stm32mp1_ddr_setup+0x356>
2ffd90f4:	488f      	ldr	r0, [pc, #572]	; (2ffd9334 <stm32mp1_ddr_setup+0x2bc>)
2ffd90f6:	f007 faaf 	bl	2ffe0658 <dt_get_node_by_compatible>
2ffd90fa:	1e06      	subs	r6, r0, #0
2ffd90fc:	da05      	bge.n	2ffd910a <stm32mp1_ddr_setup+0x92>
2ffd90fe:	f06f 0015 	mvn.w	r0, #21
2ffd9102:	f50d 7d0d 	add.w	sp, sp, #564	; 0x234
2ffd9106:	e8bd 8ff0 	ldmia.w	sp!, {r4, r5, r6, r7, r8, r9, sl, fp, pc}
2ffd910a:	498b      	ldr	r1, [pc, #556]	; (2ffd9338 <stm32mp1_ddr_setup+0x2c0>)
2ffd910c:	462a      	mov	r2, r5
2ffd910e:	f007 f9f5 	bl	2ffe04fc <fdt_read_uint32_default>
2ffd9112:	9028      	str	r0, [sp, #160]	; 0xa0
2ffd9114:	2800      	cmp	r0, #0
2ffd9116:	d0f2      	beq.n	2ffd90fe <stm32mp1_ddr_setup+0x86>
2ffd9118:	4988      	ldr	r1, [pc, #544]	; (2ffd933c <stm32mp1_ddr_setup+0x2c4>)
2ffd911a:	462a      	mov	r2, r5
2ffd911c:	4630      	mov	r0, r6
2ffd911e:	f007 f9ed 	bl	2ffe04fc <fdt_read_uint32_default>
2ffd9122:	9029      	str	r0, [sp, #164]	; 0xa4
2ffd9124:	2800      	cmp	r0, #0
2ffd9126:	d0ea      	beq.n	2ffd90fe <stm32mp1_ddr_setup+0x86>
2ffd9128:	4a85      	ldr	r2, [pc, #532]	; (2ffd9340 <stm32mp1_ddr_setup+0x2c8>)
2ffd912a:	4631      	mov	r1, r6
2ffd912c:	980a      	ldr	r0, [sp, #40]	; 0x28
2ffd912e:	ab09      	add	r3, sp, #36	; 0x24
2ffd9130:	f007 ffb5 	bl	2ffe109e <fdt_getprop>
2ffd9134:	9027      	str	r0, [sp, #156]	; 0x9c
2ffd9136:	4601      	mov	r1, r0
2ffd9138:	2800      	cmp	r0, #0
2ffd913a:	d0e0      	beq.n	2ffd90fe <stm32mp1_ddr_setup+0x86>
2ffd913c:	4881      	ldr	r0, [pc, #516]	; (2ffd9344 <stm32mp1_ddr_setup+0x2cc>)
2ffd913e:	ac0b      	add	r4, sp, #44	; 0x2c
2ffd9140:	462f      	mov	r7, r5
2ffd9142:	f04f 0a01 	mov.w	sl, #1
2ffd9146:	f002 f845 	bl	2ffdb1d4 <tf_log>
2ffd914a:	f8d4 b000 	ldr.w	fp, [r4]
2ffd914e:	a927      	add	r1, sp, #156	; 0x9c
2ffd9150:	6862      	ldr	r2, [r4, #4]
2ffd9152:	4630      	mov	r0, r6
2ffd9154:	68a3      	ldr	r3, [r4, #8]
2ffd9156:	440a      	add	r2, r1
2ffd9158:	4659      	mov	r1, fp
2ffd915a:	f007 f9e3 	bl	2ffe0524 <fdt_read_uint32_array>
2ffd915e:	4603      	mov	r3, r0
2ffd9160:	b148      	cbz	r0, 2ffd9176 <stm32mp1_ddr_setup+0xfe>
2ffd9162:	1c58      	adds	r0, r3, #1
2ffd9164:	d101      	bne.n	2ffd916a <stm32mp1_ddr_setup+0xf2>
2ffd9166:	68e2      	ldr	r2, [r4, #12]
2ffd9168:	b92a      	cbnz	r2, 2ffd9176 <stm32mp1_ddr_setup+0xfe>
2ffd916a:	4977      	ldr	r1, [pc, #476]	; (2ffd9348 <stm32mp1_ddr_setup+0x2d0>)
2ffd916c:	465a      	mov	r2, fp
2ffd916e:	4877      	ldr	r0, [pc, #476]	; (2ffd934c <stm32mp1_ddr_setup+0x2d4>)
2ffd9170:	f002 f830 	bl	2ffdb1d4 <tf_log>
2ffd9174:	e7c3      	b.n	2ffd90fe <stm32mp1_ddr_setup+0x86>
2ffd9176:	68e2      	ldr	r2, [r4, #12]
2ffd9178:	b122      	cbz	r2, 2ffd9184 <stm32mp1_ddr_setup+0x10c>
2ffd917a:	1c59      	adds	r1, r3, #1
2ffd917c:	bf0c      	ite	eq
2ffd917e:	463b      	moveq	r3, r7
2ffd9180:	4653      	movne	r3, sl
2ffd9182:	7013      	strb	r3, [r2, #0]
2ffd9184:	3501      	adds	r5, #1
2ffd9186:	3410      	adds	r4, #16
2ffd9188:	2d07      	cmp	r5, #7
2ffd918a:	d1de      	bne.n	2ffd914a <stm32mp1_ddr_setup+0xd2>
2ffd918c:	4c70      	ldr	r4, [pc, #448]	; (2ffd9350 <stm32mp1_ddr_setup+0x2d8>)
2ffd918e:	2300      	movs	r3, #0
2ffd9190:	4d70      	ldr	r5, [pc, #448]	; (2ffd9354 <stm32mp1_ddr_setup+0x2dc>)
2ffd9192:	2041      	movs	r0, #65	; 0x41
2ffd9194:	f88d 3229 	strb.w	r3, [sp, #553]	; 0x229
2ffd9198:	f004 fe14 	bl	2ffdddc4 <stm32mp_clk_enable>
2ffd919c:	6826      	ldr	r6, [r4, #0]
2ffd919e:	42ae      	cmp	r6, r5
2ffd91a0:	d105      	bne.n	2ffd91ae <stm32mp1_ddr_setup+0x136>
2ffd91a2:	2301      	movs	r3, #1
2ffd91a4:	f88d 3229 	strb.w	r3, [sp, #553]	; 0x229
2ffd91a8:	f007 fb8f 	bl	2ffe08ca <stm32_get_zdata_from_context>
2ffd91ac:	908b      	str	r0, [sp, #556]	; 0x22c
2ffd91ae:	4f6a      	ldr	r7, [pc, #424]	; (2ffd9358 <stm32mp1_ddr_setup+0x2e0>)
2ffd91b0:	2041      	movs	r0, #65	; 0x41
2ffd91b2:	f004 fe0a 	bl	2ffdddca <stm32mp_clk_disable>
2ffd91b6:	69fa      	ldr	r2, [r7, #28]
2ffd91b8:	a927      	add	r1, sp, #156	; 0x9c
2ffd91ba:	4638      	mov	r0, r7
2ffd91bc:	f8d2 30d8 	ldr.w	r3, [r2, #216]	; 0xd8
2ffd91c0:	f423 7380 	bic.w	r3, r3, #256	; 0x100
2ffd91c4:	f8c2 30d8 	str.w	r3, [r2, #216]	; 0xd8
2ffd91c8:	f7ff fce6 	bl	2ffd8b98 <stm32mp1_ddr_init>
2ffd91cc:	69fa      	ldr	r2, [r7, #28]
2ffd91ce:	42ae      	cmp	r6, r5
2ffd91d0:	f8d2 30d8 	ldr.w	r3, [r2, #216]	; 0xd8
2ffd91d4:	f443 7380 	orr.w	r3, r3, #256	; 0x100
2ffd91d8:	f8c2 30d8 	str.w	r3, [r2, #216]	; 0xd8
2ffd91dc:	d105      	bne.n	2ffd91ea <stm32mp1_ddr_setup+0x172>
2ffd91de:	f89d 3229 	ldrb.w	r3, [sp, #553]	; 0x229
2ffd91e2:	b913      	cbnz	r3, 2ffd91ea <stm32mp1_ddr_setup+0x172>
2ffd91e4:	4a5d      	ldr	r2, [pc, #372]	; (2ffd935c <stm32mp1_ddr_setup+0x2e4>)
2ffd91e6:	6013      	str	r3, [r2, #0]
2ffd91e8:	6023      	str	r3, [r4, #0]
2ffd91ea:	9b29      	ldr	r3, [sp, #164]	; 0xa4
2ffd91ec:	2500      	movs	r5, #0
2ffd91ee:	9307      	str	r3, [sp, #28]
2ffd91f0:	461c      	mov	r4, r3
2ffd91f2:	e9c7 3502 	strd	r3, r5, [r7, #8]
2ffd91f6:	f89d 3229 	ldrb.w	r3, [sp, #553]	; 0x229
2ffd91fa:	b1cb      	cbz	r3, 2ffd9230 <stm32mp1_ddr_setup+0x1b8>
2ffd91fc:	f04f 4140 	mov.w	r1, #3221225472	; 0xc0000000
2ffd9200:	f04f 32aa 	mov.w	r2, #2863311530	; 0xaaaaaaaa
2ffd9204:	680b      	ldr	r3, [r1, #0]
2ffd9206:	600a      	str	r2, [r1, #0]
2ffd9208:	680a      	ldr	r2, [r1, #0]
2ffd920a:	f1b2 3faa 	cmp.w	r2, #2863311530	; 0xaaaaaaaa
2ffd920e:	d006      	beq.n	2ffd921e <stm32mp1_ddr_setup+0x1a6>
2ffd9210:	4853      	ldr	r0, [pc, #332]	; (2ffd9360 <stm32mp1_ddr_setup+0x2e8>)
2ffd9212:	f001 ffdf 	bl	2ffdb1d4 <tf_log>
2ffd9216:	f002 f87b 	bl	2ffdb310 <console_flush>
2ffd921a:	f7fd e822 	blx	2ffd6260 <do_panic>
2ffd921e:	600b      	str	r3, [r1, #0]
2ffd9220:	f007 fb8a 	bl	2ffe0938 <stm32_restore_ddr_training_area>
2ffd9224:	f005 fae8 	bl	2ffde7f8 <ddr_read_sr_mode>
2ffd9228:	f005 faf2 	bl	2ffde810 <ddr_set_sr_mode>
2ffd922c:	2000      	movs	r0, #0
2ffd922e:	e768      	b.n	2ffd9102 <stm32mp1_ddr_setup+0x8a>
2ffd9230:	2220      	movs	r2, #32
2ffd9232:	2301      	movs	r3, #1
2ffd9234:	f04f 4140 	mov.w	r1, #3221225472	; 0xc0000000
2ffd9238:	600b      	str	r3, [r1, #0]
2ffd923a:	6808      	ldr	r0, [r1, #0]
2ffd923c:	4298      	cmp	r0, r3
2ffd923e:	f040 80c9 	bne.w	2ffd93d4 <stm32mp1_ddr_setup+0x35c>
2ffd9242:	005b      	lsls	r3, r3, #1
2ffd9244:	3a01      	subs	r2, #1
2ffd9246:	d1f7      	bne.n	2ffd9238 <stm32mp1_ddr_setup+0x1c0>
2ffd9248:	f114 34ff 	adds.w	r4, r4, #4294967295	; 0xffffffff
2ffd924c:	f04f 0304 	mov.w	r3, #4
2ffd9250:	f145 35ff 	adc.w	r5, r5, #4294967295	; 0xffffffff
2ffd9254:	2200      	movs	r2, #0
2ffd9256:	f04f 31aa 	mov.w	r1, #2863311530	; 0xaaaaaaaa
2ffd925a:	e004      	b.n	2ffd9266 <stm32mp1_ddr_setup+0x1ee>
2ffd925c:	f103 4040 	add.w	r0, r3, #3221225472	; 0xc0000000
2ffd9260:	18db      	adds	r3, r3, r3
2ffd9262:	4152      	adcs	r2, r2
2ffd9264:	6001      	str	r1, [r0, #0]
2ffd9266:	ea04 0003 	and.w	r0, r4, r3
2ffd926a:	9000      	str	r0, [sp, #0]
2ffd926c:	ea05 0002 	and.w	r0, r5, r2
2ffd9270:	9001      	str	r0, [sp, #4]
2ffd9272:	e9dd 6700 	ldrd	r6, r7, [sp]
2ffd9276:	ea56 0007 	orrs.w	r0, r6, r7
2ffd927a:	d1ef      	bne.n	2ffd925c <stm32mp1_ddr_setup+0x1e4>
2ffd927c:	f04f 4340 	mov.w	r3, #3221225472	; 0xc0000000
2ffd9280:	f04f 3255 	mov.w	r2, #1431655765	; 0x55555555
2ffd9284:	601a      	str	r2, [r3, #0]
2ffd9286:	2304      	movs	r3, #4
2ffd9288:	2200      	movs	r2, #0
2ffd928a:	ea04 0803 	and.w	r8, r4, r3
2ffd928e:	ea05 0902 	and.w	r9, r5, r2
2ffd9292:	ea58 0109 	orrs.w	r1, r8, r9
2ffd9296:	d135      	bne.n	2ffd9304 <stm32mp1_ddr_setup+0x28c>
2ffd9298:	f04f 31aa 	mov.w	r1, #2863311530	; 0xaaaaaaaa
2ffd929c:	f04f 4740 	mov.w	r7, #3221225472	; 0xc0000000
2ffd92a0:	2204      	movs	r2, #4
2ffd92a2:	2300      	movs	r3, #0
2ffd92a4:	6039      	str	r1, [r7, #0]
2ffd92a6:	f04f 3855 	mov.w	r8, #1431655765	; 0x55555555
2ffd92aa:	468c      	mov	ip, r1
2ffd92ac:	ea04 0102 	and.w	r1, r4, r2
2ffd92b0:	9104      	str	r1, [sp, #16]
2ffd92b2:	ea05 0103 	and.w	r1, r5, r3
2ffd92b6:	9105      	str	r1, [sp, #20]
2ffd92b8:	e9dd 0104 	ldrd	r0, r1, [sp, #16]
2ffd92bc:	4301      	orrs	r1, r0
2ffd92be:	d155      	bne.n	2ffd936c <stm32mp1_ddr_setup+0x2f4>
2ffd92c0:	f04f 4340 	mov.w	r3, #3221225472	; 0xc0000000
2ffd92c4:	f04f 32aa 	mov.w	r2, #2863311530	; 0xaaaaaaaa
2ffd92c8:	2404      	movs	r4, #4
2ffd92ca:	f04f 3155 	mov.w	r1, #1431655765	; 0x55555555
2ffd92ce:	601a      	str	r2, [r3, #0]
2ffd92d0:	221c      	movs	r2, #28
2ffd92d2:	f104 4040 	add.w	r0, r4, #3221225472	; 0xc0000000
2ffd92d6:	6001      	str	r1, [r0, #0]
2ffd92d8:	f3bf 8f4f 	dsb	sy
2ffd92dc:	6818      	ldr	r0, [r3, #0]
2ffd92de:	f1b0 3faa 	cmp.w	r0, #2863311530	; 0xaaaaaaaa
2ffd92e2:	d102      	bne.n	2ffd92ea <stm32mp1_ddr_setup+0x272>
2ffd92e4:	0064      	lsls	r4, r4, #1
2ffd92e6:	3a01      	subs	r2, #1
2ffd92e8:	d1f3      	bne.n	2ffd92d2 <stm32mp1_ddr_setup+0x25a>
2ffd92ea:	0d22      	lsrs	r2, r4, #20
2ffd92ec:	4621      	mov	r1, r4
2ffd92ee:	481d      	ldr	r0, [pc, #116]	; (2ffd9364 <stm32mp1_ddr_setup+0x2ec>)
2ffd92f0:	f001 ff70 	bl	2ffdb1d4 <tf_log>
2ffd92f4:	9a29      	ldr	r2, [sp, #164]	; 0xa4
2ffd92f6:	42a2      	cmp	r2, r4
2ffd92f8:	d994      	bls.n	2ffd9224 <stm32mp1_ddr_setup+0x1ac>
2ffd92fa:	481b      	ldr	r0, [pc, #108]	; (2ffd9368 <stm32mp1_ddr_setup+0x2f0>)
2ffd92fc:	4621      	mov	r1, r4
2ffd92fe:	f001 ff69 	bl	2ffdb1d4 <tf_log>
2ffd9302:	e788      	b.n	2ffd9216 <stm32mp1_ddr_setup+0x19e>
2ffd9304:	f103 4640 	add.w	r6, r3, #3221225472	; 0xc0000000
2ffd9308:	6831      	ldr	r1, [r6, #0]
2ffd930a:	f1b1 3faa 	cmp.w	r1, #2863311530	; 0xaaaaaaaa
2ffd930e:	d155      	bne.n	2ffd93bc <stm32mp1_ddr_setup+0x344>
2ffd9310:	18db      	adds	r3, r3, r3
2ffd9312:	4152      	adcs	r2, r2
2ffd9314:	e7b9      	b.n	2ffd928a <stm32mp1_ddr_setup+0x212>
2ffd9316:	bf00      	nop
2ffd9318:	2ffe2e14 	.word	0x2ffe2e14
2ffd931c:	2ffe2e1f 	.word	0x2ffe2e1f
2ffd9320:	2ffe2e2d 	.word	0x2ffe2e2d
2ffd9324:	2ffe2e38 	.word	0x2ffe2e38
2ffd9328:	2ffe2e44 	.word	0x2ffe2e44
2ffd932c:	2ffe2e4f 	.word	0x2ffe2e4f
2ffd9330:	2ffe2e5d 	.word	0x2ffe2e5d
2ffd9334:	2ffe2e68 	.word	0x2ffe2e68
2ffd9338:	2ffe2e78 	.word	0x2ffe2e78
2ffd933c:	2ffe2e85 	.word	0x2ffe2e85
2ffd9340:	2ffe2e91 	.word	0x2ffe2e91
2ffd9344:	2ffe2e9d 	.word	0x2ffe2e9d
2ffd9348:	2ffe2fcc 	.word	0x2ffe2fcc
2ffd934c:	2ffe2ea7 	.word	0x2ffe2ea7
2ffd9350:	5c00a110 	.word	0x5c00a110
2ffd9354:	ca7face0 	.word	0xca7face0
2ffd9358:	2ffe6f20 	.word	0x2ffe6f20
2ffd935c:	5c00a114 	.word	0x5c00a114
2ffd9360:	2ffe2ec6 	.word	0x2ffe2ec6
2ffd9364:	2ffe2f20 	.word	0x2ffe2f20
2ffd9368:	2ffe2f3d 	.word	0x2ffe2f3d
2ffd936c:	f102 4e40 	add.w	lr, r2, #3221225472	; 0xc0000000
2ffd9370:	f8ce 8000 	str.w	r8, [lr]
2ffd9374:	6839      	ldr	r1, [r7, #0]
2ffd9376:	f1b1 3faa 	cmp.w	r1, #2863311530	; 0xaaaaaaaa
2ffd937a:	d125      	bne.n	2ffd93c8 <stm32mp1_ddr_setup+0x350>
2ffd937c:	2004      	movs	r0, #4
2ffd937e:	2100      	movs	r1, #0
2ffd9380:	ea04 0600 	and.w	r6, r4, r0
2ffd9384:	9602      	str	r6, [sp, #8]
2ffd9386:	ea05 0601 	and.w	r6, r5, r1
2ffd938a:	9603      	str	r6, [sp, #12]
2ffd938c:	e9dd 9a02 	ldrd	r9, sl, [sp, #8]
2ffd9390:	ea59 060a 	orrs.w	r6, r9, sl
2ffd9394:	d104      	bne.n	2ffd93a0 <stm32mp1_ddr_setup+0x328>
2ffd9396:	1892      	adds	r2, r2, r2
2ffd9398:	415b      	adcs	r3, r3
2ffd939a:	f8ce c000 	str.w	ip, [lr]
2ffd939e:	e785      	b.n	2ffd92ac <stm32mp1_ddr_setup+0x234>
2ffd93a0:	f100 4640 	add.w	r6, r0, #3221225472	; 0xc0000000
2ffd93a4:	f8d6 9000 	ldr.w	r9, [r6]
2ffd93a8:	f1b9 3faa 	cmp.w	r9, #2863311530	; 0xaaaaaaaa
2ffd93ac:	d003      	beq.n	2ffd93b6 <stm32mp1_ddr_setup+0x33e>
2ffd93ae:	428b      	cmp	r3, r1
2ffd93b0:	bf08      	it	eq
2ffd93b2:	4282      	cmpeq	r2, r0
2ffd93b4:	d102      	bne.n	2ffd93bc <stm32mp1_ddr_setup+0x344>
2ffd93b6:	1800      	adds	r0, r0, r0
2ffd93b8:	4149      	adcs	r1, r1
2ffd93ba:	e7e1      	b.n	2ffd9380 <stm32mp1_ddr_setup+0x308>
2ffd93bc:	2e00      	cmp	r6, #0
2ffd93be:	f43f af7f 	beq.w	2ffd92c0 <stm32mp1_ddr_setup+0x248>
2ffd93c2:	4806      	ldr	r0, [pc, #24]	; (2ffd93dc <stm32mp1_ddr_setup+0x364>)
2ffd93c4:	4631      	mov	r1, r6
2ffd93c6:	e724      	b.n	2ffd9212 <stm32mp1_ddr_setup+0x19a>
2ffd93c8:	f04f 4640 	mov.w	r6, #3221225472	; 0xc0000000
2ffd93cc:	e7f9      	b.n	2ffd93c2 <stm32mp1_ddr_setup+0x34a>
2ffd93ce:	f06f 0001 	mvn.w	r0, #1
2ffd93d2:	e696      	b.n	2ffd9102 <stm32mp1_ddr_setup+0x8a>
2ffd93d4:	4802      	ldr	r0, [pc, #8]	; (2ffd93e0 <stm32mp1_ddr_setup+0x368>)
2ffd93d6:	f04f 4140 	mov.w	r1, #3221225472	; 0xc0000000
2ffd93da:	e71a      	b.n	2ffd9212 <stm32mp1_ddr_setup+0x19a>
2ffd93dc:	2ffe2ef0 	.word	0x2ffe2ef0
2ffd93e0:	2ffe2f6d 	.word	0x2ffe2f6d

2ffd93e4 <stm32mp1_ddr_clk_enable>:
2ffd93e4:	b510      	push	{r4, lr}
2ffd93e6:	460c      	mov	r4, r1
2ffd93e8:	f005 f9f4 	bl	2ffde7d4 <ddr_enable_clock>
2ffd93ec:	20e0      	movs	r0, #224	; 0xe0
2ffd93ee:	f004 fcf2 	bl	2ffdddd6 <stm32mp_clk_get_rate>
2ffd93f2:	f44f 737a 	mov.w	r3, #1000	; 0x3e8
2ffd93f6:	210a      	movs	r1, #10
2ffd93f8:	4363      	muls	r3, r4
2ffd93fa:	4298      	cmp	r0, r3
2ffd93fc:	bf8c      	ite	hi
2ffd93fe:	1ac2      	subhi	r2, r0, r3
2ffd9400:	1a1a      	subls	r2, r3, r0
2ffd9402:	fbb3 f3f1 	udiv	r3, r3, r1
2ffd9406:	429a      	cmp	r2, r3
2ffd9408:	d90a      	bls.n	2ffd9420 <stm32mp1_ddr_clk_enable+0x3c>
2ffd940a:	f44f 727a 	mov.w	r2, #1000	; 0x3e8
2ffd940e:	4621      	mov	r1, r4
2ffd9410:	fbb0 f2f2 	udiv	r2, r0, r2
2ffd9414:	4803      	ldr	r0, [pc, #12]	; (2ffd9424 <stm32mp1_ddr_clk_enable+0x40>)
2ffd9416:	f001 fedd 	bl	2ffdb1d4 <tf_log>
2ffd941a:	f04f 30ff 	mov.w	r0, #4294967295	; 0xffffffff
2ffd941e:	bd10      	pop	{r4, pc}
2ffd9420:	2000      	movs	r0, #0
2ffd9422:	e7fc      	b.n	2ffd941e <stm32mp1_ddr_clk_enable+0x3a>
2ffd9424:	2ffe2f9d 	.word	0x2ffe2f9d

2ffd9428 <stm32mp1_ddr_probe>:
2ffd9428:	b510      	push	{r4, lr}
2ffd942a:	f002 f897 	bl	2ffdb55c <stm32mp_ddrctrl_base>
2ffd942e:	4c0c      	ldr	r4, [pc, #48]	; (2ffd9460 <stm32mp1_ddr_probe+0x38>)
2ffd9430:	6120      	str	r0, [r4, #16]
2ffd9432:	f002 f897 	bl	2ffdb564 <stm32mp_ddrphyc_base>
2ffd9436:	6160      	str	r0, [r4, #20]
2ffd9438:	f002 f898 	bl	2ffdb56c <stm32mp_pwr_base>
2ffd943c:	61a0      	str	r0, [r4, #24]
2ffd943e:	f002 f899 	bl	2ffdb574 <stm32mp_rcc_base>
2ffd9442:	61e0      	str	r0, [r4, #28]
2ffd9444:	f04f 4240 	mov.w	r2, #3221225472	; 0xc0000000
2ffd9448:	2300      	movs	r3, #0
2ffd944a:	e9c4 2300 	strd	r2, r3, [r4]
2ffd944e:	2200      	movs	r2, #0
2ffd9450:	2300      	movs	r3, #0
2ffd9452:	e9c4 2302 	strd	r2, r3, [r4, #8]
2ffd9456:	e8bd 4010 	ldmia.w	sp!, {r4, lr}
2ffd945a:	f7ff be0d 	b.w	2ffd9078 <stm32mp1_ddr_setup>
2ffd945e:	bf00      	nop
2ffd9460:	2ffe6f20 	.word	0x2ffe6f20

2ffd9464 <flush_bl_params_desc_args>:
2ffd9464:	b510      	push	{r4, lr}
2ffd9466:	4614      	mov	r4, r2
2ffd9468:	b918      	cbnz	r0, 2ffd9472 <flush_bl_params_desc_args+0xe>
2ffd946a:	2125      	movs	r1, #37	; 0x25
2ffd946c:	4809      	ldr	r0, [pc, #36]	; (2ffd9494 <flush_bl_params_desc_args+0x30>)
2ffd946e:	f007 ffb3 	bl	2ffe13d8 <__assert>
2ffd9472:	b909      	cbnz	r1, 2ffd9478 <flush_bl_params_desc_args+0x14>
2ffd9474:	2126      	movs	r1, #38	; 0x26
2ffd9476:	e7f9      	b.n	2ffd946c <flush_bl_params_desc_args+0x8>
2ffd9478:	b90a      	cbnz	r2, 2ffd947e <flush_bl_params_desc_args+0x1a>
2ffd947a:	2127      	movs	r1, #39	; 0x27
2ffd947c:	e7f6      	b.n	2ffd946c <flush_bl_params_desc_args+0x8>
2ffd947e:	235c      	movs	r3, #92	; 0x5c
2ffd9480:	4359      	muls	r1, r3
2ffd9482:	f7fc ef94 	blx	2ffd63ac <flush_dcache_range>
2ffd9486:	4620      	mov	r0, r4
2ffd9488:	210c      	movs	r1, #12
2ffd948a:	e8bd 4010 	ldmia.w	sp!, {r4, lr}
2ffd948e:	f00b bf3f 	b.w	2ffe5310 <__flush_dcache_range_from_thumb>
2ffd9492:	bf00      	nop
2ffd9494:	2ffe2fdf 	.word	0x2ffe2fdf

2ffd9498 <flush_bl_params_desc>:
2ffd9498:	4b03      	ldr	r3, [pc, #12]	; (2ffd94a8 <flush_bl_params_desc+0x10>)
2ffd949a:	4a04      	ldr	r2, [pc, #16]	; (2ffd94ac <flush_bl_params_desc+0x14>)
2ffd949c:	6819      	ldr	r1, [r3, #0]
2ffd949e:	4b04      	ldr	r3, [pc, #16]	; (2ffd94b0 <flush_bl_params_desc+0x18>)
2ffd94a0:	6818      	ldr	r0, [r3, #0]
2ffd94a2:	f7ff bfdf 	b.w	2ffd9464 <flush_bl_params_desc_args>
2ffd94a6:	bf00      	nop
2ffd94a8:	2ffe61bc 	.word	0x2ffe61bc
2ffd94ac:	2ffe797c 	.word	0x2ffe797c
2ffd94b0:	2ffe61c0 	.word	0x2ffe61c0

2ffd94b4 <get_bl_params_node_index>:
2ffd94b4:	1c42      	adds	r2, r0, #1
2ffd94b6:	b538      	push	{r3, r4, r5, lr}
2ffd94b8:	4603      	mov	r3, r0
2ffd94ba:	d00a      	beq.n	2ffd94d2 <get_bl_params_node_index+0x1e>
2ffd94bc:	4a0a      	ldr	r2, [pc, #40]	; (2ffd94e8 <get_bl_params_node_index+0x34>)
2ffd94be:	2000      	movs	r0, #0
2ffd94c0:	490a      	ldr	r1, [pc, #40]	; (2ffd94ec <get_bl_params_node_index+0x38>)
2ffd94c2:	245c      	movs	r4, #92	; 0x5c
2ffd94c4:	6812      	ldr	r2, [r2, #0]
2ffd94c6:	6809      	ldr	r1, [r1, #0]
2ffd94c8:	4282      	cmp	r2, r0
2ffd94ca:	d106      	bne.n	2ffd94da <get_bl_params_node_index+0x26>
2ffd94cc:	f04f 30ff 	mov.w	r0, #4294967295	; 0xffffffff
2ffd94d0:	bd38      	pop	{r3, r4, r5, pc}
2ffd94d2:	4807      	ldr	r0, [pc, #28]	; (2ffd94f0 <get_bl_params_node_index+0x3c>)
2ffd94d4:	2138      	movs	r1, #56	; 0x38
2ffd94d6:	f007 ff7f 	bl	2ffe13d8 <__assert>
2ffd94da:	fb04 f500 	mul.w	r5, r4, r0
2ffd94de:	594d      	ldr	r5, [r1, r5]
2ffd94e0:	429d      	cmp	r5, r3
2ffd94e2:	d0f5      	beq.n	2ffd94d0 <get_bl_params_node_index+0x1c>
2ffd94e4:	3001      	adds	r0, #1
2ffd94e6:	e7ef      	b.n	2ffd94c8 <get_bl_params_node_index+0x14>
2ffd94e8:	2ffe61bc 	.word	0x2ffe61bc
2ffd94ec:	2ffe61c0 	.word	0x2ffe61c0
2ffd94f0:	2ffe2fdf 	.word	0x2ffe2fdf

2ffd94f4 <get_bl_mem_params_node>:
2ffd94f4:	b508      	push	{r3, lr}
2ffd94f6:	1c43      	adds	r3, r0, #1
2ffd94f8:	d103      	bne.n	2ffd9502 <get_bl_mem_params_node+0xe>
2ffd94fa:	4808      	ldr	r0, [pc, #32]	; (2ffd951c <get_bl_mem_params_node+0x28>)
2ffd94fc:	214a      	movs	r1, #74	; 0x4a
2ffd94fe:	f007 ff6b 	bl	2ffe13d8 <__assert>
2ffd9502:	f7ff ffd7 	bl	2ffd94b4 <get_bl_params_node_index>
2ffd9506:	2800      	cmp	r0, #0
2ffd9508:	bfa9      	itett	ge
2ffd950a:	225c      	movge	r2, #92	; 0x5c
2ffd950c:	2000      	movlt	r0, #0
2ffd950e:	4b04      	ldrge	r3, [pc, #16]	; (2ffd9520 <get_bl_mem_params_node+0x2c>)
2ffd9510:	681b      	ldrge	r3, [r3, #0]
2ffd9512:	bfa8      	it	ge
2ffd9514:	fb02 3000 	mlage	r0, r2, r0, r3
2ffd9518:	bd08      	pop	{r3, pc}
2ffd951a:	bf00      	nop
2ffd951c:	2ffe2fdf 	.word	0x2ffe2fdf
2ffd9520:	2ffe61c0 	.word	0x2ffe61c0

2ffd9524 <get_bl_load_info_from_mem_params_desc>:
2ffd9524:	4b10      	ldr	r3, [pc, #64]	; (2ffd9568 <get_bl_load_info_from_mem_params_desc+0x44>)
2ffd9526:	b510      	push	{r4, lr}
2ffd9528:	6818      	ldr	r0, [r3, #0]
2ffd952a:	b1d8      	cbz	r0, 2ffd9564 <get_bl_load_info_from_mem_params_desc+0x40>
2ffd952c:	4b0f      	ldr	r3, [pc, #60]	; (2ffd956c <get_bl_load_info_from_mem_params_desc+0x48>)
2ffd952e:	4c10      	ldr	r4, [pc, #64]	; (2ffd9570 <get_bl_load_info_from_mem_params_desc+0x4c>)
2ffd9530:	681b      	ldr	r3, [r3, #0]
2ffd9532:	4a10      	ldr	r2, [pc, #64]	; (2ffd9574 <get_bl_load_info_from_mem_params_desc+0x50>)
2ffd9534:	f103 0140 	add.w	r1, r3, #64	; 0x40
2ffd9538:	3304      	adds	r3, #4
2ffd953a:	6022      	str	r2, [r4, #0]
2ffd953c:	2200      	movs	r2, #0
2ffd953e:	60a1      	str	r1, [r4, #8]
2ffd9540:	6062      	str	r2, [r4, #4]
2ffd9542:	f853 4c04 	ldr.w	r4, [r3, #-4]
2ffd9546:	3201      	adds	r2, #1
2ffd9548:	4290      	cmp	r0, r2
2ffd954a:	600c      	str	r4, [r1, #0]
2ffd954c:	bf88      	it	hi
2ffd954e:	f103 0498 	addhi.w	r4, r3, #152	; 0x98
2ffd9552:	604b      	str	r3, [r1, #4]
2ffd9554:	f103 035c 	add.w	r3, r3, #92	; 0x5c
2ffd9558:	bf84      	itt	hi
2ffd955a:	608c      	strhi	r4, [r1, #8]
2ffd955c:	4621      	movhi	r1, r4
2ffd955e:	4290      	cmp	r0, r2
2ffd9560:	d1ef      	bne.n	2ffd9542 <get_bl_load_info_from_mem_params_desc+0x1e>
2ffd9562:	4803      	ldr	r0, [pc, #12]	; (2ffd9570 <get_bl_load_info_from_mem_params_desc+0x4c>)
2ffd9564:	bd10      	pop	{r4, pc}
2ffd9566:	bf00      	nop
2ffd9568:	2ffe61bc 	.word	0x2ffe61bc
2ffd956c:	2ffe61c0 	.word	0x2ffe61c0
2ffd9570:	2ffe7970 	.word	0x2ffe7970
2ffd9574:	000c0204 	.word	0x000c0204

2ffd9578 <get_next_bl_params_from_mem_params_desc>:
2ffd9578:	4b2a      	ldr	r3, [pc, #168]	; (2ffd9624 <get_next_bl_params_from_mem_params_desc+0xac>)
2ffd957a:	e92d 41f0 	stmdb	sp!, {r4, r5, r6, r7, r8, lr}
2ffd957e:	681c      	ldr	r4, [r3, #0]
2ffd9580:	2c00      	cmp	r4, #0
2ffd9582:	d049      	beq.n	2ffd9618 <get_next_bl_params_from_mem_params_desc+0xa0>
2ffd9584:	4b28      	ldr	r3, [pc, #160]	; (2ffd9628 <get_next_bl_params_from_mem_params_desc+0xb0>)
2ffd9586:	2000      	movs	r0, #0
2ffd9588:	215c      	movs	r1, #92	; 0x5c
2ffd958a:	681d      	ldr	r5, [r3, #0]
2ffd958c:	fb01 5300 	mla	r3, r1, r0, r5
2ffd9590:	69da      	ldr	r2, [r3, #28]
2ffd9592:	f002 0218 	and.w	r2, r2, #24
2ffd9596:	2a18      	cmp	r2, #24
2ffd9598:	d112      	bne.n	2ffd95c0 <get_next_bl_params_from_mem_params_desc+0x48>
2ffd959a:	4a24      	ldr	r2, [pc, #144]	; (2ffd962c <get_next_bl_params_from_mem_params_desc+0xb4>)
2ffd959c:	334c      	adds	r3, #76	; 0x4c
2ffd959e:	6093      	str	r3, [r2, #8]
2ffd95a0:	4b22      	ldr	r3, [pc, #136]	; (2ffd962c <get_next_bl_params_from_mem_params_desc+0xb4>)
2ffd95a2:	f04f 085c 	mov.w	r8, #92	; 0x5c
2ffd95a6:	4a22      	ldr	r2, [pc, #136]	; (2ffd9630 <get_next_bl_params_from_mem_params_desc+0xb8>)
2ffd95a8:	601a      	str	r2, [r3, #0]
2ffd95aa:	2200      	movs	r2, #0
2ffd95ac:	605a      	str	r2, [r3, #4]
2ffd95ae:	4616      	mov	r6, r2
2ffd95b0:	fb08 f000 	mul.w	r0, r8, r0
2ffd95b4:	182b      	adds	r3, r5, r0
2ffd95b6:	69d9      	ldr	r1, [r3, #28]
2ffd95b8:	0709      	lsls	r1, r1, #28
2ffd95ba:	d40f      	bmi.n	2ffd95dc <get_next_bl_params_from_mem_params_desc+0x64>
2ffd95bc:	21ab      	movs	r1, #171	; 0xab
2ffd95be:	e006      	b.n	2ffd95ce <get_next_bl_params_from_mem_params_desc+0x56>
2ffd95c0:	3001      	adds	r0, #1
2ffd95c2:	4284      	cmp	r4, r0
2ffd95c4:	d1e2      	bne.n	2ffd958c <get_next_bl_params_from_mem_params_desc+0x14>
2ffd95c6:	4b19      	ldr	r3, [pc, #100]	; (2ffd962c <get_next_bl_params_from_mem_params_desc+0xb4>)
2ffd95c8:	689b      	ldr	r3, [r3, #8]
2ffd95ca:	b91b      	cbnz	r3, 2ffd95d4 <get_next_bl_params_from_mem_params_desc+0x5c>
2ffd95cc:	219d      	movs	r1, #157	; 0x9d
2ffd95ce:	4819      	ldr	r0, [pc, #100]	; (2ffd9634 <get_next_bl_params_from_mem_params_desc+0xbc>)
2ffd95d0:	f007 ff02 	bl	2ffe13d8 <__assert>
2ffd95d4:	2000      	movs	r0, #0
2ffd95d6:	e7e3      	b.n	2ffd95a0 <get_next_bl_params_from_mem_params_desc+0x28>
2ffd95d8:	463a      	mov	r2, r7
2ffd95da:	e7e9      	b.n	2ffd95b0 <get_next_bl_params_from_mem_params_desc+0x38>
2ffd95dc:	5829      	ldr	r1, [r5, r0]
2ffd95de:	f103 074c 	add.w	r7, r3, #76	; 0x4c
2ffd95e2:	64d9      	str	r1, [r3, #76]	; 0x4c
2ffd95e4:	1d19      	adds	r1, r3, #4
2ffd95e6:	6519      	str	r1, [r3, #80]	; 0x50
2ffd95e8:	f103 0118 	add.w	r1, r3, #24
2ffd95ec:	6559      	str	r1, [r3, #84]	; 0x54
2ffd95ee:	b122      	cbz	r2, 2ffd95fa <get_next_bl_params_from_mem_params_desc+0x82>
2ffd95f0:	68d1      	ldr	r1, [r2, #12]
2ffd95f2:	b109      	cbz	r1, 2ffd95f8 <get_next_bl_params_from_mem_params_desc+0x80>
2ffd95f4:	21b7      	movs	r1, #183	; 0xb7
2ffd95f6:	e7ea      	b.n	2ffd95ce <get_next_bl_params_from_mem_params_desc+0x56>
2ffd95f8:	60d7      	str	r7, [r2, #12]
2ffd95fa:	6bd8      	ldr	r0, [r3, #60]	; 0x3c
2ffd95fc:	1c43      	adds	r3, r0, #1
2ffd95fe:	d00e      	beq.n	2ffd961e <get_next_bl_params_from_mem_params_desc+0xa6>
2ffd9600:	f7ff ff58 	bl	2ffd94b4 <get_bl_params_node_index>
2ffd9604:	b108      	cbz	r0, 2ffd960a <get_next_bl_params_from_mem_params_desc+0x92>
2ffd9606:	4284      	cmp	r4, r0
2ffd9608:	d801      	bhi.n	2ffd960e <get_next_bl_params_from_mem_params_desc+0x96>
2ffd960a:	21c7      	movs	r1, #199	; 0xc7
2ffd960c:	e7df      	b.n	2ffd95ce <get_next_bl_params_from_mem_params_desc+0x56>
2ffd960e:	3601      	adds	r6, #1
2ffd9610:	42b4      	cmp	r4, r6
2ffd9612:	d1e1      	bne.n	2ffd95d8 <get_next_bl_params_from_mem_params_desc+0x60>
2ffd9614:	21cc      	movs	r1, #204	; 0xcc
2ffd9616:	e7da      	b.n	2ffd95ce <get_next_bl_params_from_mem_params_desc+0x56>
2ffd9618:	4620      	mov	r0, r4
2ffd961a:	e8bd 81f0 	ldmia.w	sp!, {r4, r5, r6, r7, r8, pc}
2ffd961e:	4803      	ldr	r0, [pc, #12]	; (2ffd962c <get_next_bl_params_from_mem_params_desc+0xb4>)
2ffd9620:	e7fb      	b.n	2ffd961a <get_next_bl_params_from_mem_params_desc+0xa2>
2ffd9622:	bf00      	nop
2ffd9624:	2ffe61bc 	.word	0x2ffe61bc
2ffd9628:	2ffe61c0 	.word	0x2ffe61c0
2ffd962c:	2ffe797c 	.word	0x2ffe797c
2ffd9630:	000c0205 	.word	0x000c0205
2ffd9634:	2ffe2fdf 	.word	0x2ffe2fdf

2ffd9638 <plat_flush_next_bl_params>:
2ffd9638:	f7ff bf2e 	b.w	2ffd9498 <flush_bl_params_desc>

2ffd963c <plat_get_bl_image_load_info>:
2ffd963c:	b570      	push	{r4, r5, r6, lr}
2ffd963e:	f001 ff87 	bl	2ffdb550 <stm32mp_get_boot_ctx_address>
2ffd9642:	4605      	mov	r5, r0
2ffd9644:	2005      	movs	r0, #5
2ffd9646:	f7ff ff55 	bl	2ffd94f4 <get_bl_mem_params_node>
2ffd964a:	4604      	mov	r4, r0
2ffd964c:	f001 ff92 	bl	2ffdb574 <stm32mp_rcc_base>
2ffd9650:	f8d0 6408 	ldr.w	r6, [r0, #1032]	; 0x408
2ffd9654:	f001 ff8a 	bl	2ffdb56c <stm32mp_pwr_base>
2ffd9658:	f895 204d 	ldrb.w	r2, [r5, #77]	; 0x4d
2ffd965c:	f895 304c 	ldrb.w	r3, [r5, #76]	; 0x4c
2ffd9660:	ea43 2302 	orr.w	r3, r3, r2, lsl #8
2ffd9664:	f895 204e 	ldrb.w	r2, [r5, #78]	; 0x4e
2ffd9668:	ea43 4302 	orr.w	r3, r3, r2, lsl #16
2ffd966c:	f895 204f 	ldrb.w	r2, [r5, #79]	; 0x4f
2ffd9670:	ea43 6302 	orr.w	r3, r3, r2, lsl #24
2ffd9674:	3b0a      	subs	r3, #10
2ffd9676:	2b01      	cmp	r3, #1
2ffd9678:	d813      	bhi.n	2ffd96a2 <plat_get_bl_image_load_info+0x66>
2ffd967a:	68c3      	ldr	r3, [r0, #12]
2ffd967c:	055b      	lsls	r3, r3, #21
2ffd967e:	d510      	bpl.n	2ffd96a2 <plat_get_bl_image_load_info+0x66>
2ffd9680:	f016 0604 	ands.w	r6, r6, #4
2ffd9684:	d10d      	bne.n	2ffd96a2 <plat_get_bl_image_load_info+0x66>
2ffd9686:	2041      	movs	r0, #65	; 0x41
2ffd9688:	f004 fb9c 	bl	2ffdddc4 <stm32mp_clk_enable>
2ffd968c:	4b0a      	ldr	r3, [pc, #40]	; (2ffd96b8 <plat_get_bl_image_load_info+0x7c>)
2ffd968e:	681b      	ldr	r3, [r3, #0]
2ffd9690:	b123      	cbz	r3, 2ffd969c <plat_get_bl_image_load_info+0x60>
2ffd9692:	68a3      	ldr	r3, [r4, #8]
2ffd9694:	6226      	str	r6, [r4, #32]
2ffd9696:	f043 0302 	orr.w	r3, r3, #2
2ffd969a:	60a3      	str	r3, [r4, #8]
2ffd969c:	2041      	movs	r0, #65	; 0x41
2ffd969e:	f004 fb94 	bl	2ffdddca <stm32mp_clk_disable>
2ffd96a2:	f007 f823 	bl	2ffe06ec <dt_get_ddr_size>
2ffd96a6:	68e3      	ldr	r3, [r4, #12]
2ffd96a8:	f1c3 4340 	rsb	r3, r3, #3221225472	; 0xc0000000
2ffd96ac:	4403      	add	r3, r0
2ffd96ae:	6163      	str	r3, [r4, #20]
2ffd96b0:	e8bd 4070 	ldmia.w	sp!, {r4, r5, r6, lr}
2ffd96b4:	f7ff bf36 	b.w	2ffd9524 <get_bl_load_info_from_mem_params_desc>
2ffd96b8:	5c00a114 	.word	0x5c00a114

2ffd96bc <plat_get_next_bl_params>:
2ffd96bc:	f7ff bf5c 	b.w	2ffd9578 <get_next_bl_params_from_mem_params_desc>

2ffd96c0 <device_type_usb>:
2ffd96c0:	200a      	movs	r0, #10
2ffd96c2:	4770      	bx	lr

2ffd96c4 <usb_callback_write_done>:
2ffd96c4:	4b02      	ldr	r3, [pc, #8]	; (2ffd96d0 <usb_callback_write_done+0xc>)
2ffd96c6:	2201      	movs	r2, #1
2ffd96c8:	2000      	movs	r0, #0
2ffd96ca:	701a      	strb	r2, [r3, #0]
2ffd96cc:	4770      	bx	lr
2ffd96ce:	bf00      	nop
2ffd96d0:	2ffe8058 	.word	0x2ffe8058

2ffd96d4 <usb_dev_init>:
2ffd96d4:	2000      	movs	r0, #0
2ffd96d6:	4770      	bx	lr

2ffd96d8 <usb_dev_close>:
2ffd96d8:	2000      	movs	r0, #0
2ffd96da:	4770      	bx	lr

2ffd96dc <usb_block_seek>:
2ffd96dc:	2000      	movs	r0, #0
2ffd96de:	4770      	bx	lr

2ffd96e0 <usb_block_close>:
2ffd96e0:	4b02      	ldr	r3, [pc, #8]	; (2ffd96ec <usb_block_close+0xc>)
2ffd96e2:	2201      	movs	r2, #1
2ffd96e4:	2000      	movs	r0, #0
2ffd96e6:	731a      	strb	r2, [r3, #12]
2ffd96e8:	4770      	bx	lr
2ffd96ea:	bf00      	nop
2ffd96ec:	2ffe61c4 	.word	0x2ffe61c4

2ffd96f0 <usb_callback_read>:
2ffd96f0:	b513      	push	{r0, r1, r4, lr}
2ffd96f2:	460b      	mov	r3, r1
2ffd96f4:	9200      	str	r2, [sp, #0]
2ffd96f6:	460c      	mov	r4, r1
2ffd96f8:	4903      	ldr	r1, [pc, #12]	; (2ffd9708 <usb_callback_read+0x18>)
2ffd96fa:	4602      	mov	r2, r0
2ffd96fc:	4803      	ldr	r0, [pc, #12]	; (2ffd970c <usb_callback_read+0x1c>)
2ffd96fe:	f001 fd69 	bl	2ffdb1d4 <tf_log>
2ffd9702:	4620      	mov	r0, r4
2ffd9704:	b002      	add	sp, #8
2ffd9706:	bd10      	pop	{r4, pc}
2ffd9708:	2ffe30d3 	.word	0x2ffe30d3
2ffd970c:	2ffe2ff8 	.word	0x2ffe2ff8

2ffd9710 <usb_partition_size>:
2ffd9710:	e92d 41f0 	stmdb	sp!, {r4, r5, r6, r7, r8, lr}
2ffd9714:	460e      	mov	r6, r1
2ffd9716:	4d14      	ldr	r5, [pc, #80]	; (2ffd9768 <usb_partition_size+0x58>)
2ffd9718:	4c14      	ldr	r4, [pc, #80]	; (2ffd976c <usb_partition_size+0x5c>)
2ffd971a:	7b28      	ldrb	r0, [r5, #12]
2ffd971c:	4f14      	ldr	r7, [pc, #80]	; (2ffd9770 <usb_partition_size+0x60>)
2ffd971e:	f001 fac1 	bl	2ffdaca4 <usb_dfu_set_phase_id>
2ffd9722:	f8df 8058 	ldr.w	r8, [pc, #88]	; 2ffd977c <usb_partition_size+0x6c>
2ffd9726:	4620      	mov	r0, r4
2ffd9728:	f001 fac6 	bl	2ffdacb8 <usb_dfu_set_download_addr>
2ffd972c:	2300      	movs	r3, #0
2ffd972e:	6023      	str	r3, [r4, #0]
2ffd9730:	6878      	ldr	r0, [r7, #4]
2ffd9732:	f000 fd2f 	bl	2ffda194 <usb_core_handle_it>
2ffd9736:	6823      	ldr	r3, [r4, #0]
2ffd9738:	4543      	cmp	r3, r8
2ffd973a:	d1f9      	bne.n	2ffd9730 <usb_partition_size+0x20>
2ffd973c:	f001 fac8 	bl	2ffdacd0 <usb_dfu_get_current_req>
2ffd9740:	2801      	cmp	r0, #1
2ffd9742:	d0f5      	beq.n	2ffd9730 <usb_partition_size+0x20>
2ffd9744:	68aa      	ldr	r2, [r5, #8]
2ffd9746:	6ce3      	ldr	r3, [r4, #76]	; 0x4c
2ffd9748:	490a      	ldr	r1, [pc, #40]	; (2ffd9774 <usb_partition_size+0x64>)
2ffd974a:	4293      	cmp	r3, r2
2ffd974c:	bf9c      	itt	ls
2ffd974e:	6033      	strls	r3, [r6, #0]
2ffd9750:	2500      	movls	r5, #0
2ffd9752:	6ce2      	ldr	r2, [r4, #76]	; 0x4c
2ffd9754:	bf88      	it	hi
2ffd9756:	f06f 0504 	mvnhi.w	r5, #4
2ffd975a:	4807      	ldr	r0, [pc, #28]	; (2ffd9778 <usb_partition_size+0x68>)
2ffd975c:	f001 fd3a 	bl	2ffdb1d4 <tf_log>
2ffd9760:	4628      	mov	r0, r5
2ffd9762:	e8bd 81f0 	ldmia.w	sp!, {r4, r5, r6, r7, r8, pc}
2ffd9766:	bf00      	nop
2ffd9768:	2ffe61c4 	.word	0x2ffe61c4
2ffd976c:	2ffe7988 	.word	0x2ffe7988
2ffd9770:	2ffe61d4 	.word	0x2ffe61d4
2ffd9774:	2ffe30e5 	.word	0x2ffe30e5
2ffd9778:	2ffe302f 	.word	0x2ffe302f
2ffd977c:	324d5453 	.word	0x324d5453

2ffd9780 <usb_dev_open>:
2ffd9780:	4603      	mov	r3, r0
2ffd9782:	b510      	push	{r4, lr}
2ffd9784:	b919      	cbnz	r1, 2ffd978e <usb_dev_open+0xe>
2ffd9786:	480b      	ldr	r0, [pc, #44]	; (2ffd97b4 <usb_dev_open+0x34>)
2ffd9788:	2190      	movs	r1, #144	; 0x90
2ffd978a:	f007 fe25 	bl	2ffe13d8 <__assert>
2ffd978e:	4c0a      	ldr	r4, [pc, #40]	; (2ffd97b8 <usb_dev_open+0x38>)
2ffd9790:	2000      	movs	r0, #0
2ffd9792:	4a0a      	ldr	r2, [pc, #40]	; (2ffd97bc <usb_dev_open+0x3c>)
2ffd9794:	600c      	str	r4, [r1, #0]
2ffd9796:	490a      	ldr	r1, [pc, #40]	; (2ffd97c0 <usb_dev_open+0x40>)
2ffd9798:	f8c3 221c 	str.w	r2, [r3, #540]	; 0x21c
2ffd979c:	6011      	str	r1, [r2, #0]
2ffd979e:	4909      	ldr	r1, [pc, #36]	; (2ffd97c4 <usb_dev_open+0x44>)
2ffd97a0:	6063      	str	r3, [r4, #4]
2ffd97a2:	6051      	str	r1, [r2, #4]
2ffd97a4:	4908      	ldr	r1, [pc, #32]	; (2ffd97c8 <usb_dev_open+0x48>)
2ffd97a6:	6091      	str	r1, [r2, #8]
2ffd97a8:	4908      	ldr	r1, [pc, #32]	; (2ffd97cc <usb_dev_open+0x4c>)
2ffd97aa:	7008      	strb	r0, [r1, #0]
2ffd97ac:	4908      	ldr	r1, [pc, #32]	; (2ffd97d0 <usb_dev_open+0x50>)
2ffd97ae:	7008      	strb	r0, [r1, #0]
2ffd97b0:	bd10      	pop	{r4, pc}
2ffd97b2:	bf00      	nop
2ffd97b4:	2ffe304b 	.word	0x2ffe304b
2ffd97b8:	2ffe61d4 	.word	0x2ffe61d4
2ffd97bc:	2ffe7d8c 	.word	0x2ffe7d8c
2ffd97c0:	2ffd96c5 	.word	0x2ffd96c5
2ffd97c4:	2ffd96f1 	.word	0x2ffd96f1
2ffd97c8:	2ffd97d5 	.word	0x2ffd97d5
2ffd97cc:	2ffe8058 	.word	0x2ffe8058
2ffd97d0:	2ffe8057 	.word	0x2ffe8057

2ffd97d4 <usb_callback_get_status>:
2ffd97d4:	b508      	push	{r3, lr}
2ffd97d6:	4b09      	ldr	r3, [pc, #36]	; (2ffd97fc <usb_callback_get_status+0x28>)
2ffd97d8:	7818      	ldrb	r0, [r3, #0]
2ffd97da:	b148      	cbz	r0, 2ffd97f0 <usb_callback_get_status+0x1c>
2ffd97dc:	2801      	cmp	r0, #1
2ffd97de:	d108      	bne.n	2ffd97f2 <usb_callback_get_status+0x1e>
2ffd97e0:	2200      	movs	r2, #0
2ffd97e2:	701a      	strb	r2, [r3, #0]
2ffd97e4:	4b06      	ldr	r3, [pc, #24]	; (2ffd9800 <usb_callback_get_status+0x2c>)
2ffd97e6:	7819      	ldrb	r1, [r3, #0]
2ffd97e8:	2901      	cmp	r1, #1
2ffd97ea:	d101      	bne.n	2ffd97f0 <usb_callback_get_status+0x1c>
2ffd97ec:	701a      	strb	r2, [r3, #0]
2ffd97ee:	2002      	movs	r0, #2
2ffd97f0:	bd08      	pop	{r3, pc}
2ffd97f2:	4804      	ldr	r0, [pc, #16]	; (2ffd9804 <usb_callback_get_status+0x30>)
2ffd97f4:	f001 fcee 	bl	2ffdb1d4 <tf_log>
2ffd97f8:	e7f9      	b.n	2ffd97ee <usb_callback_get_status+0x1a>
2ffd97fa:	bf00      	nop
2ffd97fc:	2ffe8058 	.word	0x2ffe8058
2ffd9800:	2ffe8057 	.word	0x2ffe8057
2ffd9804:	2ffe3070 	.word	0x2ffe3070

2ffd9808 <usb_block_read>:
2ffd9808:	e92d 4ff8 	stmdb	sp!, {r3, r4, r5, r6, r7, r8, r9, sl, fp, lr}
2ffd980c:	460c      	mov	r4, r1
2ffd980e:	4d3d      	ldr	r5, [pc, #244]	; (2ffd9904 <usb_block_read+0xfc>)
2ffd9810:	4692      	mov	sl, r2
2ffd9812:	483d      	ldr	r0, [pc, #244]	; (2ffd9908 <usb_block_read+0x100>)
2ffd9814:	469b      	mov	fp, r3
2ffd9816:	4689      	mov	r9, r1
2ffd9818:	4613      	mov	r3, r2
2ffd981a:	460a      	mov	r2, r1
2ffd981c:	46a8      	mov	r8, r5
2ffd981e:	7b29      	ldrb	r1, [r5, #12]
2ffd9820:	f001 fcd8 	bl	2ffdb1d4 <tf_log>
2ffd9824:	682b      	ldr	r3, [r5, #0]
2ffd9826:	b323      	cbz	r3, 2ffd9872 <usb_block_read+0x6a>
2ffd9828:	4938      	ldr	r1, [pc, #224]	; (2ffd990c <usb_block_read+0x104>)
2ffd982a:	f44f 6280 	mov.w	r2, #1024	; 0x400
2ffd982e:	4620      	mov	r0, r4
2ffd9830:	f007 fdfa 	bl	2ffe1428 <memcpy>
2ffd9834:	f504 6080 	add.w	r0, r4, #1024	; 0x400
2ffd9838:	4d35      	ldr	r5, [pc, #212]	; (2ffd9910 <usb_block_read+0x108>)
2ffd983a:	f001 fa3d 	bl	2ffdacb8 <usb_dfu_set_download_addr>
2ffd983e:	f001 fa41 	bl	2ffdacc4 <usb_dfu_download_is_completed>
2ffd9842:	b310      	cbz	r0, 2ffd988a <usb_block_read+0x82>
2ffd9844:	6868      	ldr	r0, [r5, #4]
2ffd9846:	f000 fca5 	bl	2ffda194 <usb_core_handle_it>
2ffd984a:	6868      	ldr	r0, [r5, #4]
2ffd984c:	f000 fca2 	bl	2ffda194 <usb_core_handle_it>
2ffd9850:	f8d8 3000 	ldr.w	r3, [r8]
2ffd9854:	b10b      	cbz	r3, 2ffd985a <usb_block_read+0x52>
2ffd9856:	f504 7980 	add.w	r9, r4, #256	; 0x100
2ffd985a:	482c      	ldr	r0, [pc, #176]	; (2ffd990c <usb_block_read+0x104>)
2ffd985c:	4649      	mov	r1, r9
2ffd985e:	f001 feb9 	bl	2ffdb5d4 <stm32mp_check_header>
2ffd9862:	4604      	mov	r4, r0
2ffd9864:	b1b8      	cbz	r0, 2ffd9896 <usb_block_read+0x8e>
2ffd9866:	482b      	ldr	r0, [pc, #172]	; (2ffd9914 <usb_block_read+0x10c>)
2ffd9868:	f001 fcb4 	bl	2ffdb1d4 <tf_log>
2ffd986c:	4620      	mov	r0, r4
2ffd986e:	e8bd 8ff8 	ldmia.w	sp!, {r3, r4, r5, r6, r7, r8, r9, sl, fp, pc}
2ffd9872:	4826      	ldr	r0, [pc, #152]	; (2ffd990c <usb_block_read+0x104>)
2ffd9874:	f001 ff26 	bl	2ffdb6c4 <stm32mp_save_loaded_header>
2ffd9878:	4927      	ldr	r1, [pc, #156]	; (2ffd9918 <usb_block_read+0x110>)
2ffd987a:	f44f 7240 	mov.w	r2, #768	; 0x300
2ffd987e:	4620      	mov	r0, r4
2ffd9880:	f007 fdd2 	bl	2ffe1428 <memcpy>
2ffd9884:	f504 7040 	add.w	r0, r4, #768	; 0x300
2ffd9888:	e7d6      	b.n	2ffd9838 <usb_block_read+0x30>
2ffd988a:	f005 fff1 	bl	2ffdf870 <stm32_iwdg_refresh>
2ffd988e:	6868      	ldr	r0, [r5, #4]
2ffd9890:	f000 fc80 	bl	2ffda194 <usb_core_handle_it>
2ffd9894:	e7d3      	b.n	2ffd983e <usb_block_read+0x36>
2ffd9896:	f898 300c 	ldrb.w	r3, [r8, #12]
2ffd989a:	2b03      	cmp	r3, #3
2ffd989c:	d12c      	bne.n	2ffd98f8 <usb_block_read+0xf0>
2ffd989e:	f001 fa01 	bl	2ffdaca4 <usb_dfu_set_phase_id>
2ffd98a2:	f04f 30ff 	mov.w	r0, #4294967295	; 0xffffffff
2ffd98a6:	f001 fa07 	bl	2ffdacb8 <usb_dfu_set_download_addr>
2ffd98aa:	f001 fa1d 	bl	2ffdace8 <usb_dfu_request_detach>
2ffd98ae:	ee1e 0f10 	mrc	15, 0, r0, cr14, cr0, {0}
2ffd98b2:	ec59 8f0e 	mrrc	15, 0, r8, r9, cr14
2ffd98b6:	4919      	ldr	r1, [pc, #100]	; (2ffd991c <usb_block_read+0x114>)
2ffd98b8:	2300      	movs	r3, #0
2ffd98ba:	4a19      	ldr	r2, [pc, #100]	; (2ffd9920 <usb_block_read+0x118>)
2ffd98bc:	fba0 0101 	umull	r0, r1, r0, r1
2ffd98c0:	f007 e954 	blx	2ffe0b6c <__aeabi_uldivmod>
2ffd98c4:	eb10 0608 	adds.w	r6, r0, r8
2ffd98c8:	f44f 7880 	mov.w	r8, #256	; 0x100
2ffd98cc:	eb41 0709 	adc.w	r7, r1, r9
2ffd98d0:	6868      	ldr	r0, [r5, #4]
2ffd98d2:	f000 fc5f 	bl	2ffda194 <usb_core_handle_it>
2ffd98d6:	f001 fa01 	bl	2ffdacdc <usb_dfu_detach_req>
2ffd98da:	b908      	cbnz	r0, 2ffd98e0 <usb_block_read+0xd8>
2ffd98dc:	f108 38ff 	add.w	r8, r8, #4294967295	; 0xffffffff
2ffd98e0:	ec53 2f0e 	mrrc	15, 0, r2, r3, cr14
2ffd98e4:	429f      	cmp	r7, r3
2ffd98e6:	bf08      	it	eq
2ffd98e8:	4296      	cmpeq	r6, r2
2ffd98ea:	d308      	bcc.n	2ffd98fe <usb_block_read+0xf6>
2ffd98ec:	f1b8 0f00 	cmp.w	r8, #0
2ffd98f0:	d1ee      	bne.n	2ffd98d0 <usb_block_read+0xc8>
2ffd98f2:	6868      	ldr	r0, [r5, #4]
2ffd98f4:	f000 fee0 	bl	2ffda6b8 <usb_core_stop>
2ffd98f8:	f8cb a000 	str.w	sl, [fp]
2ffd98fc:	e7b6      	b.n	2ffd986c <usb_block_read+0x64>
2ffd98fe:	f06f 0404 	mvn.w	r4, #4
2ffd9902:	e7b3      	b.n	2ffd986c <usb_block_read+0x64>
2ffd9904:	2ffe61c4 	.word	0x2ffe61c4
2ffd9908:	2ffe3084 	.word	0x2ffe3084
2ffd990c:	2ffe7988 	.word	0x2ffe7988
2ffd9910:	2ffe61d4 	.word	0x2ffe61d4
2ffd9914:	2ffe30bd 	.word	0x2ffe30bd
2ffd9918:	2ffe7a88 	.word	0x2ffe7a88
2ffd991c:	00989680 	.word	0x00989680
2ffd9920:	000f4240 	.word	0x000f4240

2ffd9924 <usb_block_open>:
2ffd9924:	e92d 41f3 	stmdb	sp!, {r0, r1, r4, r5, r6, r7, r8, lr}
2ffd9928:	2300      	movs	r3, #0
2ffd992a:	4c27      	ldr	r4, [pc, #156]	; (2ffd99c8 <usb_block_open+0xa4>)
2ffd992c:	4608      	mov	r0, r1
2ffd992e:	9301      	str	r3, [sp, #4]
2ffd9930:	4617      	mov	r7, r2
2ffd9932:	7b26      	ldrb	r6, [r4, #12]
2ffd9934:	2e01      	cmp	r6, #1
2ffd9936:	d140      	bne.n	2ffd99ba <usb_block_open+0x96>
2ffd9938:	b919      	cbnz	r1, 2ffd9942 <usb_block_open+0x1e>
2ffd993a:	21b9      	movs	r1, #185	; 0xb9
2ffd993c:	4823      	ldr	r0, [pc, #140]	; (2ffd99cc <usb_block_open+0xa8>)
2ffd993e:	f007 fd4b 	bl	2ffe13d8 <__assert>
2ffd9942:	b90a      	cbnz	r2, 2ffd9948 <usb_block_open+0x24>
2ffd9944:	21ba      	movs	r1, #186	; 0xba
2ffd9946:	e7f9      	b.n	2ffd993c <usb_block_open+0x18>
2ffd9948:	4921      	ldr	r1, [pc, #132]	; (2ffd99d0 <usb_block_open+0xac>)
2ffd994a:	6063      	str	r3, [r4, #4]
2ffd994c:	f007 ff5f 	bl	2ffe180e <strcmp>
2ffd9950:	4605      	mov	r5, r0
2ffd9952:	bb60      	cbnz	r0, 2ffd99ae <usb_block_open+0x8a>
2ffd9954:	6026      	str	r6, [r4, #0]
2ffd9956:	4e1f      	ldr	r6, [pc, #124]	; (2ffd99d4 <usb_block_open+0xb0>)
2ffd9958:	7320      	strb	r0, [r4, #12]
2ffd995a:	f001 f9a3 	bl	2ffdaca4 <usb_dfu_set_phase_id>
2ffd995e:	f8df 8080 	ldr.w	r8, [pc, #128]	; 2ffd99e0 <usb_block_open+0xbc>
2ffd9962:	4630      	mov	r0, r6
2ffd9964:	f001 f9a8 	bl	2ffdacb8 <usb_dfu_set_download_addr>
2ffd9968:	6035      	str	r5, [r6, #0]
2ffd996a:	4d1b      	ldr	r5, [pc, #108]	; (2ffd99d8 <usb_block_open+0xb4>)
2ffd996c:	6868      	ldr	r0, [r5, #4]
2ffd996e:	f000 fc11 	bl	2ffda194 <usb_core_handle_it>
2ffd9972:	6833      	ldr	r3, [r6, #0]
2ffd9974:	4543      	cmp	r3, r8
2ffd9976:	d1f9      	bne.n	2ffd996c <usb_block_open+0x48>
2ffd9978:	f001 f9aa 	bl	2ffdacd0 <usb_dfu_get_current_req>
2ffd997c:	2801      	cmp	r0, #1
2ffd997e:	d0f5      	beq.n	2ffd996c <usb_block_open+0x48>
2ffd9980:	2200      	movs	r2, #0
2ffd9982:	ab01      	add	r3, sp, #4
2ffd9984:	f04f 4140 	mov.w	r1, #3221225472	; 0xc0000000
2ffd9988:	4610      	mov	r0, r2
2ffd998a:	f7ff ff3d 	bl	2ffd9808 <usb_block_read>
2ffd998e:	4605      	mov	r5, r0
2ffd9990:	b978      	cbnz	r0, 2ffd99b2 <usb_block_open+0x8e>
2ffd9992:	6cf1      	ldr	r1, [r6, #76]	; 0x4c
2ffd9994:	f04f 4040 	mov.w	r0, #3221225472	; 0xc0000000
2ffd9998:	f501 7180 	add.w	r1, r1, #256	; 0x100
2ffd999c:	f7fc ed06 	blx	2ffd63ac <flush_dcache_range>
2ffd99a0:	6065      	str	r5, [r4, #4]
2ffd99a2:	2303      	movs	r3, #3
2ffd99a4:	6025      	str	r5, [r4, #0]
2ffd99a6:	7323      	strb	r3, [r4, #12]
2ffd99a8:	f006 fea0 	bl	2ffe06ec <dt_get_ddr_size>
2ffd99ac:	60a0      	str	r0, [r4, #8]
2ffd99ae:	607c      	str	r4, [r7, #4]
2ffd99b0:	2500      	movs	r5, #0
2ffd99b2:	4628      	mov	r0, r5
2ffd99b4:	b002      	add	sp, #8
2ffd99b6:	e8bd 81f0 	ldmia.w	sp!, {r4, r5, r6, r7, r8, pc}
2ffd99ba:	4808      	ldr	r0, [pc, #32]	; (2ffd99dc <usb_block_open+0xb8>)
2ffd99bc:	f06f 0504 	mvn.w	r5, #4
2ffd99c0:	f001 fc08 	bl	2ffdb1d4 <tf_log>
2ffd99c4:	e7f5      	b.n	2ffd99b2 <usb_block_open+0x8e>
2ffd99c6:	bf00      	nop
2ffd99c8:	2ffe61c4 	.word	0x2ffe61c4
2ffd99cc:	2ffe304b 	.word	0x2ffe304b
2ffd99d0:	2ffe26e0 	.word	0x2ffe26e0
2ffd99d4:	2ffe7988 	.word	0x2ffe7988
2ffd99d8:	2ffe61d4 	.word	0x2ffe61d4
2ffd99dc:	2ffe26e5 	.word	0x2ffe26e5
2ffd99e0:	324d5453 	.word	0x324d5453

2ffd99e4 <register_io_dev_usb>:
2ffd99e4:	b510      	push	{r4, lr}
2ffd99e6:	4604      	mov	r4, r0
2ffd99e8:	b920      	cbnz	r0, 2ffd99f4 <register_io_dev_usb+0x10>
2ffd99ea:	4806      	ldr	r0, [pc, #24]	; (2ffd9a04 <register_io_dev_usb+0x20>)
2ffd99ec:	f44f 71bb 	mov.w	r1, #374	; 0x176
2ffd99f0:	f007 fcf2 	bl	2ffe13d8 <__assert>
2ffd99f4:	4804      	ldr	r0, [pc, #16]	; (2ffd9a08 <register_io_dev_usb+0x24>)
2ffd99f6:	f7fd f863 	bl	2ffd6ac0 <io_register_device>
2ffd99fa:	b908      	cbnz	r0, 2ffd9a00 <register_io_dev_usb+0x1c>
2ffd99fc:	4b03      	ldr	r3, [pc, #12]	; (2ffd9a0c <register_io_dev_usb+0x28>)
2ffd99fe:	6023      	str	r3, [r4, #0]
2ffd9a00:	bd10      	pop	{r4, pc}
2ffd9a02:	bf00      	nop
2ffd9a04:	2ffe304b 	.word	0x2ffe304b
2ffd9a08:	2ffe61d4 	.word	0x2ffe61d4
2ffd9a0c:	2ffe30f8 	.word	0x2ffe30f8

2ffd9a10 <usb_dwc2_disable_int>:
2ffd9a10:	6802      	ldr	r2, [r0, #0]
2ffd9a12:	2000      	movs	r0, #0
2ffd9a14:	6893      	ldr	r3, [r2, #8]
2ffd9a16:	f023 0301 	bic.w	r3, r3, #1
2ffd9a1a:	6093      	str	r3, [r2, #8]
2ffd9a1c:	4770      	bx	lr
	...

2ffd9a20 <usb_dwc2_ep0_out_start>:
2ffd9a20:	4b02      	ldr	r3, [pc, #8]	; (2ffd9a2c <usb_dwc2_ep0_out_start+0xc>)
2ffd9a22:	2000      	movs	r0, #0
2ffd9a24:	4a02      	ldr	r2, [pc, #8]	; (2ffd9a30 <usb_dwc2_ep0_out_start+0x10>)
2ffd9a26:	6c9b      	ldr	r3, [r3, #72]	; 0x48
2ffd9a28:	611a      	str	r2, [r3, #16]
2ffd9a2a:	4770      	bx	lr
2ffd9a2c:	2ffe7d98 	.word	0x2ffe7d98
2ffd9a30:	60080018 	.word	0x60080018

2ffd9a34 <usb_dwc2_write_packet>:
2ffd9a34:	f8df c034 	ldr.w	ip, [pc, #52]	; 2ffd9a6c <usb_dwc2_write_packet+0x38>
2ffd9a38:	3303      	adds	r3, #3
2ffd9a3a:	b5f0      	push	{r4, r5, r6, r7, lr}
2ffd9a3c:	3222      	adds	r2, #34	; 0x22
2ffd9a3e:	109b      	asrs	r3, r3, #2
2ffd9a40:	2400      	movs	r4, #0
2ffd9a42:	429c      	cmp	r4, r3
2ffd9a44:	d101      	bne.n	2ffd9a4a <usb_dwc2_write_packet+0x16>
2ffd9a46:	2000      	movs	r0, #0
2ffd9a48:	bdf0      	pop	{r4, r5, r6, r7, pc}
2ffd9a4a:	2000      	movs	r0, #0
2ffd9a4c:	1e4f      	subs	r7, r1, #1
2ffd9a4e:	4605      	mov	r5, r0
2ffd9a50:	f817 6f01 	ldrb.w	r6, [r7, #1]!
2ffd9a54:	4086      	lsls	r6, r0
2ffd9a56:	3008      	adds	r0, #8
2ffd9a58:	4435      	add	r5, r6
2ffd9a5a:	2820      	cmp	r0, #32
2ffd9a5c:	d1f8      	bne.n	2ffd9a50 <usb_dwc2_write_packet+0x1c>
2ffd9a5e:	f85c 0022 	ldr.w	r0, [ip, r2, lsl #2]
2ffd9a62:	3401      	adds	r4, #1
2ffd9a64:	3104      	adds	r1, #4
2ffd9a66:	6005      	str	r5, [r0, #0]
2ffd9a68:	e7eb      	b.n	2ffd9a42 <usb_dwc2_write_packet+0xe>
2ffd9a6a:	bf00      	nop
2ffd9a6c:	2ffe7d98 	.word	0x2ffe7d98

2ffd9a70 <usb_dwc2_ep_start_xfer>:
2ffd9a70:	e92d 41f0 	stmdb	sp!, {r4, r5, r6, r7, r8, lr}
2ffd9a74:	f891 e001 	ldrb.w	lr, [r1, #1]
2ffd9a78:	780a      	ldrb	r2, [r1, #0]
2ffd9a7a:	694b      	ldr	r3, [r1, #20]
2ffd9a7c:	f1be 0f01 	cmp.w	lr, #1
2ffd9a80:	78ce      	ldrb	r6, [r1, #3]
2ffd9a82:	4d3a      	ldr	r5, [pc, #232]	; (2ffd9b6c <usb_dwc2_ep_start_xfer+0xfc>)
2ffd9a84:	d145      	bne.n	2ffd9b12 <usb_dwc2_ep_start_xfer+0xa2>
2ffd9a86:	6800      	ldr	r0, [r0, #0]
2ffd9a88:	1c94      	adds	r4, r2, #2
2ffd9a8a:	f855 7024 	ldr.w	r7, [r5, r4, lsl #2]
2ffd9a8e:	693c      	ldr	r4, [r7, #16]
2ffd9a90:	f004 4860 	and.w	r8, r4, #3758096384	; 0xe0000000
2ffd9a94:	b963      	cbnz	r3, 2ffd9ab0 <usb_dwc2_ep_start_xfer+0x40>
2ffd9a96:	2e01      	cmp	r6, #1
2ffd9a98:	f448 2400 	orr.w	r4, r8, #524288	; 0x80000
2ffd9a9c:	613c      	str	r4, [r7, #16]
2ffd9a9e:	d121      	bne.n	2ffd9ae4 <usb_dwc2_ep_start_xfer+0x74>
2ffd9aa0:	686d      	ldr	r5, [r5, #4]
2ffd9aa2:	683c      	ldr	r4, [r7, #0]
2ffd9aa4:	68ad      	ldr	r5, [r5, #8]
2ffd9aa6:	05ed      	lsls	r5, r5, #23
2ffd9aa8:	d52f      	bpl.n	2ffd9b0a <usb_dwc2_ep_start_xfer+0x9a>
2ffd9aaa:	f044 5480 	orr.w	r4, r4, #268435456	; 0x10000000
2ffd9aae:	e02e      	b.n	2ffd9b0e <usb_dwc2_ep_start_xfer+0x9e>
2ffd9ab0:	688c      	ldr	r4, [r1, #8]
2ffd9ab2:	2e01      	cmp	r6, #1
2ffd9ab4:	eb03 0c04 	add.w	ip, r3, r4
2ffd9ab8:	f10c 3cff 	add.w	ip, ip, #4294967295	; 0xffffffff
2ffd9abc:	fbbc fcf4 	udiv	ip, ip, r4
2ffd9ac0:	4c2b      	ldr	r4, [pc, #172]	; (2ffd9b70 <usb_dwc2_ep_start_xfer+0x100>)
2ffd9ac2:	ea04 44cc 	and.w	r4, r4, ip, lsl #19
2ffd9ac6:	f3c3 0c12 	ubfx	ip, r3, #0, #19
2ffd9aca:	ea4c 0808 	orr.w	r8, ip, r8
2ffd9ace:	ea44 0408 	orr.w	r4, r4, r8
2ffd9ad2:	d014      	beq.n	2ffd9afe <usb_dwc2_ep_start_xfer+0x8e>
2ffd9ad4:	686d      	ldr	r5, [r5, #4]
2ffd9ad6:	613c      	str	r4, [r7, #16]
2ffd9ad8:	6b6c      	ldr	r4, [r5, #52]	; 0x34
2ffd9ada:	fa0e fe02 	lsl.w	lr, lr, r2
2ffd9ade:	ea44 040e 	orr.w	r4, r4, lr
2ffd9ae2:	636c      	str	r4, [r5, #52]	; 0x34
2ffd9ae4:	683c      	ldr	r4, [r7, #0]
2ffd9ae6:	2e01      	cmp	r6, #1
2ffd9ae8:	f044 4404 	orr.w	r4, r4, #2214592512	; 0x84000000
2ffd9aec:	603c      	str	r4, [r7, #0]
2ffd9aee:	d103      	bne.n	2ffd9af8 <usb_dwc2_ep_start_xfer+0x88>
2ffd9af0:	68c9      	ldr	r1, [r1, #12]
2ffd9af2:	b29b      	uxth	r3, r3
2ffd9af4:	f7ff ff9e 	bl	2ffd9a34 <usb_dwc2_write_packet>
2ffd9af8:	2000      	movs	r0, #0
2ffd9afa:	e8bd 81f0 	ldmia.w	sp!, {r4, r5, r6, r7, r8, pc}
2ffd9afe:	f024 44c0 	bic.w	r4, r4, #1610612736	; 0x60000000
2ffd9b02:	f044 5400 	orr.w	r4, r4, #536870912	; 0x20000000
2ffd9b06:	613c      	str	r4, [r7, #16]
2ffd9b08:	e7ca      	b.n	2ffd9aa0 <usb_dwc2_ep_start_xfer+0x30>
2ffd9b0a:	f044 5400 	orr.w	r4, r4, #536870912	; 0x20000000
2ffd9b0e:	603c      	str	r4, [r7, #0]
2ffd9b10:	e7e8      	b.n	2ffd9ae4 <usb_dwc2_ep_start_xfer+0x74>
2ffd9b12:	3212      	adds	r2, #18
2ffd9b14:	f855 0022 	ldr.w	r0, [r5, r2, lsl #2]
2ffd9b18:	6902      	ldr	r2, [r0, #16]
2ffd9b1a:	f002 4460 	and.w	r4, r2, #3758096384	; 0xe0000000
2ffd9b1e:	688a      	ldr	r2, [r1, #8]
2ffd9b20:	b9b3      	cbnz	r3, 2ffd9b50 <usb_dwc2_ep_start_xfer+0xe0>
2ffd9b22:	f3c2 0212 	ubfx	r2, r2, #0, #19
2ffd9b26:	4322      	orrs	r2, r4
2ffd9b28:	f442 2200 	orr.w	r2, r2, #524288	; 0x80000
2ffd9b2c:	6102      	str	r2, [r0, #16]
2ffd9b2e:	2e01      	cmp	r6, #1
2ffd9b30:	d109      	bne.n	2ffd9b46 <usb_dwc2_ep_start_xfer+0xd6>
2ffd9b32:	686a      	ldr	r2, [r5, #4]
2ffd9b34:	6803      	ldr	r3, [r0, #0]
2ffd9b36:	6892      	ldr	r2, [r2, #8]
2ffd9b38:	05d6      	lsls	r6, r2, #23
2ffd9b3a:	bf54      	ite	pl
2ffd9b3c:	f043 5300 	orrpl.w	r3, r3, #536870912	; 0x20000000
2ffd9b40:	f043 5380 	orrmi.w	r3, r3, #268435456	; 0x10000000
2ffd9b44:	6003      	str	r3, [r0, #0]
2ffd9b46:	6803      	ldr	r3, [r0, #0]
2ffd9b48:	f043 4304 	orr.w	r3, r3, #2214592512	; 0x84000000
2ffd9b4c:	6003      	str	r3, [r0, #0]
2ffd9b4e:	e7d3      	b.n	2ffd9af8 <usb_dwc2_ep_start_xfer+0x88>
2ffd9b50:	4413      	add	r3, r2
2ffd9b52:	3b01      	subs	r3, #1
2ffd9b54:	fbb3 f3f2 	udiv	r3, r3, r2
2ffd9b58:	b299      	uxth	r1, r3
2ffd9b5a:	434a      	muls	r2, r1
2ffd9b5c:	4904      	ldr	r1, [pc, #16]	; (2ffd9b70 <usb_dwc2_ep_start_xfer+0x100>)
2ffd9b5e:	f3c2 0212 	ubfx	r2, r2, #0, #19
2ffd9b62:	4322      	orrs	r2, r4
2ffd9b64:	ea01 43c3 	and.w	r3, r1, r3, lsl #19
2ffd9b68:	431a      	orrs	r2, r3
2ffd9b6a:	e7df      	b.n	2ffd9b2c <usb_dwc2_ep_start_xfer+0xbc>
2ffd9b6c:	2ffe7d98 	.word	0x2ffe7d98
2ffd9b70:	1ff80000 	.word	0x1ff80000

2ffd9b74 <usb_dwc2_read_packet>:
2ffd9b74:	4809      	ldr	r0, [pc, #36]	; (2ffd9b9c <usb_dwc2_read_packet+0x28>)
2ffd9b76:	3203      	adds	r2, #3
2ffd9b78:	2300      	movs	r3, #0
2ffd9b7a:	1092      	asrs	r2, r2, #2
2ffd9b7c:	b510      	push	{r4, lr}
2ffd9b7e:	4293      	cmp	r3, r2
2ffd9b80:	d102      	bne.n	2ffd9b88 <usb_dwc2_read_packet+0x14>
2ffd9b82:	eb01 0083 	add.w	r0, r1, r3, lsl #2
2ffd9b86:	bd10      	pop	{r4, pc}
2ffd9b88:	f8d0 4088 	ldr.w	r4, [r0, #136]	; 0x88
2ffd9b8c:	6824      	ldr	r4, [r4, #0]
2ffd9b8e:	f841 4023 	str.w	r4, [r1, r3, lsl #2]
2ffd9b92:	f3bf 8f4f 	dsb	sy
2ffd9b96:	3301      	adds	r3, #1
2ffd9b98:	e7f1      	b.n	2ffd9b7e <usb_dwc2_read_packet+0xa>
2ffd9b9a:	bf00      	nop
2ffd9b9c:	2ffe7d98 	.word	0x2ffe7d98

2ffd9ba0 <usb_dwc2_stop_device>:
2ffd9ba0:	b510      	push	{r4, lr}
2ffd9ba2:	2300      	movs	r3, #0
2ffd9ba4:	6804      	ldr	r4, [r0, #0]
2ffd9ba6:	21ff      	movs	r1, #255	; 0xff
2ffd9ba8:	4a0a      	ldr	r2, [pc, #40]	; (2ffd9bd4 <usb_dwc2_stop_device+0x34>)
2ffd9baa:	f852 0b04 	ldr.w	r0, [r2], #4
2ffd9bae:	3301      	adds	r3, #1
2ffd9bb0:	2b0f      	cmp	r3, #15
2ffd9bb2:	6081      	str	r1, [r0, #8]
2ffd9bb4:	6bd0      	ldr	r0, [r2, #60]	; 0x3c
2ffd9bb6:	6081      	str	r1, [r0, #8]
2ffd9bb8:	d1f7      	bne.n	2ffd9baa <usb_dwc2_stop_device+0xa>
2ffd9bba:	4b07      	ldr	r3, [pc, #28]	; (2ffd9bd8 <usb_dwc2_stop_device+0x38>)
2ffd9bbc:	2000      	movs	r0, #0
2ffd9bbe:	f04f 32ff 	mov.w	r2, #4294967295	; 0xffffffff
2ffd9bc2:	685b      	ldr	r3, [r3, #4]
2ffd9bc4:	619a      	str	r2, [r3, #24]
2ffd9bc6:	6118      	str	r0, [r3, #16]
2ffd9bc8:	6158      	str	r0, [r3, #20]
2ffd9bca:	61d8      	str	r0, [r3, #28]
2ffd9bcc:	f44f 6384 	mov.w	r3, #1056	; 0x420
2ffd9bd0:	6123      	str	r3, [r4, #16]
2ffd9bd2:	bd10      	pop	{r4, pc}
2ffd9bd4:	2ffe7da0 	.word	0x2ffe7da0
2ffd9bd8:	2ffe7d98 	.word	0x2ffe7d98

2ffd9bdc <usb_dwc2_set_address>:
2ffd9bdc:	4b05      	ldr	r3, [pc, #20]	; (2ffd9bf4 <usb_dwc2_set_address+0x18>)
2ffd9bde:	2000      	movs	r0, #0
2ffd9be0:	0109      	lsls	r1, r1, #4
2ffd9be2:	685a      	ldr	r2, [r3, #4]
2ffd9be4:	f401 61fe 	and.w	r1, r1, #2032	; 0x7f0
2ffd9be8:	6813      	ldr	r3, [r2, #0]
2ffd9bea:	f423 63fe 	bic.w	r3, r3, #2032	; 0x7f0
2ffd9bee:	430b      	orrs	r3, r1
2ffd9bf0:	6013      	str	r3, [r2, #0]
2ffd9bf2:	4770      	bx	lr
2ffd9bf4:	2ffe7d98 	.word	0x2ffe7d98

2ffd9bf8 <usb_dwc2_dev_disconnect>:
2ffd9bf8:	4b03      	ldr	r3, [pc, #12]	; (2ffd9c08 <usb_dwc2_dev_disconnect+0x10>)
2ffd9bfa:	2000      	movs	r0, #0
2ffd9bfc:	685a      	ldr	r2, [r3, #4]
2ffd9bfe:	6853      	ldr	r3, [r2, #4]
2ffd9c00:	f043 0302 	orr.w	r3, r3, #2
2ffd9c04:	6053      	str	r3, [r2, #4]
2ffd9c06:	4770      	bx	lr
2ffd9c08:	2ffe7d98 	.word	0x2ffe7d98

2ffd9c0c <usb_dwc2_write_empty_tx_fifo>:
2ffd9c0c:	e92d 4ff7 	stmdb	sp!, {r0, r1, r2, r4, r5, r6, r7, r8, r9, sl, fp, lr}
2ffd9c10:	461f      	mov	r7, r3
2ffd9c12:	6803      	ldr	r3, [r0, #0]
2ffd9c14:	4688      	mov	r8, r1
2ffd9c16:	683c      	ldr	r4, [r7, #0]
2ffd9c18:	4616      	mov	r6, r2
2ffd9c1a:	f8dd 9034 	ldr.w	r9, [sp, #52]	; 0x34
2ffd9c1e:	1b14      	subs	r4, r2, r4
2ffd9c20:	9301      	str	r3, [sp, #4]
2ffd9c22:	2c00      	cmp	r4, #0
2ffd9c24:	dd03      	ble.n	2ffd9c2e <usb_dwc2_write_empty_tx_fifo+0x22>
2ffd9c26:	9b0c      	ldr	r3, [sp, #48]	; 0x30
2ffd9c28:	429c      	cmp	r4, r3
2ffd9c2a:	bf28      	it	cs
2ffd9c2c:	461c      	movcs	r4, r3
2ffd9c2e:	f8df a078 	ldr.w	sl, [pc, #120]	; 2ffd9ca8 <usb_dwc2_write_empty_tx_fifo+0x9c>
2ffd9c32:	1ce5      	adds	r5, r4, #3
2ffd9c34:	bf48      	it	mi
2ffd9c36:	1da5      	addmi	r5, r4, #6
2ffd9c38:	f108 0b02 	add.w	fp, r8, #2
2ffd9c3c:	10ad      	asrs	r5, r5, #2
2ffd9c3e:	f85a 302b 	ldr.w	r3, [sl, fp, lsl #2]
2ffd9c42:	8b1b      	ldrh	r3, [r3, #24]
2ffd9c44:	42ab      	cmp	r3, r5
2ffd9c46:	d80e      	bhi.n	2ffd9c66 <usb_dwc2_write_empty_tx_fifo+0x5a>
2ffd9c48:	2c00      	cmp	r4, #0
2ffd9c4a:	dc08      	bgt.n	2ffd9c5e <usb_dwc2_write_empty_tx_fifo+0x52>
2ffd9c4c:	4b16      	ldr	r3, [pc, #88]	; (2ffd9ca8 <usb_dwc2_write_empty_tx_fifo+0x9c>)
2ffd9c4e:	685a      	ldr	r2, [r3, #4]
2ffd9c50:	2301      	movs	r3, #1
2ffd9c52:	fa03 f808 	lsl.w	r8, r3, r8
2ffd9c56:	6b53      	ldr	r3, [r2, #52]	; 0x34
2ffd9c58:	ea23 0308 	bic.w	r3, r3, r8
2ffd9c5c:	6353      	str	r3, [r2, #52]	; 0x34
2ffd9c5e:	2000      	movs	r0, #0
2ffd9c60:	b003      	add	sp, #12
2ffd9c62:	e8bd 8ff0 	ldmia.w	sp!, {r4, r5, r6, r7, r8, r9, sl, fp, pc}
2ffd9c66:	683b      	ldr	r3, [r7, #0]
2ffd9c68:	42b3      	cmp	r3, r6
2ffd9c6a:	d2ed      	bcs.n	2ffd9c48 <usb_dwc2_write_empty_tx_fifo+0x3c>
2ffd9c6c:	2e00      	cmp	r6, #0
2ffd9c6e:	d0eb      	beq.n	2ffd9c48 <usb_dwc2_write_empty_tx_fifo+0x3c>
2ffd9c70:	1af4      	subs	r4, r6, r3
2ffd9c72:	2c00      	cmp	r4, #0
2ffd9c74:	dd03      	ble.n	2ffd9c7e <usb_dwc2_write_empty_tx_fifo+0x72>
2ffd9c76:	9b0c      	ldr	r3, [sp, #48]	; 0x30
2ffd9c78:	429c      	cmp	r4, r3
2ffd9c7a:	bf28      	it	cs
2ffd9c7c:	461c      	movcs	r4, r3
2ffd9c7e:	f8d9 1000 	ldr.w	r1, [r9]
2ffd9c82:	1ce5      	adds	r5, r4, #3
2ffd9c84:	9801      	ldr	r0, [sp, #4]
2ffd9c86:	b2a3      	uxth	r3, r4
2ffd9c88:	fa5f f288 	uxtb.w	r2, r8
2ffd9c8c:	bf48      	it	mi
2ffd9c8e:	1da5      	addmi	r5, r4, #6
2ffd9c90:	f7ff fed0 	bl	2ffd9a34 <usb_dwc2_write_packet>
2ffd9c94:	f8d9 3000 	ldr.w	r3, [r9]
2ffd9c98:	10ad      	asrs	r5, r5, #2
2ffd9c9a:	4423      	add	r3, r4
2ffd9c9c:	f8c9 3000 	str.w	r3, [r9]
2ffd9ca0:	683b      	ldr	r3, [r7, #0]
2ffd9ca2:	4423      	add	r3, r4
2ffd9ca4:	603b      	str	r3, [r7, #0]
2ffd9ca6:	e7ca      	b.n	2ffd9c3e <usb_dwc2_write_empty_tx_fifo+0x32>
2ffd9ca8:	2ffe7d98 	.word	0x2ffe7d98

2ffd9cac <usb_dwc2_it_handler>:
2ffd9cac:	b5f8      	push	{r3, r4, r5, r6, r7, lr}
2ffd9cae:	460d      	mov	r5, r1
2ffd9cb0:	6804      	ldr	r4, [r0, #0]
2ffd9cb2:	6963      	ldr	r3, [r4, #20]
2ffd9cb4:	07da      	lsls	r2, r3, #31
2ffd9cb6:	f100 8170 	bmi.w	2ffd9f9a <usb_dwc2_it_handler+0x2ee>
2ffd9cba:	69a2      	ldr	r2, [r4, #24]
2ffd9cbc:	4013      	ands	r3, r2
2ffd9cbe:	f000 816c 	beq.w	2ffd9f9a <usb_dwc2_it_handler+0x2ee>
2ffd9cc2:	079b      	lsls	r3, r3, #30
2ffd9cc4:	bf44      	itt	mi
2ffd9cc6:	2302      	movmi	r3, #2
2ffd9cc8:	6163      	strmi	r3, [r4, #20]
2ffd9cca:	6966      	ldr	r6, [r4, #20]
2ffd9ccc:	4016      	ands	r6, r2
2ffd9cce:	f416 2300 	ands.w	r3, r6, #524288	; 0x80000
2ffd9cd2:	d02e      	beq.n	2ffd9d32 <usb_dwc2_it_handler+0x86>
2ffd9cd4:	4a94      	ldr	r2, [pc, #592]	; (2ffd9f28 <usb_dwc2_it_handler+0x27c>)
2ffd9cd6:	6850      	ldr	r0, [r2, #4]
2ffd9cd8:	69c3      	ldr	r3, [r0, #28]
2ffd9cda:	6981      	ldr	r1, [r0, #24]
2ffd9cdc:	4019      	ands	r1, r3
2ffd9cde:	2300      	movs	r3, #0
2ffd9ce0:	0c09      	lsrs	r1, r1, #16
2ffd9ce2:	07cf      	lsls	r7, r1, #31
2ffd9ce4:	d511      	bpl.n	2ffd9d0a <usb_dwc2_it_handler+0x5e>
2ffd9ce6:	6940      	ldr	r0, [r0, #20]
2ffd9ce8:	b2d9      	uxtb	r1, r3
2ffd9cea:	3112      	adds	r1, #18
2ffd9cec:	f852 1021 	ldr.w	r1, [r2, r1, lsl #2]
2ffd9cf0:	6889      	ldr	r1, [r1, #8]
2ffd9cf2:	4001      	ands	r1, r0
2ffd9cf4:	f011 0001 	ands.w	r0, r1, #1
2ffd9cf8:	d00a      	beq.n	2ffd9d10 <usb_dwc2_it_handler+0x64>
2ffd9cfa:	f103 0112 	add.w	r1, r3, #18
2ffd9cfe:	f852 2021 	ldr.w	r2, [r2, r1, lsl #2]
2ffd9d02:	2101      	movs	r1, #1
2ffd9d04:	6091      	str	r1, [r2, #8]
2ffd9d06:	602b      	str	r3, [r5, #0]
2ffd9d08:	bdf8      	pop	{r3, r4, r5, r6, r7, pc}
2ffd9d0a:	0849      	lsrs	r1, r1, #1
2ffd9d0c:	3301      	adds	r3, #1
2ffd9d0e:	e7e8      	b.n	2ffd9ce2 <usb_dwc2_it_handler+0x36>
2ffd9d10:	0708      	lsls	r0, r1, #28
2ffd9d12:	d506      	bpl.n	2ffd9d22 <usb_dwc2_it_handler+0x76>
2ffd9d14:	3312      	adds	r3, #18
2ffd9d16:	2003      	movs	r0, #3
2ffd9d18:	f852 3023 	ldr.w	r3, [r2, r3, lsl #2]
2ffd9d1c:	2208      	movs	r2, #8
2ffd9d1e:	609a      	str	r2, [r3, #8]
2ffd9d20:	e7f2      	b.n	2ffd9d08 <usb_dwc2_it_handler+0x5c>
2ffd9d22:	06cf      	lsls	r7, r1, #27
2ffd9d24:	bf41      	itttt	mi
2ffd9d26:	f103 0112 	addmi.w	r1, r3, #18
2ffd9d2a:	f852 2021 	ldrmi.w	r2, [r2, r1, lsl #2]
2ffd9d2e:	2110      	movmi	r1, #16
2ffd9d30:	6091      	strmi	r1, [r2, #8]
2ffd9d32:	0370      	lsls	r0, r6, #13
2ffd9d34:	d54a      	bpl.n	2ffd9dcc <usb_dwc2_it_handler+0x120>
2ffd9d36:	487c      	ldr	r0, [pc, #496]	; (2ffd9f28 <usb_dwc2_it_handler+0x27c>)
2ffd9d38:	6847      	ldr	r7, [r0, #4]
2ffd9d3a:	69ba      	ldr	r2, [r7, #24]
2ffd9d3c:	69f9      	ldr	r1, [r7, #28]
2ffd9d3e:	400a      	ands	r2, r1
2ffd9d40:	b292      	uxth	r2, r2
2ffd9d42:	07d1      	lsls	r1, r2, #31
2ffd9d44:	d51e      	bpl.n	2ffd9d84 <usb_dwc2_it_handler+0xd8>
2ffd9d46:	f8d7 c034 	ldr.w	ip, [r7, #52]	; 0x34
2ffd9d4a:	fa5f fe83 	uxtb.w	lr, r3
2ffd9d4e:	6939      	ldr	r1, [r7, #16]
2ffd9d50:	fa2c f20e 	lsr.w	r2, ip, lr
2ffd9d54:	f10e 0e02 	add.w	lr, lr, #2
2ffd9d58:	01d2      	lsls	r2, r2, #7
2ffd9d5a:	b2d2      	uxtb	r2, r2
2ffd9d5c:	430a      	orrs	r2, r1
2ffd9d5e:	f850 102e 	ldr.w	r1, [r0, lr, lsl #2]
2ffd9d62:	6889      	ldr	r1, [r1, #8]
2ffd9d64:	400a      	ands	r2, r1
2ffd9d66:	07d1      	lsls	r1, r2, #31
2ffd9d68:	d50f      	bpl.n	2ffd9d8a <usb_dwc2_it_handler+0xde>
2ffd9d6a:	2101      	movs	r1, #1
2ffd9d6c:	fa01 f203 	lsl.w	r2, r1, r3
2ffd9d70:	ea2c 0202 	bic.w	r2, ip, r2
2ffd9d74:	637a      	str	r2, [r7, #52]	; 0x34
2ffd9d76:	1c9a      	adds	r2, r3, #2
2ffd9d78:	f850 2022 	ldr.w	r2, [r0, r2, lsl #2]
2ffd9d7c:	2002      	movs	r0, #2
2ffd9d7e:	6091      	str	r1, [r2, #8]
2ffd9d80:	602b      	str	r3, [r5, #0]
2ffd9d82:	e7c1      	b.n	2ffd9d08 <usb_dwc2_it_handler+0x5c>
2ffd9d84:	0852      	lsrs	r2, r2, #1
2ffd9d86:	3301      	adds	r3, #1
2ffd9d88:	e7db      	b.n	2ffd9d42 <usb_dwc2_it_handler+0x96>
2ffd9d8a:	0717      	lsls	r7, r2, #28
2ffd9d8c:	bf41      	itttt	mi
2ffd9d8e:	1c99      	addmi	r1, r3, #2
2ffd9d90:	2708      	movmi	r7, #8
2ffd9d92:	f850 1021 	ldrmi.w	r1, [r0, r1, lsl #2]
2ffd9d96:	608f      	strmi	r7, [r1, #8]
2ffd9d98:	06d1      	lsls	r1, r2, #27
2ffd9d9a:	bf41      	itttt	mi
2ffd9d9c:	1c99      	addmi	r1, r3, #2
2ffd9d9e:	2710      	movmi	r7, #16
2ffd9da0:	f850 1021 	ldrmi.w	r1, [r0, r1, lsl #2]
2ffd9da4:	608f      	strmi	r7, [r1, #8]
2ffd9da6:	0657      	lsls	r7, r2, #25
2ffd9da8:	bf41      	itttt	mi
2ffd9daa:	1c99      	addmi	r1, r3, #2
2ffd9dac:	2740      	movmi	r7, #64	; 0x40
2ffd9dae:	f850 1021 	ldrmi.w	r1, [r0, r1, lsl #2]
2ffd9db2:	608f      	strmi	r7, [r1, #8]
2ffd9db4:	0791      	lsls	r1, r2, #30
2ffd9db6:	bf41      	itttt	mi
2ffd9db8:	1c99      	addmi	r1, r3, #2
2ffd9dba:	f850 1021 	ldrmi.w	r1, [r0, r1, lsl #2]
2ffd9dbe:	2002      	movmi	r0, #2
2ffd9dc0:	6088      	strmi	r0, [r1, #8]
2ffd9dc2:	0612      	lsls	r2, r2, #24
2ffd9dc4:	d502      	bpl.n	2ffd9dcc <usb_dwc2_it_handler+0x120>
2ffd9dc6:	602b      	str	r3, [r5, #0]
2ffd9dc8:	200c      	movs	r0, #12
2ffd9dca:	e79d      	b.n	2ffd9d08 <usb_dwc2_it_handler+0x5c>
2ffd9dcc:	2e00      	cmp	r6, #0
2ffd9dce:	da0d      	bge.n	2ffd9dec <usb_dwc2_it_handler+0x140>
2ffd9dd0:	4856      	ldr	r0, [pc, #344]	; (2ffd9f2c <usb_dwc2_it_handler+0x280>)
2ffd9dd2:	f001 f9ff 	bl	2ffdb1d4 <tf_log>
2ffd9dd6:	4b54      	ldr	r3, [pc, #336]	; (2ffd9f28 <usb_dwc2_it_handler+0x27c>)
2ffd9dd8:	2007      	movs	r0, #7
2ffd9dda:	685a      	ldr	r2, [r3, #4]
2ffd9ddc:	6853      	ldr	r3, [r2, #4]
2ffd9dde:	f023 0301 	bic.w	r3, r3, #1
2ffd9de2:	6053      	str	r3, [r2, #4]
2ffd9de4:	f04f 4300 	mov.w	r3, #2147483648	; 0x80000000
2ffd9de8:	6163      	str	r3, [r4, #20]
2ffd9dea:	e78d      	b.n	2ffd9d08 <usb_dwc2_it_handler+0x5c>
2ffd9dec:	0533      	lsls	r3, r6, #20
2ffd9dee:	d410      	bmi.n	2ffd9e12 <usb_dwc2_it_handler+0x166>
2ffd9df0:	6963      	ldr	r3, [r4, #20]
2ffd9df2:	69a2      	ldr	r2, [r4, #24]
2ffd9df4:	4013      	ands	r3, r2
2ffd9df6:	011f      	lsls	r7, r3, #4
2ffd9df8:	d518      	bpl.n	2ffd9e2c <usb_dwc2_it_handler+0x180>
2ffd9dfa:	484d      	ldr	r0, [pc, #308]	; (2ffd9f30 <usb_dwc2_it_handler+0x284>)
2ffd9dfc:	f001 f9ea 	bl	2ffdb1d4 <tf_log>
2ffd9e00:	f04f 6300 	mov.w	r3, #134217728	; 0x8000000
2ffd9e04:	2009      	movs	r0, #9
2ffd9e06:	6163      	str	r3, [r4, #20]
2ffd9e08:	6d63      	ldr	r3, [r4, #84]	; 0x54
2ffd9e0a:	f3c3 0383 	ubfx	r3, r3, #2, #4
2ffd9e0e:	602b      	str	r3, [r5, #0]
2ffd9e10:	e77a      	b.n	2ffd9d08 <usb_dwc2_it_handler+0x5c>
2ffd9e12:	4848      	ldr	r0, [pc, #288]	; (2ffd9f34 <usb_dwc2_it_handler+0x288>)
2ffd9e14:	f001 f9de 	bl	2ffdb1d4 <tf_log>
2ffd9e18:	f44f 6300 	mov.w	r3, #2048	; 0x800
2ffd9e1c:	6163      	str	r3, [r4, #20]
2ffd9e1e:	4b42      	ldr	r3, [pc, #264]	; (2ffd9f28 <usb_dwc2_it_handler+0x27c>)
2ffd9e20:	685b      	ldr	r3, [r3, #4]
2ffd9e22:	689b      	ldr	r3, [r3, #8]
2ffd9e24:	07de      	lsls	r6, r3, #31
2ffd9e26:	d5e3      	bpl.n	2ffd9df0 <usb_dwc2_it_handler+0x144>
2ffd9e28:	2008      	movs	r0, #8
2ffd9e2a:	e76d      	b.n	2ffd9d08 <usb_dwc2_it_handler+0x5c>
2ffd9e2c:	04d8      	lsls	r0, r3, #19
2ffd9e2e:	d523      	bpl.n	2ffd9e78 <usb_dwc2_it_handler+0x1cc>
2ffd9e30:	4841      	ldr	r0, [pc, #260]	; (2ffd9f38 <usb_dwc2_it_handler+0x28c>)
2ffd9e32:	f001 f9cf 	bl	2ffdb1d4 <tf_log>
2ffd9e36:	493c      	ldr	r1, [pc, #240]	; (2ffd9f28 <usb_dwc2_it_handler+0x27c>)
2ffd9e38:	684b      	ldr	r3, [r1, #4]
2ffd9e3a:	685a      	ldr	r2, [r3, #4]
2ffd9e3c:	f022 0201 	bic.w	r2, r2, #1
2ffd9e40:	605a      	str	r2, [r3, #4]
2ffd9e42:	2220      	movs	r2, #32
2ffd9e44:	6122      	str	r2, [r4, #16]
2ffd9e46:	f04f 32ff 	mov.w	r2, #4294967295	; 0xffffffff
2ffd9e4a:	619a      	str	r2, [r3, #24]
2ffd9e4c:	69da      	ldr	r2, [r3, #28]
2ffd9e4e:	f042 1201 	orr.w	r2, r2, #65537	; 0x10001
2ffd9e52:	61da      	str	r2, [r3, #28]
2ffd9e54:	695a      	ldr	r2, [r3, #20]
2ffd9e56:	f042 020b 	orr.w	r2, r2, #11
2ffd9e5a:	615a      	str	r2, [r3, #20]
2ffd9e5c:	691a      	ldr	r2, [r3, #16]
2ffd9e5e:	f042 020b 	orr.w	r2, r2, #11
2ffd9e62:	611a      	str	r2, [r3, #16]
2ffd9e64:	681a      	ldr	r2, [r3, #0]
2ffd9e66:	f422 62fe 	bic.w	r2, r2, #2032	; 0x7f0
2ffd9e6a:	601a      	str	r2, [r3, #0]
2ffd9e6c:	6c8b      	ldr	r3, [r1, #72]	; 0x48
2ffd9e6e:	4a33      	ldr	r2, [pc, #204]	; (2ffd9f3c <usb_dwc2_it_handler+0x290>)
2ffd9e70:	611a      	str	r2, [r3, #16]
2ffd9e72:	f44f 5380 	mov.w	r3, #4096	; 0x1000
2ffd9e76:	6163      	str	r3, [r4, #20]
2ffd9e78:	6962      	ldr	r2, [r4, #20]
2ffd9e7a:	69a3      	ldr	r3, [r4, #24]
2ffd9e7c:	401a      	ands	r2, r3
2ffd9e7e:	0491      	lsls	r1, r2, #18
2ffd9e80:	d521      	bpl.n	2ffd9ec6 <usb_dwc2_it_handler+0x21a>
2ffd9e82:	4a29      	ldr	r2, [pc, #164]	; (2ffd9f28 <usb_dwc2_it_handler+0x27c>)
2ffd9e84:	6891      	ldr	r1, [r2, #8]
2ffd9e86:	6852      	ldr	r2, [r2, #4]
2ffd9e88:	680b      	ldr	r3, [r1, #0]
2ffd9e8a:	6890      	ldr	r0, [r2, #8]
2ffd9e8c:	f423 63ff 	bic.w	r3, r3, #2040	; 0x7f8
2ffd9e90:	f023 0307 	bic.w	r3, r3, #7
2ffd9e94:	f000 0006 	and.w	r0, r0, #6
2ffd9e98:	600b      	str	r3, [r1, #0]
2ffd9e9a:	2804      	cmp	r0, #4
2ffd9e9c:	bf08      	it	eq
2ffd9e9e:	f043 0303 	orreq.w	r3, r3, #3
2ffd9ea2:	f04f 0004 	mov.w	r0, #4
2ffd9ea6:	bf08      	it	eq
2ffd9ea8:	600b      	streq	r3, [r1, #0]
2ffd9eaa:	6853      	ldr	r3, [r2, #4]
2ffd9eac:	f443 7380 	orr.w	r3, r3, #256	; 0x100
2ffd9eb0:	6053      	str	r3, [r2, #4]
2ffd9eb2:	68e3      	ldr	r3, [r4, #12]
2ffd9eb4:	f423 5370 	bic.w	r3, r3, #15360	; 0x3c00
2ffd9eb8:	f443 5310 	orr.w	r3, r3, #9216	; 0x2400
2ffd9ebc:	60e3      	str	r3, [r4, #12]
2ffd9ebe:	f44f 5300 	mov.w	r3, #8192	; 0x2000
2ffd9ec2:	6163      	str	r3, [r4, #20]
2ffd9ec4:	e720      	b.n	2ffd9d08 <usb_dwc2_it_handler+0x5c>
2ffd9ec6:	06d7      	lsls	r7, r2, #27
2ffd9ec8:	d522      	bpl.n	2ffd9f10 <usb_dwc2_it_handler+0x264>
2ffd9eca:	6a22      	ldr	r2, [r4, #32]
2ffd9ecc:	f023 0310 	bic.w	r3, r3, #16
2ffd9ed0:	61a3      	str	r3, [r4, #24]
2ffd9ed2:	f002 010f 	and.w	r1, r2, #15
2ffd9ed6:	4b1a      	ldr	r3, [pc, #104]	; (2ffd9f40 <usb_dwc2_it_handler+0x294>)
2ffd9ed8:	f3c2 4043 	ubfx	r0, r2, #17, #4
2ffd9edc:	ea03 3302 	and.w	r3, r3, r2, lsl #12
2ffd9ee0:	2802      	cmp	r0, #2
2ffd9ee2:	ea43 0301 	orr.w	r3, r3, r1
2ffd9ee6:	602b      	str	r3, [r5, #0]
2ffd9ee8:	69a3      	ldr	r3, [r4, #24]
2ffd9eea:	d108      	bne.n	2ffd9efe <usb_dwc2_it_handler+0x252>
2ffd9eec:	f647 71f0 	movw	r1, #32752	; 0x7ff0
2ffd9ef0:	420a      	tst	r2, r1
2ffd9ef2:	d00a      	beq.n	2ffd9f0a <usb_dwc2_it_handler+0x25e>
2ffd9ef4:	f043 0310 	orr.w	r3, r3, #16
2ffd9ef8:	2005      	movs	r0, #5
2ffd9efa:	61a3      	str	r3, [r4, #24]
2ffd9efc:	e704      	b.n	2ffd9d08 <usb_dwc2_it_handler+0x5c>
2ffd9efe:	2806      	cmp	r0, #6
2ffd9f00:	d103      	bne.n	2ffd9f0a <usb_dwc2_it_handler+0x25e>
2ffd9f02:	f043 0310 	orr.w	r3, r3, #16
2ffd9f06:	61a3      	str	r3, [r4, #24]
2ffd9f08:	e6fe      	b.n	2ffd9d08 <usb_dwc2_it_handler+0x5c>
2ffd9f0a:	f043 0310 	orr.w	r3, r3, #16
2ffd9f0e:	61a3      	str	r3, [r4, #24]
2ffd9f10:	6963      	ldr	r3, [r4, #20]
2ffd9f12:	69a2      	ldr	r2, [r4, #24]
2ffd9f14:	4013      	ands	r3, r2
2ffd9f16:	071e      	lsls	r6, r3, #28
2ffd9f18:	d516      	bpl.n	2ffd9f48 <usb_dwc2_it_handler+0x29c>
2ffd9f1a:	480a      	ldr	r0, [pc, #40]	; (2ffd9f44 <usb_dwc2_it_handler+0x298>)
2ffd9f1c:	f001 f95a 	bl	2ffdb1d4 <tf_log>
2ffd9f20:	2308      	movs	r3, #8
2ffd9f22:	200a      	movs	r0, #10
2ffd9f24:	6163      	str	r3, [r4, #20]
2ffd9f26:	e6ef      	b.n	2ffd9d08 <usb_dwc2_it_handler+0x5c>
2ffd9f28:	2ffe7d98 	.word	0x2ffe7d98
2ffd9f2c:	2ffe3120 	.word	0x2ffe3120
2ffd9f30:	2ffe3151 	.word	0x2ffe3151
2ffd9f34:	2ffe3136 	.word	0x2ffe3136
2ffd9f38:	2ffe3179 	.word	0x2ffe3179
2ffd9f3c:	60080018 	.word	0x60080018
2ffd9f40:	07ff0000 	.word	0x07ff0000
2ffd9f44:	2ffe318e 	.word	0x2ffe318e
2ffd9f48:	02dd      	lsls	r5, r3, #11
2ffd9f4a:	d505      	bpl.n	2ffd9f58 <usb_dwc2_it_handler+0x2ac>
2ffd9f4c:	4815      	ldr	r0, [pc, #84]	; (2ffd9fa4 <usb_dwc2_it_handler+0x2f8>)
2ffd9f4e:	f001 f941 	bl	2ffdb1d4 <tf_log>
2ffd9f52:	f44f 1380 	mov.w	r3, #1048576	; 0x100000
2ffd9f56:	6163      	str	r3, [r4, #20]
2ffd9f58:	6963      	ldr	r3, [r4, #20]
2ffd9f5a:	69a2      	ldr	r2, [r4, #24]
2ffd9f5c:	4013      	ands	r3, r2
2ffd9f5e:	0298      	lsls	r0, r3, #10
2ffd9f60:	d505      	bpl.n	2ffd9f6e <usb_dwc2_it_handler+0x2c2>
2ffd9f62:	4811      	ldr	r0, [pc, #68]	; (2ffd9fa8 <usb_dwc2_it_handler+0x2fc>)
2ffd9f64:	f001 f936 	bl	2ffdb1d4 <tf_log>
2ffd9f68:	f44f 1300 	mov.w	r3, #2097152	; 0x200000
2ffd9f6c:	6163      	str	r3, [r4, #20]
2ffd9f6e:	6963      	ldr	r3, [r4, #20]
2ffd9f70:	69a2      	ldr	r2, [r4, #24]
2ffd9f72:	4013      	ands	r3, r2
2ffd9f74:	0059      	lsls	r1, r3, #1
2ffd9f76:	d505      	bpl.n	2ffd9f84 <usb_dwc2_it_handler+0x2d8>
2ffd9f78:	480c      	ldr	r0, [pc, #48]	; (2ffd9fac <usb_dwc2_it_handler+0x300>)
2ffd9f7a:	f001 f92b 	bl	2ffdb1d4 <tf_log>
2ffd9f7e:	f04f 4380 	mov.w	r3, #1073741824	; 0x40000000
2ffd9f82:	6163      	str	r3, [r4, #20]
2ffd9f84:	69a2      	ldr	r2, [r4, #24]
2ffd9f86:	6963      	ldr	r3, [r4, #20]
2ffd9f88:	4013      	ands	r3, r2
2ffd9f8a:	075a      	lsls	r2, r3, #29
2ffd9f8c:	d505      	bpl.n	2ffd9f9a <usb_dwc2_it_handler+0x2ee>
2ffd9f8e:	4808      	ldr	r0, [pc, #32]	; (2ffd9fb0 <usb_dwc2_it_handler+0x304>)
2ffd9f90:	f001 f920 	bl	2ffdb1d4 <tf_log>
2ffd9f94:	6863      	ldr	r3, [r4, #4]
2ffd9f96:	075b      	lsls	r3, r3, #29
2ffd9f98:	d401      	bmi.n	2ffd9f9e <usb_dwc2_it_handler+0x2f2>
2ffd9f9a:	2000      	movs	r0, #0
2ffd9f9c:	e6b4      	b.n	2ffd9d08 <usb_dwc2_it_handler+0x5c>
2ffd9f9e:	200b      	movs	r0, #11
2ffd9fa0:	e6b2      	b.n	2ffd9d08 <usb_dwc2_it_handler+0x5c>
2ffd9fa2:	bf00      	nop
2ffd9fa4:	2ffe31a1 	.word	0x2ffe31a1
2ffd9fa8:	2ffe31b7 	.word	0x2ffe31b7
2ffd9fac:	2ffe31ce 	.word	0x2ffe31ce
2ffd9fb0:	2ffe31e5 	.word	0x2ffe31e5

2ffd9fb4 <usb_dwc2_ep0_start_xfer>:
2ffd9fb4:	b570      	push	{r4, r5, r6, lr}
2ffd9fb6:	784b      	ldrb	r3, [r1, #1]
2ffd9fb8:	780a      	ldrb	r2, [r1, #0]
2ffd9fba:	694c      	ldr	r4, [r1, #20]
2ffd9fbc:	2b01      	cmp	r3, #1
2ffd9fbe:	4d1d      	ldr	r5, [pc, #116]	; (2ffda034 <usb_dwc2_ep0_start_xfer+0x80>)
2ffd9fc0:	d124      	bne.n	2ffda00c <usb_dwc2_ep0_start_xfer+0x58>
2ffd9fc2:	1c93      	adds	r3, r2, #2
2ffd9fc4:	f855 0023 	ldr.w	r0, [r5, r3, lsl #2]
2ffd9fc8:	6903      	ldr	r3, [r0, #16]
2ffd9fca:	f003 4360 	and.w	r3, r3, #3758096384	; 0xe0000000
2ffd9fce:	b944      	cbnz	r4, 2ffd9fe2 <usb_dwc2_ep0_start_xfer+0x2e>
2ffd9fd0:	f443 2300 	orr.w	r3, r3, #524288	; 0x80000
2ffd9fd4:	6103      	str	r3, [r0, #16]
2ffd9fd6:	6803      	ldr	r3, [r0, #0]
2ffd9fd8:	f043 4304 	orr.w	r3, r3, #2214592512	; 0x84000000
2ffd9fdc:	6003      	str	r3, [r0, #0]
2ffd9fde:	2000      	movs	r0, #0
2ffd9fe0:	bd70      	pop	{r4, r5, r6, pc}
2ffd9fe2:	688e      	ldr	r6, [r1, #8]
2ffd9fe4:	42a6      	cmp	r6, r4
2ffd9fe6:	bf38      	it	cc
2ffd9fe8:	614e      	strcc	r6, [r1, #20]
2ffd9fea:	694c      	ldr	r4, [r1, #20]
2ffd9fec:	f3c4 0112 	ubfx	r1, r4, #0, #19
2ffd9ff0:	430b      	orrs	r3, r1
2ffd9ff2:	f443 2300 	orr.w	r3, r3, #524288	; 0x80000
2ffd9ff6:	6103      	str	r3, [r0, #16]
2ffd9ff8:	2c00      	cmp	r4, #0
2ffd9ffa:	d0ec      	beq.n	2ffd9fd6 <usb_dwc2_ep0_start_xfer+0x22>
2ffd9ffc:	6869      	ldr	r1, [r5, #4]
2ffd9ffe:	2301      	movs	r3, #1
2ffda000:	fa03 f202 	lsl.w	r2, r3, r2
2ffda004:	6b4b      	ldr	r3, [r1, #52]	; 0x34
2ffda006:	4313      	orrs	r3, r2
2ffda008:	634b      	str	r3, [r1, #52]	; 0x34
2ffda00a:	e7e4      	b.n	2ffd9fd6 <usb_dwc2_ep0_start_xfer+0x22>
2ffda00c:	3212      	adds	r2, #18
2ffda00e:	f855 2022 	ldr.w	r2, [r5, r2, lsl #2]
2ffda012:	6913      	ldr	r3, [r2, #16]
2ffda014:	f003 4060 	and.w	r0, r3, #3758096384	; 0xe0000000
2ffda018:	688b      	ldr	r3, [r1, #8]
2ffda01a:	b104      	cbz	r4, 2ffda01e <usb_dwc2_ep0_start_xfer+0x6a>
2ffda01c:	614b      	str	r3, [r1, #20]
2ffda01e:	f3c3 0312 	ubfx	r3, r3, #0, #19
2ffda022:	4303      	orrs	r3, r0
2ffda024:	f443 2300 	orr.w	r3, r3, #524288	; 0x80000
2ffda028:	6113      	str	r3, [r2, #16]
2ffda02a:	6813      	ldr	r3, [r2, #0]
2ffda02c:	f043 4304 	orr.w	r3, r3, #2214592512	; 0x84000000
2ffda030:	6013      	str	r3, [r2, #0]
2ffda032:	e7d4      	b.n	2ffd9fde <usb_dwc2_ep0_start_xfer+0x2a>
2ffda034:	2ffe7d98 	.word	0x2ffe7d98

2ffda038 <usb_dwc2_ep_set_stall>:
2ffda038:	784a      	ldrb	r2, [r1, #1]
2ffda03a:	2000      	movs	r0, #0
2ffda03c:	780b      	ldrb	r3, [r1, #0]
2ffda03e:	2a01      	cmp	r2, #1
2ffda040:	4a08      	ldr	r2, [pc, #32]	; (2ffda064 <usb_dwc2_ep_set_stall+0x2c>)
2ffda042:	bf0c      	ite	eq
2ffda044:	3302      	addeq	r3, #2
2ffda046:	3312      	addne	r3, #18
2ffda048:	f852 3023 	ldr.w	r3, [r2, r3, lsl #2]
2ffda04c:	681a      	ldr	r2, [r3, #0]
2ffda04e:	2a00      	cmp	r2, #0
2ffda050:	bfa4      	itt	ge
2ffda052:	f022 4280 	bicge.w	r2, r2, #1073741824	; 0x40000000
2ffda056:	601a      	strge	r2, [r3, #0]
2ffda058:	681a      	ldr	r2, [r3, #0]
2ffda05a:	f442 1200 	orr.w	r2, r2, #2097152	; 0x200000
2ffda05e:	601a      	str	r2, [r3, #0]
2ffda060:	4770      	bx	lr
2ffda062:	bf00      	nop
2ffda064:	2ffe7d98 	.word	0x2ffe7d98

2ffda068 <usb_dwc2_init_driver>:
2ffda068:	4b0f      	ldr	r3, [pc, #60]	; (2ffda0a8 <usb_dwc2_init_driver+0x40>)
2ffda06a:	f501 6200 	add.w	r2, r1, #2048	; 0x800
2ffda06e:	b430      	push	{r4, r5}
2ffda070:	3308      	adds	r3, #8
2ffda072:	f843 1c08 	str.w	r1, [r3, #-8]
2ffda076:	f501 5480 	add.w	r4, r1, #4096	; 0x1000
2ffda07a:	f843 2c04 	str.w	r2, [r3, #-4]
2ffda07e:	f501 6210 	add.w	r2, r1, #2304	; 0x900
2ffda082:	f501 6130 	add.w	r1, r1, #2816	; 0xb00
2ffda086:	f843 2b04 	str.w	r2, [r3], #4
2ffda08a:	f502 7500 	add.w	r5, r2, #512	; 0x200
2ffda08e:	67dc      	str	r4, [r3, #124]	; 0x7c
2ffda090:	3220      	adds	r2, #32
2ffda092:	428a      	cmp	r2, r1
2ffda094:	f504 5480 	add.w	r4, r4, #4096	; 0x1000
2ffda098:	63dd      	str	r5, [r3, #60]	; 0x3c
2ffda09a:	d1f4      	bne.n	2ffda086 <usb_dwc2_init_driver+0x1e>
2ffda09c:	bc30      	pop	{r4, r5}
2ffda09e:	4a02      	ldr	r2, [pc, #8]	; (2ffda0a8 <usb_dwc2_init_driver+0x40>)
2ffda0a0:	4902      	ldr	r1, [pc, #8]	; (2ffda0ac <usb_dwc2_init_driver+0x44>)
2ffda0a2:	f000 bb27 	b.w	2ffda6f4 <register_usb_driver>
2ffda0a6:	bf00      	nop
2ffda0a8:	2ffe7d98 	.word	0x2ffe7d98
2ffda0ac:	2ffe3200 	.word	0x2ffe3200

2ffda0b0 <usb_core_set_stall>:
2ffda0b0:	b570      	push	{r4, r5, r6, lr}
2ffda0b2:	b24b      	sxtb	r3, r1
2ffda0b4:	f8d0 5220 	ldr.w	r5, [r0, #544]	; 0x220
2ffda0b8:	2b00      	cmp	r3, #0
2ffda0ba:	f04f 0201 	mov.w	r2, #1
2ffda0be:	f04f 0600 	mov.w	r6, #0
2ffda0c2:	bfb4      	ite	lt
2ffda0c4:	f105 0134 	addlt.w	r1, r5, #52	; 0x34
2ffda0c8:	f505 71ec 	addge.w	r1, r5, #472	; 0x1d8
2ffda0cc:	0fdb      	lsrs	r3, r3, #31
2ffda0ce:	4604      	mov	r4, r0
2ffda0d0:	708a      	strb	r2, [r1, #2]
2ffda0d2:	700e      	strb	r6, [r1, #0]
2ffda0d4:	704b      	strb	r3, [r1, #1]
2ffda0d6:	f8d0 3224 	ldr.w	r3, [r0, #548]	; 0x224
2ffda0da:	6828      	ldr	r0, [r5, #0]
2ffda0dc:	699b      	ldr	r3, [r3, #24]
2ffda0de:	4798      	blx	r3
2ffda0e0:	f8d4 3224 	ldr.w	r3, [r4, #548]	; 0x224
2ffda0e4:	6828      	ldr	r0, [r5, #0]
2ffda0e6:	685b      	ldr	r3, [r3, #4]
2ffda0e8:	4798      	blx	r3
2ffda0ea:	4630      	mov	r0, r6
2ffda0ec:	bd70      	pop	{r4, r5, r6, pc}

2ffda0ee <usb_core_receive>:
2ffda0ee:	b570      	push	{r4, r5, r6, lr}
2ffda0f0:	f001 057f 	and.w	r5, r1, #127	; 0x7f
2ffda0f4:	f8d0 6220 	ldr.w	r6, [r0, #544]	; 0x220
2ffda0f8:	241c      	movs	r4, #28
2ffda0fa:	fb04 6105 	mla	r1, r4, r5, r6
2ffda0fe:	fb04 6405 	mla	r4, r4, r5, r6
2ffda102:	f501 71ec 	add.w	r1, r1, #472	; 0x1d8
2ffda106:	f8c4 31ec 	str.w	r3, [r4, #492]	; 0x1ec
2ffda10a:	2300      	movs	r3, #0
2ffda10c:	f8c4 31f0 	str.w	r3, [r4, #496]	; 0x1f0
2ffda110:	f884 31d9 	strb.w	r3, [r4, #473]	; 0x1d9
2ffda114:	f8c4 21e4 	str.w	r2, [r4, #484]	; 0x1e4
2ffda118:	f8d0 3224 	ldr.w	r3, [r0, #548]	; 0x224
2ffda11c:	f884 51d8 	strb.w	r5, [r4, #472]	; 0x1d8
2ffda120:	6830      	ldr	r0, [r6, #0]
2ffda122:	b91d      	cbnz	r5, 2ffda12c <usb_core_receive+0x3e>
2ffda124:	68db      	ldr	r3, [r3, #12]
2ffda126:	4798      	blx	r3
2ffda128:	2000      	movs	r0, #0
2ffda12a:	bd70      	pop	{r4, r5, r6, pc}
2ffda12c:	689b      	ldr	r3, [r3, #8]
2ffda12e:	e7fa      	b.n	2ffda126 <usb_core_receive+0x38>

2ffda130 <usb_core_transmit>:
2ffda130:	b570      	push	{r4, r5, r6, lr}
2ffda132:	f001 057f 	and.w	r5, r1, #127	; 0x7f
2ffda136:	f8d0 6220 	ldr.w	r6, [r0, #544]	; 0x220
2ffda13a:	241c      	movs	r4, #28
2ffda13c:	fb04 6105 	mla	r1, r4, r5, r6
2ffda140:	fb04 6405 	mla	r4, r4, r5, r6
2ffda144:	3134      	adds	r1, #52	; 0x34
2ffda146:	64a3      	str	r3, [r4, #72]	; 0x48
2ffda148:	2300      	movs	r3, #0
2ffda14a:	64e3      	str	r3, [r4, #76]	; 0x4c
2ffda14c:	2301      	movs	r3, #1
2ffda14e:	f884 3035 	strb.w	r3, [r4, #53]	; 0x35
2ffda152:	6422      	str	r2, [r4, #64]	; 0x40
2ffda154:	f8d0 3224 	ldr.w	r3, [r0, #548]	; 0x224
2ffda158:	f884 5034 	strb.w	r5, [r4, #52]	; 0x34
2ffda15c:	6830      	ldr	r0, [r6, #0]
2ffda15e:	b91d      	cbnz	r5, 2ffda168 <usb_core_transmit+0x38>
2ffda160:	68db      	ldr	r3, [r3, #12]
2ffda162:	4798      	blx	r3
2ffda164:	2000      	movs	r0, #0
2ffda166:	bd70      	pop	{r4, r5, r6, pc}
2ffda168:	689b      	ldr	r3, [r3, #8]
2ffda16a:	e7fa      	b.n	2ffda162 <usb_core_transmit+0x32>

2ffda16c <usb_core_ctl_error>:
2ffda16c:	b510      	push	{r4, lr}
2ffda16e:	4604      	mov	r4, r0
2ffda170:	4906      	ldr	r1, [pc, #24]	; (2ffda18c <usb_core_ctl_error+0x20>)
2ffda172:	4807      	ldr	r0, [pc, #28]	; (2ffda190 <usb_core_ctl_error+0x24>)
2ffda174:	f001 f82e 	bl	2ffdb1d4 <tf_log>
2ffda178:	2180      	movs	r1, #128	; 0x80
2ffda17a:	4620      	mov	r0, r4
2ffda17c:	f7ff ff98 	bl	2ffda0b0 <usb_core_set_stall>
2ffda180:	4620      	mov	r0, r4
2ffda182:	2100      	movs	r1, #0
2ffda184:	e8bd 4010 	ldmia.w	sp!, {r4, lr}
2ffda188:	f7ff bf92 	b.w	2ffda0b0 <usb_core_set_stall>
2ffda18c:	2ffe32d1 	.word	0x2ffe32d1
2ffda190:	2ffe3230 	.word	0x2ffe3230

2ffda194 <usb_core_handle_it>:
2ffda194:	b5f0      	push	{r4, r5, r6, r7, lr}
2ffda196:	b085      	sub	sp, #20
2ffda198:	f8d0 3224 	ldr.w	r3, [r0, #548]	; 0x224
2ffda19c:	2500      	movs	r5, #0
2ffda19e:	f8d0 2220 	ldr.w	r2, [r0, #544]	; 0x220
2ffda1a2:	4604      	mov	r4, r0
2ffda1a4:	6adb      	ldr	r3, [r3, #44]	; 0x2c
2ffda1a6:	a903      	add	r1, sp, #12
2ffda1a8:	6810      	ldr	r0, [r2, #0]
2ffda1aa:	9503      	str	r5, [sp, #12]
2ffda1ac:	4798      	blx	r3
2ffda1ae:	3801      	subs	r0, #1
2ffda1b0:	280b      	cmp	r0, #11
2ffda1b2:	d82b      	bhi.n	2ffda20c <usb_core_handle_it+0x78>
2ffda1b4:	e8df f010 	tbh	[pc, r0, lsl #1]
2ffda1b8:	004d000c 	.word	0x004d000c
2ffda1bc:	01f200a4 	.word	0x01f200a4
2ffda1c0:	021401f9 	.word	0x021401f9
2ffda1c4:	023a022a 	.word	0x023a022a
2ffda1c8:	02500243 	.word	0x02500243
2ffda1cc:	0266025e 	.word	0x0266025e
2ffda1d0:	9a03      	ldr	r2, [sp, #12]
2ffda1d2:	f012 01ff 	ands.w	r1, r2, #255	; 0xff
2ffda1d6:	d130      	bne.n	2ffda23a <usb_core_handle_it+0xa6>
2ffda1d8:	f8d4 31f4 	ldr.w	r3, [r4, #500]	; 0x1f4
2ffda1dc:	2b03      	cmp	r3, #3
2ffda1de:	d115      	bne.n	2ffda20c <usb_core_handle_it+0x78>
2ffda1e0:	f8d4 310c 	ldr.w	r3, [r4, #268]	; 0x10c
2ffda1e4:	f8d4 5110 	ldr.w	r5, [r4, #272]	; 0x110
2ffda1e8:	42ab      	cmp	r3, r5
2ffda1ea:	d912      	bls.n	2ffda212 <usb_core_handle_it+0x7e>
2ffda1ec:	f8d4 0220 	ldr.w	r0, [r4, #544]	; 0x220
2ffda1f0:	261c      	movs	r6, #28
2ffda1f2:	1b5b      	subs	r3, r3, r5
2ffda1f4:	fb06 0202 	mla	r2, r6, r2, r0
2ffda1f8:	42ab      	cmp	r3, r5
2ffda1fa:	4620      	mov	r0, r4
2ffda1fc:	f8d2 21e4 	ldr.w	r2, [r2, #484]	; 0x1e4
2ffda200:	f8c4 310c 	str.w	r3, [r4, #268]	; 0x10c
2ffda204:	bf28      	it	cs
2ffda206:	462b      	movcs	r3, r5
2ffda208:	f7ff ff71 	bl	2ffda0ee <usb_core_receive>
2ffda20c:	2000      	movs	r0, #0
2ffda20e:	b005      	add	sp, #20
2ffda210:	bdf0      	pop	{r4, r5, r6, r7, pc}
2ffda212:	f8d4 3214 	ldr.w	r3, [r4, #532]	; 0x214
2ffda216:	691b      	ldr	r3, [r3, #16]
2ffda218:	b12b      	cbz	r3, 2ffda226 <usb_core_handle_it+0x92>
2ffda21a:	f894 21fc 	ldrb.w	r2, [r4, #508]	; 0x1fc
2ffda21e:	2a03      	cmp	r2, #3
2ffda220:	d101      	bne.n	2ffda226 <usb_core_handle_it+0x92>
2ffda222:	4620      	mov	r0, r4
2ffda224:	4798      	blx	r3
2ffda226:	2304      	movs	r3, #4
2ffda228:	f8c4 31f4 	str.w	r3, [r4, #500]	; 0x1f4
2ffda22c:	2300      	movs	r3, #0
2ffda22e:	461a      	mov	r2, r3
2ffda230:	2100      	movs	r1, #0
2ffda232:	4620      	mov	r0, r4
2ffda234:	f7ff ff7c 	bl	2ffda130 <usb_core_transmit>
2ffda238:	e7e8      	b.n	2ffda20c <usb_core_handle_it+0x78>
2ffda23a:	f8d4 3214 	ldr.w	r3, [r4, #532]	; 0x214
2ffda23e:	699b      	ldr	r3, [r3, #24]
2ffda240:	2b00      	cmp	r3, #0
2ffda242:	d0e3      	beq.n	2ffda20c <usb_core_handle_it+0x78>
2ffda244:	f894 21fc 	ldrb.w	r2, [r4, #508]	; 0x1fc
2ffda248:	2a03      	cmp	r2, #3
2ffda24a:	d1df      	bne.n	2ffda20c <usb_core_handle_it+0x78>
2ffda24c:	4620      	mov	r0, r4
2ffda24e:	4798      	blx	r3
2ffda250:	e7dc      	b.n	2ffda20c <usb_core_handle_it+0x78>
2ffda252:	9a03      	ldr	r2, [sp, #12]
2ffda254:	f012 05ff 	ands.w	r5, r2, #255	; 0xff
2ffda258:	d147      	bne.n	2ffda2ea <usb_core_handle_it+0x156>
2ffda25a:	f8d4 31f4 	ldr.w	r3, [r4, #500]	; 0x1f4
2ffda25e:	2b02      	cmp	r3, #2
2ffda260:	d115      	bne.n	2ffda28e <usb_core_handle_it+0xfa>
2ffda262:	69e0      	ldr	r0, [r4, #28]
2ffda264:	6a23      	ldr	r3, [r4, #32]
2ffda266:	4298      	cmp	r0, r3
2ffda268:	d91c      	bls.n	2ffda2a4 <usb_core_handle_it+0x110>
2ffda26a:	f8d4 1220 	ldr.w	r1, [r4, #544]	; 0x220
2ffda26e:	261c      	movs	r6, #28
2ffda270:	1ac3      	subs	r3, r0, r3
2ffda272:	4620      	mov	r0, r4
2ffda274:	fb06 1202 	mla	r2, r6, r2, r1
2ffda278:	4629      	mov	r1, r5
2ffda27a:	6c12      	ldr	r2, [r2, #64]	; 0x40
2ffda27c:	61e3      	str	r3, [r4, #28]
2ffda27e:	f7ff ff57 	bl	2ffda130 <usb_core_transmit>
2ffda282:	2300      	movs	r3, #0
2ffda284:	4620      	mov	r0, r4
2ffda286:	461a      	mov	r2, r3
2ffda288:	4619      	mov	r1, r3
2ffda28a:	f7ff ff30 	bl	2ffda0ee <usb_core_receive>
2ffda28e:	f894 3200 	ldrb.w	r3, [r4, #512]	; 0x200
2ffda292:	2b01      	cmp	r3, #1
2ffda294:	d1ba      	bne.n	2ffda20c <usb_core_handle_it+0x78>
2ffda296:	48b0      	ldr	r0, [pc, #704]	; (2ffda558 <usb_core_handle_it+0x3c4>)
2ffda298:	f000 ff9c 	bl	2ffdb1d4 <tf_log>
2ffda29c:	2300      	movs	r3, #0
2ffda29e:	f884 3200 	strb.w	r3, [r4, #512]	; 0x200
2ffda2a2:	e7b3      	b.n	2ffda20c <usb_core_handle_it+0x78>
2ffda2a4:	69a2      	ldr	r2, [r4, #24]
2ffda2a6:	fbb2 f5f3 	udiv	r5, r2, r3
2ffda2aa:	fb03 2515 	mls	r5, r3, r5, r2
2ffda2ae:	b975      	cbnz	r5, 2ffda2ce <usb_core_handle_it+0x13a>
2ffda2b0:	4293      	cmp	r3, r2
2ffda2b2:	d80c      	bhi.n	2ffda2ce <usb_core_handle_it+0x13a>
2ffda2b4:	f8d4 31f8 	ldr.w	r3, [r4, #504]	; 0x1f8
2ffda2b8:	429a      	cmp	r2, r3
2ffda2ba:	d208      	bcs.n	2ffda2ce <usb_core_handle_it+0x13a>
2ffda2bc:	462b      	mov	r3, r5
2ffda2be:	462a      	mov	r2, r5
2ffda2c0:	4629      	mov	r1, r5
2ffda2c2:	4620      	mov	r0, r4
2ffda2c4:	f7ff ff34 	bl	2ffda130 <usb_core_transmit>
2ffda2c8:	f8c4 51f8 	str.w	r5, [r4, #504]	; 0x1f8
2ffda2cc:	e7d9      	b.n	2ffda282 <usb_core_handle_it+0xee>
2ffda2ce:	f8d4 3214 	ldr.w	r3, [r4, #532]	; 0x214
2ffda2d2:	68db      	ldr	r3, [r3, #12]
2ffda2d4:	b12b      	cbz	r3, 2ffda2e2 <usb_core_handle_it+0x14e>
2ffda2d6:	f894 21fc 	ldrb.w	r2, [r4, #508]	; 0x1fc
2ffda2da:	2a03      	cmp	r2, #3
2ffda2dc:	d101      	bne.n	2ffda2e2 <usb_core_handle_it+0x14e>
2ffda2de:	4620      	mov	r0, r4
2ffda2e0:	4798      	blx	r3
2ffda2e2:	2305      	movs	r3, #5
2ffda2e4:	f8c4 31f4 	str.w	r3, [r4, #500]	; 0x1f4
2ffda2e8:	e7cb      	b.n	2ffda282 <usb_core_handle_it+0xee>
2ffda2ea:	f8d4 3214 	ldr.w	r3, [r4, #532]	; 0x214
2ffda2ee:	695b      	ldr	r3, [r3, #20]
2ffda2f0:	2b00      	cmp	r3, #0
2ffda2f2:	d08b      	beq.n	2ffda20c <usb_core_handle_it+0x78>
2ffda2f4:	f894 21fc 	ldrb.w	r2, [r4, #508]	; 0x1fc
2ffda2f8:	2a03      	cmp	r2, #3
2ffda2fa:	d187      	bne.n	2ffda20c <usb_core_handle_it+0x78>
2ffda2fc:	4629      	mov	r1, r5
2ffda2fe:	e7a5      	b.n	2ffda24c <usb_core_handle_it+0xb8>
2ffda300:	f8d4 2220 	ldr.w	r2, [r4, #544]	; 0x220
2ffda304:	f892 0380 	ldrb.w	r0, [r2, #896]	; 0x380
2ffda308:	f884 0208 	strb.w	r0, [r4, #520]	; 0x208
2ffda30c:	f010 001f 	ands.w	r0, r0, #31
2ffda310:	f892 1381 	ldrb.w	r1, [r2, #897]	; 0x381
2ffda314:	f884 1209 	strb.w	r1, [r4, #521]	; 0x209
2ffda318:	f892 5383 	ldrb.w	r5, [r2, #899]	; 0x383
2ffda31c:	f892 3382 	ldrb.w	r3, [r2, #898]	; 0x382
2ffda320:	eb03 2305 	add.w	r3, r3, r5, lsl #8
2ffda324:	f8a4 320a 	strh.w	r3, [r4, #522]	; 0x20a
2ffda328:	f892 5385 	ldrb.w	r5, [r2, #901]	; 0x385
2ffda32c:	f892 3384 	ldrb.w	r3, [r2, #900]	; 0x384
2ffda330:	eb03 2305 	add.w	r3, r3, r5, lsl #8
2ffda334:	b29b      	uxth	r3, r3
2ffda336:	f8a4 320c 	strh.w	r3, [r4, #524]	; 0x20c
2ffda33a:	f892 5387 	ldrb.w	r5, [r2, #903]	; 0x387
2ffda33e:	f892 2386 	ldrb.w	r2, [r2, #902]	; 0x386
2ffda342:	eb02 2205 	add.w	r2, r2, r5, lsl #8
2ffda346:	f04f 0501 	mov.w	r5, #1
2ffda34a:	f8c4 51f4 	str.w	r5, [r4, #500]	; 0x1f4
2ffda34e:	b292      	uxth	r2, r2
2ffda350:	f8a4 220e 	strh.w	r2, [r4, #526]	; 0x20e
2ffda354:	f8c4 21f8 	str.w	r2, [r4, #504]	; 0x1f8
2ffda358:	d00e      	beq.n	2ffda378 <usb_core_handle_it+0x1e4>
2ffda35a:	42a8      	cmp	r0, r5
2ffda35c:	f000 8108 	beq.w	2ffda570 <usb_core_handle_it+0x3dc>
2ffda360:	4601      	mov	r1, r0
2ffda362:	487e      	ldr	r0, [pc, #504]	; (2ffda55c <usb_core_handle_it+0x3c8>)
2ffda364:	f000 ff36 	bl	2ffdb1d4 <tf_log>
2ffda368:	f894 1208 	ldrb.w	r1, [r4, #520]	; 0x208
2ffda36c:	4620      	mov	r0, r4
2ffda36e:	f001 0180 	and.w	r1, r1, #128	; 0x80
2ffda372:	f7ff fe9d 	bl	2ffda0b0 <usb_core_set_stall>
2ffda376:	e749      	b.n	2ffda20c <usb_core_handle_it+0x78>
2ffda378:	4879      	ldr	r0, [pc, #484]	; (2ffda560 <usb_core_handle_it+0x3cc>)
2ffda37a:	f000 ff2b 	bl	2ffdb1d4 <tf_log>
2ffda37e:	f894 1209 	ldrb.w	r1, [r4, #521]	; 0x209
2ffda382:	2909      	cmp	r1, #9
2ffda384:	f200 80e5 	bhi.w	2ffda552 <usb_core_handle_it+0x3be>
2ffda388:	e8df f011 	tbh	[pc, r1, lsl #1]
2ffda38c:	00e300a5 	.word	0x00e300a5
2ffda390:	00e300e3 	.word	0x00e300e3
2ffda394:	00b900e3 	.word	0x00b900e3
2ffda398:	00e3000a 	.word	0x00e3000a
2ffda39c:	006600e3 	.word	0x006600e3
2ffda3a0:	f8b4 020a 	ldrh.w	r0, [r4, #522]	; 0x20a
2ffda3a4:	0a01      	lsrs	r1, r0, #8
2ffda3a6:	1e4b      	subs	r3, r1, #1
2ffda3a8:	2b06      	cmp	r3, #6
2ffda3aa:	d851      	bhi.n	2ffda450 <usb_core_handle_it+0x2bc>
2ffda3ac:	e8df f003 	tbb	[pc, r3]
2ffda3b0:	50140b04 	.word	0x50140b04
2ffda3b4:	4450      	.short	0x4450
2ffda3b6:	48          	.byte	0x48
2ffda3b7:	00          	.byte	0x00
2ffda3b8:	f8d4 3210 	ldr.w	r3, [r4, #528]	; 0x210
2ffda3bc:	681b      	ldr	r3, [r3, #0]
2ffda3be:	f10d 000a 	add.w	r0, sp, #10
2ffda3c2:	4798      	blx	r3
2ffda3c4:	e022      	b.n	2ffda40c <usb_core_handle_it+0x278>
2ffda3c6:	f8d4 3210 	ldr.w	r3, [r4, #528]	; 0x210
2ffda3ca:	f10d 000a 	add.w	r0, sp, #10
2ffda3ce:	6a1b      	ldr	r3, [r3, #32]
2ffda3d0:	4798      	blx	r3
2ffda3d2:	2302      	movs	r3, #2
2ffda3d4:	7043      	strb	r3, [r0, #1]
2ffda3d6:	e019      	b.n	2ffda40c <usb_core_handle_it+0x278>
2ffda3d8:	f8d4 3210 	ldr.w	r3, [r4, #528]	; 0x210
2ffda3dc:	b2c0      	uxtb	r0, r0
2ffda3de:	2805      	cmp	r0, #5
2ffda3e0:	d810      	bhi.n	2ffda404 <usb_core_handle_it+0x270>
2ffda3e2:	e8df f000 	tbb	[pc, r0]
2ffda3e6:	0503      	.short	0x0503
2ffda3e8:	0d0b0907 	.word	0x0d0b0907
2ffda3ec:	685b      	ldr	r3, [r3, #4]
2ffda3ee:	e7e6      	b.n	2ffda3be <usb_core_handle_it+0x22a>
2ffda3f0:	689b      	ldr	r3, [r3, #8]
2ffda3f2:	e7e4      	b.n	2ffda3be <usb_core_handle_it+0x22a>
2ffda3f4:	68db      	ldr	r3, [r3, #12]
2ffda3f6:	e7e2      	b.n	2ffda3be <usb_core_handle_it+0x22a>
2ffda3f8:	691b      	ldr	r3, [r3, #16]
2ffda3fa:	e7e0      	b.n	2ffda3be <usb_core_handle_it+0x22a>
2ffda3fc:	695b      	ldr	r3, [r3, #20]
2ffda3fe:	e7de      	b.n	2ffda3be <usb_core_handle_it+0x22a>
2ffda400:	699b      	ldr	r3, [r3, #24]
2ffda402:	e7dc      	b.n	2ffda3be <usb_core_handle_it+0x22a>
2ffda404:	69db      	ldr	r3, [r3, #28]
2ffda406:	f10d 010a 	add.w	r1, sp, #10
2ffda40a:	4798      	blx	r3
2ffda40c:	f8bd 300a 	ldrh.w	r3, [sp, #10]
2ffda410:	2b00      	cmp	r3, #0
2ffda412:	f43f aefb 	beq.w	2ffda20c <usb_core_handle_it+0x78>
2ffda416:	f8b4 220e 	ldrh.w	r2, [r4, #526]	; 0x20e
2ffda41a:	2a00      	cmp	r2, #0
2ffda41c:	f43f aef6 	beq.w	2ffda20c <usb_core_handle_it+0x78>
2ffda420:	4293      	cmp	r3, r2
2ffda422:	bf28      	it	cs
2ffda424:	4613      	movcs	r3, r2
2ffda426:	2202      	movs	r2, #2
2ffda428:	f8c4 21f4 	str.w	r2, [r4, #500]	; 0x1f4
2ffda42c:	4602      	mov	r2, r0
2ffda42e:	f8ad 300a 	strh.w	r3, [sp, #10]
2ffda432:	61a3      	str	r3, [r4, #24]
2ffda434:	61e3      	str	r3, [r4, #28]
2ffda436:	e6fb      	b.n	2ffda230 <usb_core_handle_it+0x9c>
2ffda438:	f8d4 3210 	ldr.w	r3, [r4, #528]	; 0x210
2ffda43c:	6adb      	ldr	r3, [r3, #44]	; 0x2c
2ffda43e:	e7be      	b.n	2ffda3be <usb_core_handle_it+0x22a>
2ffda440:	f8d4 3210 	ldr.w	r3, [r4, #528]	; 0x210
2ffda444:	f10d 000a 	add.w	r0, sp, #10
2ffda448:	6a9b      	ldr	r3, [r3, #40]	; 0x28
2ffda44a:	4798      	blx	r3
2ffda44c:	2307      	movs	r3, #7
2ffda44e:	e7c1      	b.n	2ffda3d4 <usb_core_handle_it+0x240>
2ffda450:	4844      	ldr	r0, [pc, #272]	; (2ffda564 <usb_core_handle_it+0x3d0>)
2ffda452:	f000 febf 	bl	2ffdb1d4 <tf_log>
2ffda456:	e005      	b.n	2ffda464 <usb_core_handle_it+0x2d0>
2ffda458:	f894 120a 	ldrb.w	r1, [r4, #522]	; 0x20a
2ffda45c:	4d42      	ldr	r5, [pc, #264]	; (2ffda568 <usb_core_handle_it+0x3d4>)
2ffda45e:	2901      	cmp	r1, #1
2ffda460:	7029      	strb	r1, [r5, #0]
2ffda462:	d903      	bls.n	2ffda46c <usb_core_handle_it+0x2d8>
2ffda464:	4620      	mov	r0, r4
2ffda466:	f7ff fe81 	bl	2ffda16c <usb_core_ctl_error>
2ffda46a:	e6cf      	b.n	2ffda20c <usb_core_handle_it+0x78>
2ffda46c:	f894 31fc 	ldrb.w	r3, [r4, #508]	; 0x1fc
2ffda470:	2b02      	cmp	r3, #2
2ffda472:	d00c      	beq.n	2ffda48e <usb_core_handle_it+0x2fa>
2ffda474:	2b03      	cmp	r3, #3
2ffda476:	d1f5      	bne.n	2ffda464 <usb_core_handle_it+0x2d0>
2ffda478:	b9e1      	cbnz	r1, 2ffda4b4 <usb_core_handle_it+0x320>
2ffda47a:	6061      	str	r1, [r4, #4]
2ffda47c:	2302      	movs	r3, #2
2ffda47e:	f884 31fc 	strb.w	r3, [r4, #508]	; 0x1fc
2ffda482:	4620      	mov	r0, r4
2ffda484:	f8d4 3214 	ldr.w	r3, [r4, #532]	; 0x214
2ffda488:	685b      	ldr	r3, [r3, #4]
2ffda48a:	4798      	blx	r3
2ffda48c:	e6cb      	b.n	2ffda226 <usb_core_handle_it+0x92>
2ffda48e:	2900      	cmp	r1, #0
2ffda490:	f43f aec9 	beq.w	2ffda226 <usb_core_handle_it+0x92>
2ffda494:	2303      	movs	r3, #3
2ffda496:	2101      	movs	r1, #1
2ffda498:	f884 31fc 	strb.w	r3, [r4, #508]	; 0x1fc
2ffda49c:	f8d4 3214 	ldr.w	r3, [r4, #532]	; 0x214
2ffda4a0:	6061      	str	r1, [r4, #4]
2ffda4a2:	2b00      	cmp	r3, #0
2ffda4a4:	d0de      	beq.n	2ffda464 <usb_core_handle_it+0x2d0>
2ffda4a6:	681b      	ldr	r3, [r3, #0]
2ffda4a8:	4620      	mov	r0, r4
2ffda4aa:	4798      	blx	r3
2ffda4ac:	2800      	cmp	r0, #0
2ffda4ae:	f43f aeba 	beq.w	2ffda226 <usb_core_handle_it+0x92>
2ffda4b2:	e7d7      	b.n	2ffda464 <usb_core_handle_it+0x2d0>
2ffda4b4:	6861      	ldr	r1, [r4, #4]
2ffda4b6:	2901      	cmp	r1, #1
2ffda4b8:	f43f aeb5 	beq.w	2ffda226 <usb_core_handle_it+0x92>
2ffda4bc:	f8d4 3214 	ldr.w	r3, [r4, #532]	; 0x214
2ffda4c0:	2b00      	cmp	r3, #0
2ffda4c2:	d0cf      	beq.n	2ffda464 <usb_core_handle_it+0x2d0>
2ffda4c4:	685b      	ldr	r3, [r3, #4]
2ffda4c6:	b2c9      	uxtb	r1, r1
2ffda4c8:	4620      	mov	r0, r4
2ffda4ca:	4798      	blx	r3
2ffda4cc:	7829      	ldrb	r1, [r5, #0]
2ffda4ce:	f8d4 3214 	ldr.w	r3, [r4, #532]	; 0x214
2ffda4d2:	6061      	str	r1, [r4, #4]
2ffda4d4:	e7e7      	b.n	2ffda4a6 <usb_core_handle_it+0x312>
2ffda4d6:	f894 31fc 	ldrb.w	r3, [r4, #508]	; 0x1fc
2ffda4da:	3b02      	subs	r3, #2
2ffda4dc:	2b01      	cmp	r3, #1
2ffda4de:	d8c1      	bhi.n	2ffda464 <usb_core_handle_it+0x2d0>
2ffda4e0:	2301      	movs	r3, #1
2ffda4e2:	60e3      	str	r3, [r4, #12]
2ffda4e4:	f8d4 3204 	ldr.w	r3, [r4, #516]	; 0x204
2ffda4e8:	b10b      	cbz	r3, 2ffda4ee <usb_core_handle_it+0x35a>
2ffda4ea:	2303      	movs	r3, #3
2ffda4ec:	60e3      	str	r3, [r4, #12]
2ffda4ee:	2302      	movs	r3, #2
2ffda4f0:	f104 020c 	add.w	r2, r4, #12
2ffda4f4:	f8c4 31f4 	str.w	r3, [r4, #500]	; 0x1f4
2ffda4f8:	61a3      	str	r3, [r4, #24]
2ffda4fa:	61e3      	str	r3, [r4, #28]
2ffda4fc:	e698      	b.n	2ffda230 <usb_core_handle_it+0x9c>
2ffda4fe:	f8b4 320c 	ldrh.w	r3, [r4, #524]	; 0x20c
2ffda502:	2b00      	cmp	r3, #0
2ffda504:	d1ae      	bne.n	2ffda464 <usb_core_handle_it+0x2d0>
2ffda506:	f8b4 620e 	ldrh.w	r6, [r4, #526]	; 0x20e
2ffda50a:	2e00      	cmp	r6, #0
2ffda50c:	d1aa      	bne.n	2ffda464 <usb_core_handle_it+0x2d0>
2ffda50e:	f894 31fc 	ldrb.w	r3, [r4, #508]	; 0x1fc
2ffda512:	f894 520a 	ldrb.w	r5, [r4, #522]	; 0x20a
2ffda516:	2b03      	cmp	r3, #3
2ffda518:	f005 057f 	and.w	r5, r5, #127	; 0x7f
2ffda51c:	d0a2      	beq.n	2ffda464 <usb_core_handle_it+0x2d0>
2ffda51e:	f8d4 2220 	ldr.w	r2, [r4, #544]	; 0x220
2ffda522:	4629      	mov	r1, r5
2ffda524:	f8d4 3224 	ldr.w	r3, [r4, #548]	; 0x224
2ffda528:	f884 51fe 	strb.w	r5, [r4, #510]	; 0x1fe
2ffda52c:	6a1b      	ldr	r3, [r3, #32]
2ffda52e:	6810      	ldr	r0, [r2, #0]
2ffda530:	4798      	blx	r3
2ffda532:	2304      	movs	r3, #4
2ffda534:	4632      	mov	r2, r6
2ffda536:	f8c4 31f4 	str.w	r3, [r4, #500]	; 0x1f4
2ffda53a:	4631      	mov	r1, r6
2ffda53c:	4633      	mov	r3, r6
2ffda53e:	4620      	mov	r0, r4
2ffda540:	f7ff fdf6 	bl	2ffda130 <usb_core_transmit>
2ffda544:	b11d      	cbz	r5, 2ffda54e <usb_core_handle_it+0x3ba>
2ffda546:	2302      	movs	r3, #2
2ffda548:	f884 31fc 	strb.w	r3, [r4, #508]	; 0x1fc
2ffda54c:	e65e      	b.n	2ffda20c <usb_core_handle_it+0x78>
2ffda54e:	2301      	movs	r3, #1
2ffda550:	e7fa      	b.n	2ffda548 <usb_core_handle_it+0x3b4>
2ffda552:	4806      	ldr	r0, [pc, #24]	; (2ffda56c <usb_core_handle_it+0x3d8>)
2ffda554:	e77d      	b.n	2ffda452 <usb_core_handle_it+0x2be>
2ffda556:	bf00      	nop
2ffda558:	2ffe3245 	.word	0x2ffe3245
2ffda55c:	2ffe3291 	.word	0x2ffe3291
2ffda560:	2ffe3254 	.word	0x2ffe3254
2ffda564:	2ffe3269 	.word	0x2ffe3269
2ffda568:	2ffe8059 	.word	0x2ffe8059
2ffda56c:	2ffe327e 	.word	0x2ffe327e
2ffda570:	f894 21fc 	ldrb.w	r2, [r4, #508]	; 0x1fc
2ffda574:	2a03      	cmp	r2, #3
2ffda576:	f47f af75 	bne.w	2ffda464 <usb_core_handle_it+0x2d0>
2ffda57a:	b2db      	uxtb	r3, r3
2ffda57c:	2b01      	cmp	r3, #1
2ffda57e:	f63f af71 	bhi.w	2ffda464 <usb_core_handle_it+0x2d0>
2ffda582:	f8d4 3214 	ldr.w	r3, [r4, #532]	; 0x214
2ffda586:	f504 7102 	add.w	r1, r4, #520	; 0x208
2ffda58a:	4620      	mov	r0, r4
2ffda58c:	689b      	ldr	r3, [r3, #8]
2ffda58e:	4798      	blx	r3
2ffda590:	f8b4 320e 	ldrh.w	r3, [r4, #526]	; 0x20e
2ffda594:	2b00      	cmp	r3, #0
2ffda596:	f47f ae39 	bne.w	2ffda20c <usb_core_handle_it+0x78>
2ffda59a:	e644      	b.n	2ffda226 <usb_core_handle_it+0x92>
2ffda59c:	f8d4 3220 	ldr.w	r3, [r4, #544]	; 0x220
2ffda5a0:	f44f 7200 	mov.w	r2, #512	; 0x200
2ffda5a4:	60dd      	str	r5, [r3, #12]
2ffda5a6:	615a      	str	r2, [r3, #20]
2ffda5a8:	e630      	b.n	2ffda20c <usb_core_handle_it+0x78>
2ffda5aa:	9a03      	ldr	r2, [sp, #12]
2ffda5ac:	211c      	movs	r1, #28
2ffda5ae:	f8d4 3220 	ldr.w	r3, [r4, #544]	; 0x220
2ffda5b2:	0c16      	lsrs	r6, r2, #16
2ffda5b4:	b295      	uxth	r5, r2
2ffda5b6:	fb01 3505 	mla	r5, r1, r5, r3
2ffda5ba:	f8d4 1224 	ldr.w	r1, [r4, #548]	; 0x224
2ffda5be:	4632      	mov	r2, r6
2ffda5c0:	6818      	ldr	r0, [r3, #0]
2ffda5c2:	694c      	ldr	r4, [r1, #20]
2ffda5c4:	f8d5 11e4 	ldr.w	r1, [r5, #484]	; 0x1e4
2ffda5c8:	47a0      	blx	r4
2ffda5ca:	f8d5 21e4 	ldr.w	r2, [r5, #484]	; 0x1e4
2ffda5ce:	f8d5 31f0 	ldr.w	r3, [r5, #496]	; 0x1f0
2ffda5d2:	4432      	add	r2, r6
2ffda5d4:	4433      	add	r3, r6
2ffda5d6:	f8c5 21e4 	str.w	r2, [r5, #484]	; 0x1e4
2ffda5da:	f8c5 31f0 	str.w	r3, [r5, #496]	; 0x1f0
2ffda5de:	e615      	b.n	2ffda20c <usb_core_handle_it+0x78>
2ffda5e0:	f8d4 6220 	ldr.w	r6, [r4, #544]	; 0x220
2ffda5e4:	2208      	movs	r2, #8
2ffda5e6:	f8d4 3224 	ldr.w	r3, [r4, #548]	; 0x224
2ffda5ea:	9f03      	ldr	r7, [sp, #12]
2ffda5ec:	f506 7160 	add.w	r1, r6, #896	; 0x380
2ffda5f0:	695b      	ldr	r3, [r3, #20]
2ffda5f2:	6830      	ldr	r0, [r6, #0]
2ffda5f4:	b2bd      	uxth	r5, r7
2ffda5f6:	4798      	blx	r3
2ffda5f8:	231c      	movs	r3, #28
2ffda5fa:	fb03 6305 	mla	r3, r3, r5, r6
2ffda5fe:	f8d3 21f0 	ldr.w	r2, [r3, #496]	; 0x1f0
2ffda602:	eb02 4217 	add.w	r2, r2, r7, lsr #16
2ffda606:	f8c3 21f0 	str.w	r2, [r3, #496]	; 0x1f0
2ffda60a:	e5ff      	b.n	2ffda20c <usb_core_handle_it+0x78>
2ffda60c:	f8d4 3220 	ldr.w	r3, [r4, #544]	; 0x220
2ffda610:	f8d3 23b0 	ldr.w	r2, [r3, #944]	; 0x3b0
2ffda614:	2a01      	cmp	r2, #1
2ffda616:	d103      	bne.n	2ffda620 <usb_core_handle_it+0x48c>
2ffda618:	2200      	movs	r2, #0
2ffda61a:	f8c3 23b0 	str.w	r2, [r3, #944]	; 0x3b0
2ffda61e:	e5f5      	b.n	2ffda20c <usb_core_handle_it+0x78>
2ffda620:	4823      	ldr	r0, [pc, #140]	; (2ffda6b0 <usb_core_handle_it+0x51c>)
2ffda622:	f000 fdd7 	bl	2ffdb1d4 <tf_log>
2ffda626:	f894 31fd 	ldrb.w	r3, [r4, #509]	; 0x1fd
2ffda62a:	e78d      	b.n	2ffda548 <usb_core_handle_it+0x3b4>
2ffda62c:	4821      	ldr	r0, [pc, #132]	; (2ffda6b4 <usb_core_handle_it+0x520>)
2ffda62e:	f000 fdd1 	bl	2ffdb1d4 <tf_log>
2ffda632:	f894 31fc 	ldrb.w	r3, [r4, #508]	; 0x1fc
2ffda636:	f884 31fd 	strb.w	r3, [r4, #509]	; 0x1fd
2ffda63a:	2304      	movs	r3, #4
2ffda63c:	e784      	b.n	2ffda548 <usb_core_handle_it+0x3b4>
2ffda63e:	f8d4 3220 	ldr.w	r3, [r4, #544]	; 0x220
2ffda642:	f8d3 23b0 	ldr.w	r2, [r3, #944]	; 0x3b0
2ffda646:	2a00      	cmp	r2, #0
2ffda648:	d1f0      	bne.n	2ffda62c <usb_core_handle_it+0x498>
2ffda64a:	2201      	movs	r2, #1
2ffda64c:	f8c3 23b0 	str.w	r2, [r3, #944]	; 0x3b0
2ffda650:	9a03      	ldr	r2, [sp, #12]
2ffda652:	f8c3 23b4 	str.w	r2, [r3, #948]	; 0x3b4
2ffda656:	e5d9      	b.n	2ffda20c <usb_core_handle_it+0x78>
2ffda658:	f894 31fc 	ldrb.w	r3, [r4, #508]	; 0x1fc
2ffda65c:	2b03      	cmp	r3, #3
2ffda65e:	f47f add5 	bne.w	2ffda20c <usb_core_handle_it+0x78>
2ffda662:	f8d4 3214 	ldr.w	r3, [r4, #532]	; 0x214
2ffda666:	69db      	ldr	r3, [r3, #28]
2ffda668:	2b00      	cmp	r3, #0
2ffda66a:	f43f adcf 	beq.w	2ffda20c <usb_core_handle_it+0x78>
2ffda66e:	4620      	mov	r0, r4
2ffda670:	4798      	blx	r3
2ffda672:	e5cb      	b.n	2ffda20c <usb_core_handle_it+0x78>
2ffda674:	7921      	ldrb	r1, [r4, #4]
2ffda676:	2301      	movs	r3, #1
2ffda678:	f884 31fc 	strb.w	r3, [r4, #508]	; 0x1fc
2ffda67c:	f8d4 3214 	ldr.w	r3, [r4, #532]	; 0x214
2ffda680:	685b      	ldr	r3, [r3, #4]
2ffda682:	e5e3      	b.n	2ffda24c <usb_core_handle_it+0xb8>
2ffda684:	9903      	ldr	r1, [sp, #12]
2ffda686:	221c      	movs	r2, #28
2ffda688:	f8d4 0220 	ldr.w	r0, [r4, #544]	; 0x220
2ffda68c:	434a      	muls	r2, r1
2ffda68e:	f8d4 4224 	ldr.w	r4, [r4, #548]	; 0x224
2ffda692:	1885      	adds	r5, r0, r2
2ffda694:	f102 034c 	add.w	r3, r2, #76	; 0x4c
2ffda698:	4403      	add	r3, r0
2ffda69a:	3240      	adds	r2, #64	; 0x40
2ffda69c:	4402      	add	r2, r0
2ffda69e:	9201      	str	r2, [sp, #4]
2ffda6a0:	6bea      	ldr	r2, [r5, #60]	; 0x3c
2ffda6a2:	9200      	str	r2, [sp, #0]
2ffda6a4:	6aa4      	ldr	r4, [r4, #40]	; 0x28
2ffda6a6:	6caa      	ldr	r2, [r5, #72]	; 0x48
2ffda6a8:	6800      	ldr	r0, [r0, #0]
2ffda6aa:	47a0      	blx	r4
2ffda6ac:	e5ae      	b.n	2ffda20c <usb_core_handle_it+0x78>
2ffda6ae:	bf00      	nop
2ffda6b0:	2ffe32b1 	.word	0x2ffe32b1
2ffda6b4:	2ffe32be 	.word	0x2ffe32be

2ffda6b8 <usb_core_stop>:
2ffda6b8:	f8d0 3214 	ldr.w	r3, [r0, #532]	; 0x214
2ffda6bc:	b510      	push	{r4, lr}
2ffda6be:	4604      	mov	r4, r0
2ffda6c0:	7901      	ldrb	r1, [r0, #4]
2ffda6c2:	685b      	ldr	r3, [r3, #4]
2ffda6c4:	4798      	blx	r3
2ffda6c6:	f8d4 2220 	ldr.w	r2, [r4, #544]	; 0x220
2ffda6ca:	f8d4 3224 	ldr.w	r3, [r4, #548]	; 0x224
2ffda6ce:	6810      	ldr	r0, [r2, #0]
2ffda6d0:	681b      	ldr	r3, [r3, #0]
2ffda6d2:	4798      	blx	r3
2ffda6d4:	f8d4 2220 	ldr.w	r2, [r4, #544]	; 0x220
2ffda6d8:	f8d4 3224 	ldr.w	r3, [r4, #548]	; 0x224
2ffda6dc:	6810      	ldr	r0, [r2, #0]
2ffda6de:	69db      	ldr	r3, [r3, #28]
2ffda6e0:	4798      	blx	r3
2ffda6e2:	f8d4 2220 	ldr.w	r2, [r4, #544]	; 0x220
2ffda6e6:	f8d4 3224 	ldr.w	r3, [r4, #548]	; 0x224
2ffda6ea:	6810      	ldr	r0, [r2, #0]
2ffda6ec:	6a5b      	ldr	r3, [r3, #36]	; 0x24
2ffda6ee:	4798      	blx	r3
2ffda6f0:	2000      	movs	r0, #0
2ffda6f2:	bd10      	pop	{r4, pc}

2ffda6f4 <register_usb_driver>:
2ffda6f4:	f8d0 3220 	ldr.w	r3, [r0, #544]	; 0x220
2ffda6f8:	f8c0 1224 	str.w	r1, [r0, #548]	; 0x224
2ffda6fc:	2000      	movs	r0, #0
2ffda6fe:	601a      	str	r2, [r3, #0]
2ffda700:	4770      	bx	lr

2ffda702 <register_platform>:
2ffda702:	f8c0 1210 	str.w	r1, [r0, #528]	; 0x210
2ffda706:	2000      	movs	r0, #0
2ffda708:	4770      	bx	lr

2ffda70a <usb_dfu_init>:
2ffda70a:	2000      	movs	r0, #0
2ffda70c:	4770      	bx	lr

2ffda70e <usb_dfu_ep0_rx_ready>:
2ffda70e:	2000      	movs	r0, #0
2ffda710:	4770      	bx	lr
	...

2ffda714 <usb_dfu_upload>:
2ffda714:	88cb      	ldrh	r3, [r1, #6]
2ffda716:	e92d 41f0 	stmdb	sp!, {r4, r5, r6, r7, r8, lr}
2ffda71a:	4605      	mov	r5, r0
2ffda71c:	f8d0 4218 	ldr.w	r4, [r0, #536]	; 0x218
2ffda720:	2b00      	cmp	r3, #0
2ffda722:	d05e      	beq.n	2ffda7e2 <usb_dfu_upload+0xce>
2ffda724:	7aa2      	ldrb	r2, [r4, #10]
2ffda726:	2a02      	cmp	r2, #2
2ffda728:	d001      	beq.n	2ffda72e <usb_dfu_upload+0x1a>
2ffda72a:	2a09      	cmp	r2, #9
2ffda72c:	d152      	bne.n	2ffda7d4 <usb_dfu_upload+0xc0>
2ffda72e:	884e      	ldrh	r6, [r1, #2]
2ffda730:	61a3      	str	r3, [r4, #24]
2ffda732:	6166      	str	r6, [r4, #20]
2ffda734:	2e00      	cmp	r6, #0
2ffda736:	d13f      	bne.n	2ffda7b8 <usb_dfu_upload+0xa4>
2ffda738:	f8df 80e0 	ldr.w	r8, [pc, #224]	; 2ffda81c <usb_dfu_upload+0x108>
2ffda73c:	2b03      	cmp	r3, #3
2ffda73e:	482e      	ldr	r0, [pc, #184]	; (2ffda7f8 <usb_dfu_upload+0xe4>)
2ffda740:	bf88      	it	hi
2ffda742:	2302      	movhi	r3, #2
2ffda744:	4f2d      	ldr	r7, [pc, #180]	; (2ffda7fc <usb_dfu_upload+0xe8>)
2ffda746:	bf98      	it	ls
2ffda748:	2309      	movls	r3, #9
2ffda74a:	72a3      	strb	r3, [r4, #10]
2ffda74c:	73e3      	strb	r3, [r4, #15]
2ffda74e:	81a6      	strh	r6, [r4, #12]
2ffda750:	73a6      	strb	r6, [r4, #14]
2ffda752:	f000 fd3f 	bl	2ffdb1d4 <tf_log>
2ffda756:	f8d8 1000 	ldr.w	r1, [r8]
2ffda75a:	4829      	ldr	r0, [pc, #164]	; (2ffda800 <usb_dfu_upload+0xec>)
2ffda75c:	f000 fd3a 	bl	2ffdb1d4 <tf_log>
2ffda760:	6839      	ldr	r1, [r7, #0]
2ffda762:	4828      	ldr	r0, [pc, #160]	; (2ffda804 <usb_dfu_upload+0xf0>)
2ffda764:	f000 fd36 	bl	2ffdb1d4 <tf_log>
2ffda768:	f8d8 3000 	ldr.w	r3, [r8]
2ffda76c:	7166      	strb	r6, [r4, #5]
2ffda76e:	7023      	strb	r3, [r4, #0]
2ffda770:	683b      	ldr	r3, [r7, #0]
2ffda772:	80e6      	strh	r6, [r4, #6]
2ffda774:	0a1a      	lsrs	r2, r3, #8
2ffda776:	70a2      	strb	r2, [r4, #2]
2ffda778:	0c1a      	lsrs	r2, r3, #16
2ffda77a:	7063      	strb	r3, [r4, #1]
2ffda77c:	70e2      	strb	r2, [r4, #3]
2ffda77e:	0e1a      	lsrs	r2, r3, #24
2ffda780:	3301      	adds	r3, #1
2ffda782:	7122      	strb	r2, [r4, #4]
2ffda784:	7226      	strb	r6, [r4, #8]
2ffda786:	d115      	bne.n	2ffda7b4 <usb_dfu_upload+0xa0>
2ffda788:	4b1f      	ldr	r3, [pc, #124]	; (2ffda808 <usb_dfu_upload+0xf4>)
2ffda78a:	681b      	ldr	r3, [r3, #0]
2ffda78c:	b193      	cbz	r3, 2ffda7b4 <usb_dfu_upload+0xa0>
2ffda78e:	481f      	ldr	r0, [pc, #124]	; (2ffda80c <usb_dfu_upload+0xf8>)
2ffda790:	f000 fd20 	bl	2ffdb1d4 <tf_log>
2ffda794:	2301      	movs	r3, #1
2ffda796:	7263      	strb	r3, [r4, #9]
2ffda798:	230a      	movs	r3, #10
2ffda79a:	61ab      	str	r3, [r5, #24]
2ffda79c:	4622      	mov	r2, r4
2ffda79e:	61eb      	str	r3, [r5, #28]
2ffda7a0:	2302      	movs	r3, #2
2ffda7a2:	f8c5 31f4 	str.w	r3, [r5, #500]	; 0x1f4
2ffda7a6:	4628      	mov	r0, r5
2ffda7a8:	69ab      	ldr	r3, [r5, #24]
2ffda7aa:	2100      	movs	r1, #0
2ffda7ac:	e8bd 41f0 	ldmia.w	sp!, {r4, r5, r6, r7, r8, lr}
2ffda7b0:	f7ff bcbe 	b.w	2ffda130 <usb_core_transmit>
2ffda7b4:	2309      	movs	r3, #9
2ffda7b6:	e7f0      	b.n	2ffda79a <usb_dfu_upload+0x86>
2ffda7b8:	4815      	ldr	r0, [pc, #84]	; (2ffda810 <usb_dfu_upload+0xfc>)
2ffda7ba:	4631      	mov	r1, r6
2ffda7bc:	f000 fd0a 	bl	2ffdb1d4 <tf_log>
2ffda7c0:	230f      	movs	r3, #15
2ffda7c2:	72a3      	strb	r3, [r4, #10]
2ffda7c4:	f04f 6370 	mov.w	r3, #251658240	; 0xf000000
2ffda7c8:	60e3      	str	r3, [r4, #12]
2ffda7ca:	4628      	mov	r0, r5
2ffda7cc:	e8bd 41f0 	ldmia.w	sp!, {r4, r5, r6, r7, r8, lr}
2ffda7d0:	f7ff bccc 	b.w	2ffda16c <usb_core_ctl_error>
2ffda7d4:	480f      	ldr	r0, [pc, #60]	; (2ffda814 <usb_dfu_upload+0x100>)
2ffda7d6:	f000 fcfd 	bl	2ffdb1d4 <tf_log>
2ffda7da:	2300      	movs	r3, #0
2ffda7dc:	61a3      	str	r3, [r4, #24]
2ffda7de:	6163      	str	r3, [r4, #20]
2ffda7e0:	e7f3      	b.n	2ffda7ca <usb_dfu_upload+0xb6>
2ffda7e2:	480d      	ldr	r0, [pc, #52]	; (2ffda818 <usb_dfu_upload+0x104>)
2ffda7e4:	f000 fcf6 	bl	2ffdb1d4 <tf_log>
2ffda7e8:	2302      	movs	r3, #2
2ffda7ea:	72a3      	strb	r3, [r4, #10]
2ffda7ec:	f04f 7300 	mov.w	r3, #33554432	; 0x2000000
2ffda7f0:	60e3      	str	r3, [r4, #12]
2ffda7f2:	e8bd 81f0 	ldmia.w	sp!, {r4, r5, r6, r7, r8, pc}
2ffda7f6:	bf00      	nop
2ffda7f8:	2ffe32e4 	.word	0x2ffe32e4
2ffda7fc:	2ffe7e68 	.word	0x2ffe7e68
2ffda800:	2ffe32ef 	.word	0x2ffe32ef
2ffda804:	2ffe3301 	.word	0x2ffe3301
2ffda808:	2ffe7e60 	.word	0x2ffe7e60
2ffda80c:	2ffe3313 	.word	0x2ffe3313
2ffda810:	2ffe3329 	.word	0x2ffe3329
2ffda814:	2ffe334b 	.word	0x2ffe334b
2ffda818:	2ffe3368 	.word	0x2ffe3368
2ffda81c:	2ffe7e70 	.word	0x2ffe7e70

2ffda820 <usb_dfu_get_status>:
2ffda820:	b570      	push	{r4, r5, r6, lr}
2ffda822:	4605      	mov	r5, r0
2ffda824:	f8d0 4218 	ldr.w	r4, [r0, #536]	; 0x218
2ffda828:	7aa3      	ldrb	r3, [r4, #10]
2ffda82a:	2b03      	cmp	r3, #3
2ffda82c:	d00f      	beq.n	2ffda84e <usb_dfu_get_status+0x2e>
2ffda82e:	2b06      	cmp	r3, #6
2ffda830:	d021      	beq.n	2ffda876 <usb_dfu_get_status+0x56>
2ffda832:	2302      	movs	r3, #2
2ffda834:	f104 020b 	add.w	r2, r4, #11
2ffda838:	f8c5 31f4 	str.w	r3, [r5, #500]	; 0x1f4
2ffda83c:	2306      	movs	r3, #6
2ffda83e:	61ab      	str	r3, [r5, #24]
2ffda840:	4628      	mov	r0, r5
2ffda842:	61eb      	str	r3, [r5, #28]
2ffda844:	2100      	movs	r1, #0
2ffda846:	e8bd 4070 	ldmia.w	sp!, {r4, r5, r6, lr}
2ffda84a:	f7ff bc71 	b.w	2ffda130 <usb_core_transmit>
2ffda84e:	f8d0 321c 	ldr.w	r3, [r0, #540]	; 0x21c
2ffda852:	689b      	ldr	r3, [r3, #8]
2ffda854:	4798      	blx	r3
2ffda856:	2801      	cmp	r0, #1
2ffda858:	d003      	beq.n	2ffda862 <usb_dfu_get_status+0x42>
2ffda85a:	2802      	cmp	r0, #2
2ffda85c:	d009      	beq.n	2ffda872 <usb_dfu_get_status+0x52>
2ffda85e:	2304      	movs	r3, #4
2ffda860:	e000      	b.n	2ffda864 <usb_dfu_get_status+0x44>
2ffda862:	2305      	movs	r3, #5
2ffda864:	72a3      	strb	r3, [r4, #10]
2ffda866:	2300      	movs	r3, #0
2ffda868:	81a3      	strh	r3, [r4, #12]
2ffda86a:	73a3      	strb	r3, [r4, #14]
2ffda86c:	7aa3      	ldrb	r3, [r4, #10]
2ffda86e:	73e3      	strb	r3, [r4, #15]
2ffda870:	e7df      	b.n	2ffda832 <usb_dfu_get_status+0x12>
2ffda872:	230a      	movs	r3, #10
2ffda874:	e7f6      	b.n	2ffda864 <usb_dfu_get_status+0x44>
2ffda876:	7c63      	ldrb	r3, [r4, #17]
2ffda878:	2b01      	cmp	r3, #1
2ffda87a:	d104      	bne.n	2ffda886 <usb_dfu_get_status+0x66>
2ffda87c:	2307      	movs	r3, #7
2ffda87e:	72a3      	strb	r3, [r4, #10]
2ffda880:	4b08      	ldr	r3, [pc, #32]	; (2ffda8a4 <usb_dfu_get_status+0x84>)
2ffda882:	60e3      	str	r3, [r4, #12]
2ffda884:	e7d5      	b.n	2ffda832 <usb_dfu_get_status+0x12>
2ffda886:	2b00      	cmp	r3, #0
2ffda888:	d1d3      	bne.n	2ffda832 <usb_dfu_get_status+0x12>
2ffda88a:	6a21      	ldr	r1, [r4, #32]
2ffda88c:	4806      	ldr	r0, [pc, #24]	; (2ffda8a8 <usb_dfu_get_status+0x88>)
2ffda88e:	f000 fca1 	bl	2ffdb1d4 <tf_log>
2ffda892:	2302      	movs	r3, #2
2ffda894:	2201      	movs	r2, #1
2ffda896:	72a3      	strb	r3, [r4, #10]
2ffda898:	4b04      	ldr	r3, [pc, #16]	; (2ffda8ac <usb_dfu_get_status+0x8c>)
2ffda89a:	601a      	str	r2, [r3, #0]
2ffda89c:	f04f 7300 	mov.w	r3, #33554432	; 0x2000000
2ffda8a0:	e7ef      	b.n	2ffda882 <usb_dfu_get_status+0x62>
2ffda8a2:	bf00      	nop
2ffda8a4:	07000001 	.word	0x07000001
2ffda8a8:	2ffe3384 	.word	0x2ffe3384
2ffda8ac:	2ffe7e6c 	.word	0x2ffe7e6c

2ffda8b0 <usb_dfu_ep0_tx_ready>:
2ffda8b0:	f8d0 3210 	ldr.w	r3, [r0, #528]	; 0x210
2ffda8b4:	b573      	push	{r0, r1, r4, r5, r6, lr}
2ffda8b6:	4605      	mov	r5, r0
2ffda8b8:	f8d0 4218 	ldr.w	r4, [r0, #536]	; 0x218
2ffda8bc:	f10d 0006 	add.w	r0, sp, #6
2ffda8c0:	6b1b      	ldr	r3, [r3, #48]	; 0x30
2ffda8c2:	4798      	blx	r3
2ffda8c4:	7aa3      	ldrb	r3, [r4, #10]
2ffda8c6:	2b04      	cmp	r3, #4
2ffda8c8:	d13f      	bne.n	2ffda94a <usb_dfu_ep0_tx_ready+0x9a>
2ffda8ca:	f8bd 3006 	ldrh.w	r3, [sp, #6]
2ffda8ce:	4418      	add	r0, r3
2ffda8d0:	f810 3c01 	ldrb.w	r3, [r0, #-1]
2ffda8d4:	f810 6c02 	ldrb.w	r6, [r0, #-2]
2ffda8d8:	ea46 2603 	orr.w	r6, r6, r3, lsl #8
2ffda8dc:	f5b6 7f8d 	cmp.w	r6, #282	; 0x11a
2ffda8e0:	d123      	bne.n	2ffda92a <usb_dfu_ep0_tx_ready+0x7a>
2ffda8e2:	6963      	ldr	r3, [r4, #20]
2ffda8e4:	bb0b      	cbnz	r3, 2ffda92a <usb_dfu_ep0_tx_ready+0x7a>
2ffda8e6:	7823      	ldrb	r3, [r4, #0]
2ffda8e8:	2b21      	cmp	r3, #33	; 0x21
2ffda8ea:	d116      	bne.n	2ffda91a <usb_dfu_ep0_tx_ready+0x6a>
2ffda8ec:	69a3      	ldr	r3, [r4, #24]
2ffda8ee:	2b05      	cmp	r3, #5
2ffda8f0:	d115      	bne.n	2ffda91e <usb_dfu_ep0_tx_ready+0x6e>
2ffda8f2:	78e3      	ldrb	r3, [r4, #3]
2ffda8f4:	78a2      	ldrb	r2, [r4, #2]
2ffda8f6:	041b      	lsls	r3, r3, #16
2ffda8f8:	eb03 2302 	add.w	r3, r3, r2, lsl #8
2ffda8fc:	7862      	ldrb	r2, [r4, #1]
2ffda8fe:	4413      	add	r3, r2
2ffda900:	7922      	ldrb	r2, [r4, #4]
2ffda902:	eb03 6302 	add.w	r3, r3, r2, lsl #24
2ffda906:	61e3      	str	r3, [r4, #28]
2ffda908:	2303      	movs	r3, #3
2ffda90a:	2000      	movs	r0, #0
2ffda90c:	72a3      	strb	r3, [r4, #10]
2ffda90e:	f04f 7340 	mov.w	r3, #50331648	; 0x3000000
2ffda912:	61a0      	str	r0, [r4, #24]
2ffda914:	6160      	str	r0, [r4, #20]
2ffda916:	60e3      	str	r3, [r4, #12]
2ffda918:	e023      	b.n	2ffda962 <usb_dfu_ep0_tx_ready+0xb2>
2ffda91a:	2b41      	cmp	r3, #65	; 0x41
2ffda91c:	d0e6      	beq.n	2ffda8ec <usb_dfu_ep0_tx_ready+0x3c>
2ffda91e:	2300      	movs	r3, #0
2ffda920:	4628      	mov	r0, r5
2ffda922:	61a3      	str	r3, [r4, #24]
2ffda924:	6163      	str	r3, [r4, #20]
2ffda926:	f7ff fc21 	bl	2ffda16c <usb_core_ctl_error>
2ffda92a:	6963      	ldr	r3, [r4, #20]
2ffda92c:	2b01      	cmp	r3, #1
2ffda92e:	d802      	bhi.n	2ffda936 <usb_dfu_ep0_tx_ready+0x86>
2ffda930:	f5b6 7f8d 	cmp.w	r6, #282	; 0x11a
2ffda934:	d0e8      	beq.n	2ffda908 <usb_dfu_ep0_tx_ready+0x58>
2ffda936:	f8d5 321c 	ldr.w	r3, [r5, #540]	; 0x21c
2ffda93a:	69a1      	ldr	r1, [r4, #24]
2ffda93c:	681b      	ldr	r3, [r3, #0]
2ffda93e:	69e0      	ldr	r0, [r4, #28]
2ffda940:	4798      	blx	r3
2ffda942:	2800      	cmp	r0, #0
2ffda944:	d0e0      	beq.n	2ffda908 <usb_dfu_ep0_tx_ready+0x58>
2ffda946:	2002      	movs	r0, #2
2ffda948:	e00b      	b.n	2ffda962 <usb_dfu_ep0_tx_ready+0xb2>
2ffda94a:	2b07      	cmp	r3, #7
2ffda94c:	f04f 0000 	mov.w	r0, #0
2ffda950:	d107      	bne.n	2ffda962 <usb_dfu_ep0_tx_ready+0xb2>
2ffda952:	f8d5 3218 	ldr.w	r3, [r5, #536]	; 0x218
2ffda956:	2206      	movs	r2, #6
2ffda958:	729a      	strb	r2, [r3, #10]
2ffda95a:	f04f 62c0 	mov.w	r2, #100663296	; 0x6000000
2ffda95e:	7458      	strb	r0, [r3, #17]
2ffda960:	60da      	str	r2, [r3, #12]
2ffda962:	b002      	add	sp, #8
2ffda964:	bd70      	pop	{r4, r5, r6, pc}

2ffda966 <usb_dfu_abort.isra.0>:
2ffda966:	7a82      	ldrb	r2, [r0, #10]
2ffda968:	2a09      	cmp	r2, #9
2ffda96a:	d80e      	bhi.n	2ffda98a <usb_dfu_abort.isra.0+0x24>
2ffda96c:	f44f 731b 	mov.w	r3, #620	; 0x26c
2ffda970:	40d3      	lsrs	r3, r2
2ffda972:	43db      	mvns	r3, r3
2ffda974:	f013 0301 	ands.w	r3, r3, #1
2ffda978:	d107      	bne.n	2ffda98a <usb_dfu_abort.isra.0+0x24>
2ffda97a:	7403      	strb	r3, [r0, #16]
2ffda97c:	2202      	movs	r2, #2
2ffda97e:	8142      	strh	r2, [r0, #10]
2ffda980:	f04f 7200 	mov.w	r2, #33554432	; 0x2000000
2ffda984:	60c2      	str	r2, [r0, #12]
2ffda986:	6143      	str	r3, [r0, #20]
2ffda988:	6183      	str	r3, [r0, #24]
2ffda98a:	4770      	bx	lr

2ffda98c <usb_dfu_detach.isra.0>:
2ffda98c:	b510      	push	{r4, lr}
2ffda98e:	4604      	mov	r4, r0
2ffda990:	480c      	ldr	r0, [pc, #48]	; (2ffda9c4 <usb_dfu_detach.isra.0+0x38>)
2ffda992:	f000 fc1f 	bl	2ffdb1d4 <tf_log>
2ffda996:	7aa2      	ldrb	r2, [r4, #10]
2ffda998:	2a09      	cmp	r2, #9
2ffda99a:	d80d      	bhi.n	2ffda9b8 <usb_dfu_detach.isra.0+0x2c>
2ffda99c:	f44f 731b 	mov.w	r3, #620	; 0x26c
2ffda9a0:	40d3      	lsrs	r3, r2
2ffda9a2:	43db      	mvns	r3, r3
2ffda9a4:	f013 0301 	ands.w	r3, r3, #1
2ffda9a8:	d106      	bne.n	2ffda9b8 <usb_dfu_detach.isra.0+0x2c>
2ffda9aa:	7423      	strb	r3, [r4, #16]
2ffda9ac:	2202      	movs	r2, #2
2ffda9ae:	8162      	strh	r2, [r4, #10]
2ffda9b0:	f04f 7200 	mov.w	r2, #33554432	; 0x2000000
2ffda9b4:	60e2      	str	r2, [r4, #12]
2ffda9b6:	6163      	str	r3, [r4, #20]
2ffda9b8:	4a03      	ldr	r2, [pc, #12]	; (2ffda9c8 <usb_dfu_detach.isra.0+0x3c>)
2ffda9ba:	2300      	movs	r3, #0
2ffda9bc:	61a3      	str	r3, [r4, #24]
2ffda9be:	6013      	str	r3, [r2, #0]
2ffda9c0:	bd10      	pop	{r4, pc}
2ffda9c2:	bf00      	nop
2ffda9c4:	2ffe33b1 	.word	0x2ffe33b1
2ffda9c8:	2ffe7e60 	.word	0x2ffe7e60

2ffda9cc <usb_dfu_iso_out_incomplete>:
2ffda9cc:	2000      	movs	r0, #0
2ffda9ce:	4770      	bx	lr

2ffda9d0 <usb_dfu_data_out>:
2ffda9d0:	2000      	movs	r0, #0
2ffda9d2:	4770      	bx	lr

2ffda9d4 <usb_dfu_de_init>:
2ffda9d4:	2000      	movs	r0, #0
2ffda9d6:	4770      	bx	lr

2ffda9d8 <usb_dfu_data_in>:
2ffda9d8:	2000      	movs	r0, #0
2ffda9da:	4770      	bx	lr

2ffda9dc <usb_dfu_iso_in_incomplete>:
2ffda9dc:	2000      	movs	r0, #0
2ffda9de:	4770      	bx	lr

2ffda9e0 <usb_dfu_sof>:
2ffda9e0:	2000      	movs	r0, #0
2ffda9e2:	4770      	bx	lr

2ffda9e4 <usb_dfu_setup>:
2ffda9e4:	b5f7      	push	{r0, r1, r2, r4, r5, r6, r7, lr}
2ffda9e6:	2300      	movs	r3, #0
2ffda9e8:	780c      	ldrb	r4, [r1, #0]
2ffda9ea:	4605      	mov	r5, r0
2ffda9ec:	f8d0 6218 	ldr.w	r6, [r0, #536]	; 0x218
2ffda9f0:	460f      	mov	r7, r1
2ffda9f2:	f8ad 3006 	strh.w	r3, [sp, #6]
2ffda9f6:	f014 0460 	ands.w	r4, r4, #96	; 0x60
2ffda9fa:	f000 80f0 	beq.w	2ffdabde <usb_dfu_setup+0x1fa>
2ffda9fe:	2c20      	cmp	r4, #32
2ffdaa00:	d003      	beq.n	2ffdaa0a <usb_dfu_setup+0x26>
2ffdaa02:	2400      	movs	r4, #0
2ffdaa04:	4620      	mov	r0, r4
2ffdaa06:	b003      	add	sp, #12
2ffdaa08:	bdf0      	pop	{r4, r5, r6, r7, pc}
2ffdaa0a:	784c      	ldrb	r4, [r1, #1]
2ffdaa0c:	4b8e      	ldr	r3, [pc, #568]	; (2ffdac48 <usb_dfu_setup+0x264>)
2ffdaa0e:	4a8f      	ldr	r2, [pc, #572]	; (2ffdac4c <usb_dfu_setup+0x268>)
2ffdaa10:	601c      	str	r4, [r3, #0]
2ffdaa12:	6811      	ldr	r1, [r2, #0]
2ffdaa14:	6a33      	ldr	r3, [r6, #32]
2ffdaa16:	428b      	cmp	r3, r1
2ffdaa18:	d163      	bne.n	2ffdaae2 <usb_dfu_setup+0xfe>
2ffdaa1a:	2c06      	cmp	r4, #6
2ffdaa1c:	f200 80d2 	bhi.w	2ffdabc4 <usb_dfu_setup+0x1e0>
2ffdaa20:	e8df f014 	tbh	[pc, r4, lsl #1]
2ffdaa24:	000700cb 	.word	0x000700cb
2ffdaa28:	003b0036 	.word	0x003b0036
2ffdaa2c:	004f003e 	.word	0x004f003e
2ffdaa30:	005b      	.short	0x005b
2ffdaa32:	88fb      	ldrh	r3, [r7, #6]
2ffdaa34:	7ab2      	ldrb	r2, [r6, #10]
2ffdaa36:	b1fb      	cbz	r3, 2ffdaa78 <usb_dfu_setup+0x94>
2ffdaa38:	2a02      	cmp	r2, #2
2ffdaa3a:	d001      	beq.n	2ffdaa40 <usb_dfu_setup+0x5c>
2ffdaa3c:	2a05      	cmp	r2, #5
2ffdaa3e:	d117      	bne.n	2ffdaa70 <usb_dfu_setup+0x8c>
2ffdaa40:	887a      	ldrh	r2, [r7, #2]
2ffdaa42:	2103      	movs	r1, #3
2ffdaa44:	4c82      	ldr	r4, [pc, #520]	; (2ffdac50 <usb_dfu_setup+0x26c>)
2ffdaa46:	4628      	mov	r0, r5
2ffdaa48:	6172      	str	r2, [r6, #20]
2ffdaa4a:	6822      	ldr	r2, [r4, #0]
2ffdaa4c:	61b3      	str	r3, [r6, #24]
2ffdaa4e:	61f2      	str	r2, [r6, #28]
2ffdaa50:	72b1      	strb	r1, [r6, #10]
2ffdaa52:	73f1      	strb	r1, [r6, #15]
2ffdaa54:	f8c5 11f4 	str.w	r1, [r5, #500]	; 0x1f4
2ffdaa58:	2100      	movs	r1, #0
2ffdaa5a:	f8c5 3108 	str.w	r3, [r5, #264]	; 0x108
2ffdaa5e:	f8c5 310c 	str.w	r3, [r5, #268]	; 0x10c
2ffdaa62:	f7ff fb44 	bl	2ffda0ee <usb_core_receive>
2ffdaa66:	6822      	ldr	r2, [r4, #0]
2ffdaa68:	69b3      	ldr	r3, [r6, #24]
2ffdaa6a:	4413      	add	r3, r2
2ffdaa6c:	6023      	str	r3, [r4, #0]
2ffdaa6e:	e7c8      	b.n	2ffdaa02 <usb_dfu_setup+0x1e>
2ffdaa70:	4628      	mov	r0, r5
2ffdaa72:	f7ff fb7b 	bl	2ffda16c <usb_core_ctl_error>
2ffdaa76:	e7c4      	b.n	2ffdaa02 <usb_dfu_setup+0x1e>
2ffdaa78:	2a05      	cmp	r2, #5
2ffdaa7a:	d001      	beq.n	2ffdaa80 <usb_dfu_setup+0x9c>
2ffdaa7c:	2a02      	cmp	r2, #2
2ffdaa7e:	d1f7      	bne.n	2ffdaa70 <usb_dfu_setup+0x8c>
2ffdaa80:	2301      	movs	r3, #1
2ffdaa82:	7473      	strb	r3, [r6, #17]
2ffdaa84:	2306      	movs	r3, #6
2ffdaa86:	72b3      	strb	r3, [r6, #10]
2ffdaa88:	f04f 63c0 	mov.w	r3, #100663296	; 0x6000000
2ffdaa8c:	60f3      	str	r3, [r6, #12]
2ffdaa8e:	e7b8      	b.n	2ffdaa02 <usb_dfu_setup+0x1e>
2ffdaa90:	4639      	mov	r1, r7
2ffdaa92:	4628      	mov	r0, r5
2ffdaa94:	f7ff fe3e 	bl	2ffda714 <usb_dfu_upload>
2ffdaa98:	e7b3      	b.n	2ffdaa02 <usb_dfu_setup+0x1e>
2ffdaa9a:	f7ff fec1 	bl	2ffda820 <usb_dfu_get_status>
2ffdaa9e:	e7b0      	b.n	2ffdaa02 <usb_dfu_setup+0x1e>
2ffdaaa0:	7ab3      	ldrb	r3, [r6, #10]
2ffdaaa2:	2400      	movs	r4, #0
2ffdaaa4:	7434      	strb	r4, [r6, #16]
2ffdaaa6:	2b0a      	cmp	r3, #10
2ffdaaa8:	bf09      	itett	eq
2ffdaaaa:	2302      	moveq	r3, #2
2ffdaaac:	f640 630a 	movwne	r3, #3594	; 0xe0a
2ffdaab0:	8173      	strheq	r3, [r6, #10]
2ffdaab2:	f04f 7300 	moveq.w	r3, #33554432	; 0x2000000
2ffdaab6:	bf1c      	itt	ne
2ffdaab8:	8173      	strhne	r3, [r6, #10]
2ffdaaba:	f04f 6320 	movne.w	r3, #167772160	; 0xa000000
2ffdaabe:	60f3      	str	r3, [r6, #12]
2ffdaac0:	e7a0      	b.n	2ffdaa04 <usb_dfu_setup+0x20>
2ffdaac2:	2302      	movs	r3, #2
2ffdaac4:	f106 020a 	add.w	r2, r6, #10
2ffdaac8:	f8c0 31f4 	str.w	r3, [r0, #500]	; 0x1f4
2ffdaacc:	2301      	movs	r3, #1
2ffdaace:	6183      	str	r3, [r0, #24]
2ffdaad0:	2100      	movs	r1, #0
2ffdaad2:	61c3      	str	r3, [r0, #28]
2ffdaad4:	f7ff fb2c 	bl	2ffda130 <usb_core_transmit>
2ffdaad8:	e793      	b.n	2ffdaa02 <usb_dfu_setup+0x1e>
2ffdaada:	4630      	mov	r0, r6
2ffdaadc:	f7ff ff43 	bl	2ffda966 <usb_dfu_abort.isra.0>
2ffdaae0:	e78f      	b.n	2ffdaa02 <usb_dfu_setup+0x1e>
2ffdaae2:	2b05      	cmp	r3, #5
2ffdaae4:	d175      	bne.n	2ffdabd2 <usb_dfu_setup+0x1ee>
2ffdaae6:	2c06      	cmp	r4, #6
2ffdaae8:	d86b      	bhi.n	2ffdabc2 <usb_dfu_setup+0x1de>
2ffdaaea:	a301      	add	r3, pc, #4	; (adr r3, 2ffdaaf0 <usb_dfu_setup+0x10c>)
2ffdaaec:	f853 f024 	ldr.w	pc, [r3, r4, lsl #2]
2ffdaaf0:	2ffdabbb 	.word	0x2ffdabbb
2ffdaaf4:	2ffdabc3 	.word	0x2ffdabc3
2ffdaaf8:	2ffdaa91 	.word	0x2ffdaa91
2ffdaafc:	2ffdab0d 	.word	0x2ffdab0d
2ffdab00:	2ffdab61 	.word	0x2ffdab61
2ffdab04:	2ffdab8d 	.word	0x2ffdab8d
2ffdab08:	2ffdabaf 	.word	0x2ffdabaf
2ffdab0c:	4851      	ldr	r0, [pc, #324]	; (2ffdac54 <usb_dfu_setup+0x270>)
2ffdab0e:	f000 fb61 	bl	2ffdb1d4 <tf_log>
2ffdab12:	4628      	mov	r0, r5
2ffdab14:	f7ff fe84 	bl	2ffda820 <usb_dfu_get_status>
2ffdab18:	7ab3      	ldrb	r3, [r6, #10]
2ffdab1a:	2b0a      	cmp	r3, #10
2ffdab1c:	f63f af71 	bhi.w	2ffdaa02 <usb_dfu_setup+0x1e>
2ffdab20:	e8df f003 	tbb	[pc, r3]
2ffdab24:	0e0c0a06 	.word	0x0e0c0a06
2ffdab28:	16141210 	.word	0x16141210
2ffdab2c:	1a18      	.short	0x1a18
2ffdab2e:	1c          	.byte	0x1c
2ffdab2f:	00          	.byte	0x00
2ffdab30:	4849      	ldr	r0, [pc, #292]	; (2ffdac58 <usb_dfu_setup+0x274>)
2ffdab32:	f000 fb4f 	bl	2ffdb1d4 <tf_log>
2ffdab36:	e764      	b.n	2ffdaa02 <usb_dfu_setup+0x1e>
2ffdab38:	4848      	ldr	r0, [pc, #288]	; (2ffdac5c <usb_dfu_setup+0x278>)
2ffdab3a:	e7fa      	b.n	2ffdab32 <usb_dfu_setup+0x14e>
2ffdab3c:	4848      	ldr	r0, [pc, #288]	; (2ffdac60 <usb_dfu_setup+0x27c>)
2ffdab3e:	e7f8      	b.n	2ffdab32 <usb_dfu_setup+0x14e>
2ffdab40:	4848      	ldr	r0, [pc, #288]	; (2ffdac64 <usb_dfu_setup+0x280>)
2ffdab42:	e7f6      	b.n	2ffdab32 <usb_dfu_setup+0x14e>
2ffdab44:	4848      	ldr	r0, [pc, #288]	; (2ffdac68 <usb_dfu_setup+0x284>)
2ffdab46:	e7f4      	b.n	2ffdab32 <usb_dfu_setup+0x14e>
2ffdab48:	4848      	ldr	r0, [pc, #288]	; (2ffdac6c <usb_dfu_setup+0x288>)
2ffdab4a:	e7f2      	b.n	2ffdab32 <usb_dfu_setup+0x14e>
2ffdab4c:	4848      	ldr	r0, [pc, #288]	; (2ffdac70 <usb_dfu_setup+0x28c>)
2ffdab4e:	e7f0      	b.n	2ffdab32 <usb_dfu_setup+0x14e>
2ffdab50:	4848      	ldr	r0, [pc, #288]	; (2ffdac74 <usb_dfu_setup+0x290>)
2ffdab52:	e7ee      	b.n	2ffdab32 <usb_dfu_setup+0x14e>
2ffdab54:	4848      	ldr	r0, [pc, #288]	; (2ffdac78 <usb_dfu_setup+0x294>)
2ffdab56:	e7ec      	b.n	2ffdab32 <usb_dfu_setup+0x14e>
2ffdab58:	4848      	ldr	r0, [pc, #288]	; (2ffdac7c <usb_dfu_setup+0x298>)
2ffdab5a:	e7ea      	b.n	2ffdab32 <usb_dfu_setup+0x14e>
2ffdab5c:	4848      	ldr	r0, [pc, #288]	; (2ffdac80 <usb_dfu_setup+0x29c>)
2ffdab5e:	e7e8      	b.n	2ffdab32 <usb_dfu_setup+0x14e>
2ffdab60:	4848      	ldr	r0, [pc, #288]	; (2ffdac84 <usb_dfu_setup+0x2a0>)
2ffdab62:	2400      	movs	r4, #0
2ffdab64:	f000 fb36 	bl	2ffdb1d4 <tf_log>
2ffdab68:	f8d5 3218 	ldr.w	r3, [r5, #536]	; 0x218
2ffdab6c:	7a9a      	ldrb	r2, [r3, #10]
2ffdab6e:	741c      	strb	r4, [r3, #16]
2ffdab70:	2a0a      	cmp	r2, #10
2ffdab72:	bf09      	itett	eq
2ffdab74:	2202      	moveq	r2, #2
2ffdab76:	f640 620a 	movwne	r2, #3594	; 0xe0a
2ffdab7a:	815a      	strheq	r2, [r3, #10]
2ffdab7c:	f04f 7200 	moveq.w	r2, #33554432	; 0x2000000
2ffdab80:	bf1c      	itt	ne
2ffdab82:	815a      	strhne	r2, [r3, #10]
2ffdab84:	f04f 6220 	movne.w	r2, #167772160	; 0xa000000
2ffdab88:	60da      	str	r2, [r3, #12]
2ffdab8a:	e73b      	b.n	2ffdaa04 <usb_dfu_setup+0x20>
2ffdab8c:	483e      	ldr	r0, [pc, #248]	; (2ffdac88 <usb_dfu_setup+0x2a4>)
2ffdab8e:	f000 fb21 	bl	2ffdb1d4 <tf_log>
2ffdab92:	f8d5 2218 	ldr.w	r2, [r5, #536]	; 0x218
2ffdab96:	2302      	movs	r3, #2
2ffdab98:	f8c5 31f4 	str.w	r3, [r5, #500]	; 0x1f4
2ffdab9c:	2301      	movs	r3, #1
2ffdab9e:	61ab      	str	r3, [r5, #24]
2ffdaba0:	320a      	adds	r2, #10
2ffdaba2:	61eb      	str	r3, [r5, #28]
2ffdaba4:	2100      	movs	r1, #0
2ffdaba6:	4628      	mov	r0, r5
2ffdaba8:	f7ff fac2 	bl	2ffda130 <usb_core_transmit>
2ffdabac:	e7b4      	b.n	2ffdab18 <usb_dfu_setup+0x134>
2ffdabae:	4837      	ldr	r0, [pc, #220]	; (2ffdac8c <usb_dfu_setup+0x2a8>)
2ffdabb0:	f000 fb10 	bl	2ffdb1d4 <tf_log>
2ffdabb4:	f8d5 0218 	ldr.w	r0, [r5, #536]	; 0x218
2ffdabb8:	e790      	b.n	2ffdaadc <usb_dfu_setup+0xf8>
2ffdabba:	4630      	mov	r0, r6
2ffdabbc:	f7ff fee6 	bl	2ffda98c <usb_dfu_detach.isra.0>
2ffdabc0:	e720      	b.n	2ffdaa04 <usb_dfu_setup+0x20>
2ffdabc2:	2105      	movs	r1, #5
2ffdabc4:	4832      	ldr	r0, [pc, #200]	; (2ffdac90 <usb_dfu_setup+0x2ac>)
2ffdabc6:	f000 fb05 	bl	2ffdb1d4 <tf_log>
2ffdabca:	4628      	mov	r0, r5
2ffdabcc:	f7ff face 	bl	2ffda16c <usb_core_ctl_error>
2ffdabd0:	e003      	b.n	2ffdabda <usb_dfu_setup+0x1f6>
2ffdabd2:	4830      	ldr	r0, [pc, #192]	; (2ffdac94 <usb_dfu_setup+0x2b0>)
2ffdabd4:	4619      	mov	r1, r3
2ffdabd6:	f000 fafd 	bl	2ffdb1d4 <tf_log>
2ffdabda:	2402      	movs	r4, #2
2ffdabdc:	e712      	b.n	2ffdaa04 <usb_dfu_setup+0x20>
2ffdabde:	784b      	ldrb	r3, [r1, #1]
2ffdabe0:	2b0a      	cmp	r3, #10
2ffdabe2:	d024      	beq.n	2ffdac2e <usb_dfu_setup+0x24a>
2ffdabe4:	2b0b      	cmp	r3, #11
2ffdabe6:	d02c      	beq.n	2ffdac42 <usb_dfu_setup+0x25e>
2ffdabe8:	2b06      	cmp	r3, #6
2ffdabea:	d1ef      	bne.n	2ffdabcc <usb_dfu_setup+0x1e8>
2ffdabec:	884b      	ldrh	r3, [r1, #2]
2ffdabee:	0a1b      	lsrs	r3, r3, #8
2ffdabf0:	2b21      	cmp	r3, #33	; 0x21
2ffdabf2:	d11a      	bne.n	2ffdac2a <usb_dfu_setup+0x246>
2ffdabf4:	f8d0 3210 	ldr.w	r3, [r0, #528]	; 0x210
2ffdabf8:	f10d 0006 	add.w	r0, sp, #6
2ffdabfc:	6b1b      	ldr	r3, [r3, #48]	; 0x30
2ffdabfe:	4798      	blx	r3
2ffdac00:	f8bd 3006 	ldrh.w	r3, [sp, #6]
2ffdac04:	4602      	mov	r2, r0
2ffdac06:	88f9      	ldrh	r1, [r7, #6]
2ffdac08:	428b      	cmp	r3, r1
2ffdac0a:	bf28      	it	cs
2ffdac0c:	460b      	movcs	r3, r1
2ffdac0e:	f8ad 3006 	strh.w	r3, [sp, #6]
2ffdac12:	2302      	movs	r3, #2
2ffdac14:	2100      	movs	r1, #0
2ffdac16:	f8c5 31f4 	str.w	r3, [r5, #500]	; 0x1f4
2ffdac1a:	4628      	mov	r0, r5
2ffdac1c:	f8bd 3006 	ldrh.w	r3, [sp, #6]
2ffdac20:	61ab      	str	r3, [r5, #24]
2ffdac22:	61eb      	str	r3, [r5, #28]
2ffdac24:	f7ff fa84 	bl	2ffda130 <usb_core_transmit>
2ffdac28:	e6ec      	b.n	2ffdaa04 <usb_dfu_setup+0x20>
2ffdac2a:	4622      	mov	r2, r4
2ffdac2c:	e7f1      	b.n	2ffdac12 <usb_dfu_setup+0x22e>
2ffdac2e:	2302      	movs	r3, #2
2ffdac30:	f106 0220 	add.w	r2, r6, #32
2ffdac34:	f8c0 31f4 	str.w	r3, [r0, #500]	; 0x1f4
2ffdac38:	2301      	movs	r3, #1
2ffdac3a:	6183      	str	r3, [r0, #24]
2ffdac3c:	4621      	mov	r1, r4
2ffdac3e:	61c3      	str	r3, [r0, #28]
2ffdac40:	e7f0      	b.n	2ffdac24 <usb_dfu_setup+0x240>
2ffdac42:	788b      	ldrb	r3, [r1, #2]
2ffdac44:	6233      	str	r3, [r6, #32]
2ffdac46:	e6dd      	b.n	2ffdaa04 <usb_dfu_setup+0x20>
2ffdac48:	2ffe7e64 	.word	0x2ffe7e64
2ffdac4c:	2ffe7e70 	.word	0x2ffe7e70
2ffdac50:	2ffe7e68 	.word	0x2ffe7e68
2ffdac54:	2ffe33d1 	.word	0x2ffe33d1
2ffdac58:	2ffe33df 	.word	0x2ffe33df
2ffdac5c:	2ffe33f2 	.word	0x2ffe33f2
2ffdac60:	2ffe3407 	.word	0x2ffe3407
2ffdac64:	2ffe341a 	.word	0x2ffe341a
2ffdac68:	2ffe3434 	.word	0x2ffe3434
2ffdac6c:	2ffe344e 	.word	0x2ffe344e
2ffdac70:	2ffe3468 	.word	0x2ffe3468
2ffdac74:	2ffe3484 	.word	0x2ffe3484
2ffdac78:	2ffe349b 	.word	0x2ffe349b
2ffdac7c:	2ffe34bd 	.word	0x2ffe34bd
2ffdac80:	2ffe34d7 	.word	0x2ffe34d7
2ffdac84:	2ffe34eb 	.word	0x2ffe34eb
2ffdac88:	2ffe3506 	.word	0x2ffe3506
2ffdac8c:	2ffe3513 	.word	0x2ffe3513
2ffdac90:	2ffe33c2 	.word	0x2ffe33c2
2ffdac94:	2ffe3527 	.word	0x2ffe3527

2ffdac98 <usb_dfu_register_callback>:
2ffdac98:	4b01      	ldr	r3, [pc, #4]	; (2ffdaca0 <usb_dfu_register_callback+0x8>)
2ffdac9a:	f8c0 3214 	str.w	r3, [r0, #532]	; 0x214
2ffdac9e:	4770      	bx	lr
2ffdaca0:	2ffe3540 	.word	0x2ffe3540

2ffdaca4 <usb_dfu_set_phase_id>:
2ffdaca4:	4b02      	ldr	r3, [pc, #8]	; (2ffdacb0 <usb_dfu_set_phase_id+0xc>)
2ffdaca6:	2200      	movs	r2, #0
2ffdaca8:	6018      	str	r0, [r3, #0]
2ffdacaa:	4b02      	ldr	r3, [pc, #8]	; (2ffdacb4 <usb_dfu_set_phase_id+0x10>)
2ffdacac:	601a      	str	r2, [r3, #0]
2ffdacae:	4770      	bx	lr
2ffdacb0:	2ffe7e70 	.word	0x2ffe7e70
2ffdacb4:	2ffe7e6c 	.word	0x2ffe7e6c

2ffdacb8 <usb_dfu_set_download_addr>:
2ffdacb8:	4b01      	ldr	r3, [pc, #4]	; (2ffdacc0 <usb_dfu_set_download_addr+0x8>)
2ffdacba:	6018      	str	r0, [r3, #0]
2ffdacbc:	4770      	bx	lr
2ffdacbe:	bf00      	nop
2ffdacc0:	2ffe7e68 	.word	0x2ffe7e68

2ffdacc4 <usb_dfu_download_is_completed>:
2ffdacc4:	4b01      	ldr	r3, [pc, #4]	; (2ffdaccc <usb_dfu_download_is_completed+0x8>)
2ffdacc6:	6818      	ldr	r0, [r3, #0]
2ffdacc8:	4770      	bx	lr
2ffdacca:	bf00      	nop
2ffdaccc:	2ffe7e6c 	.word	0x2ffe7e6c

2ffdacd0 <usb_dfu_get_current_req>:
2ffdacd0:	4b01      	ldr	r3, [pc, #4]	; (2ffdacd8 <usb_dfu_get_current_req+0x8>)
2ffdacd2:	6818      	ldr	r0, [r3, #0]
2ffdacd4:	4770      	bx	lr
2ffdacd6:	bf00      	nop
2ffdacd8:	2ffe7e64 	.word	0x2ffe7e64

2ffdacdc <usb_dfu_detach_req>:
2ffdacdc:	4b01      	ldr	r3, [pc, #4]	; (2ffdace4 <usb_dfu_detach_req+0x8>)
2ffdacde:	6818      	ldr	r0, [r3, #0]
2ffdace0:	4770      	bx	lr
2ffdace2:	bf00      	nop
2ffdace4:	2ffe7e60 	.word	0x2ffe7e60

2ffdace8 <usb_dfu_request_detach>:
2ffdace8:	4b01      	ldr	r3, [pc, #4]	; (2ffdacf0 <usb_dfu_request_detach+0x8>)
2ffdacea:	2201      	movs	r2, #1
2ffdacec:	601a      	str	r2, [r3, #0]
2ffdacee:	4770      	bx	lr
2ffdacf0:	2ffe7e60 	.word	0x2ffe7e60

2ffdacf4 <stm32mp1_get_qualifier_desc>:
2ffdacf4:	230a      	movs	r3, #10
2ffdacf6:	8003      	strh	r3, [r0, #0]
2ffdacf8:	4800      	ldr	r0, [pc, #0]	; (2ffdacfc <stm32mp1_get_qualifier_desc+0x8>)
2ffdacfa:	4770      	bx	lr
2ffdacfc:	2ffe3706 	.word	0x2ffe3706

2ffdad00 <stm32mp1_get_dfu_desc>:
2ffdad00:	2309      	movs	r3, #9
2ffdad02:	8003      	strh	r3, [r0, #0]
2ffdad04:	4800      	ldr	r0, [pc, #0]	; (2ffdad08 <stm32mp1_get_dfu_desc+0x8>)
2ffdad06:	4770      	bx	lr
2ffdad08:	2ffe621b 	.word	0x2ffe621b

2ffdad0c <stm32mp1_get_config_desc>:
2ffdad0c:	2348      	movs	r3, #72	; 0x48
2ffdad0e:	8003      	strh	r3, [r0, #0]
2ffdad10:	4800      	ldr	r0, [pc, #0]	; (2ffdad14 <stm32mp1_get_config_desc+0x8>)
2ffdad12:	4770      	bx	lr
2ffdad14:	2ffe61dc 	.word	0x2ffe61dc

2ffdad18 <stm32mp1_device_desc>:
2ffdad18:	2312      	movs	r3, #18
2ffdad1a:	8003      	strh	r3, [r0, #0]
2ffdad1c:	4800      	ldr	r0, [pc, #0]	; (2ffdad20 <stm32mp1_device_desc+0x8>)
2ffdad1e:	4770      	bx	lr
2ffdad20:	2ffe36f0 	.word	0x2ffe36f0

2ffdad24 <stm32mp1_lang_id_desc>:
2ffdad24:	2304      	movs	r3, #4
2ffdad26:	8003      	strh	r3, [r0, #0]
2ffdad28:	4800      	ldr	r0, [pc, #0]	; (2ffdad2c <stm32mp1_lang_id_desc+0x8>)
2ffdad2a:	4770      	bx	lr
2ffdad2c:	2ffe3702 	.word	0x2ffe3702

2ffdad30 <stm32mp1_get_string.part.0.constprop.0>:
2ffdad30:	b538      	push	{r3, r4, r5, lr}
2ffdad32:	460d      	mov	r5, r1
2ffdad34:	4604      	mov	r4, r0
2ffdad36:	f006 fd76 	bl	2ffe1826 <strlen>
2ffdad3a:	4a0b      	ldr	r2, [pc, #44]	; (2ffdad68 <stm32mp1_get_string.part.0.constprop.0+0x38>)
2ffdad3c:	1c43      	adds	r3, r0, #1
2ffdad3e:	1e60      	subs	r0, r4, #1
2ffdad40:	005b      	lsls	r3, r3, #1
2ffdad42:	b29b      	uxth	r3, r3
2ffdad44:	802b      	strh	r3, [r5, #0]
2ffdad46:	2500      	movs	r5, #0
2ffdad48:	7013      	strb	r3, [r2, #0]
2ffdad4a:	2303      	movs	r3, #3
2ffdad4c:	7053      	strb	r3, [r2, #1]
2ffdad4e:	2302      	movs	r3, #2
2ffdad50:	f810 4f01 	ldrb.w	r4, [r0, #1]!
2ffdad54:	b904      	cbnz	r4, 2ffdad58 <stm32mp1_get_string.part.0.constprop.0+0x28>
2ffdad56:	bd38      	pop	{r3, r4, r5, pc}
2ffdad58:	54d4      	strb	r4, [r2, r3]
2ffdad5a:	1c59      	adds	r1, r3, #1
2ffdad5c:	b2c9      	uxtb	r1, r1
2ffdad5e:	3302      	adds	r3, #2
2ffdad60:	b2db      	uxtb	r3, r3
2ffdad62:	5455      	strb	r5, [r2, r1]
2ffdad64:	e7f4      	b.n	2ffdad50 <stm32mp1_get_string.part.0.constprop.0+0x20>
2ffdad66:	bf00      	nop
2ffdad68:	2ffe805a 	.word	0x2ffe805a

2ffdad6c <stm32mp1_manufacturer_desc>:
2ffdad6c:	4601      	mov	r1, r0
2ffdad6e:	b508      	push	{r3, lr}
2ffdad70:	4802      	ldr	r0, [pc, #8]	; (2ffdad7c <stm32mp1_manufacturer_desc+0x10>)
2ffdad72:	f7ff ffdd 	bl	2ffdad30 <stm32mp1_get_string.part.0.constprop.0>
2ffdad76:	4802      	ldr	r0, [pc, #8]	; (2ffdad80 <stm32mp1_manufacturer_desc+0x14>)
2ffdad78:	bd08      	pop	{r3, pc}
2ffdad7a:	bf00      	nop
2ffdad7c:	2ffe356c 	.word	0x2ffe356c
2ffdad80:	2ffe805a 	.word	0x2ffe805a

2ffdad84 <stm32mp1_product_desc>:
2ffdad84:	4601      	mov	r1, r0
2ffdad86:	b508      	push	{r3, lr}
2ffdad88:	4802      	ldr	r0, [pc, #8]	; (2ffdad94 <stm32mp1_product_desc+0x10>)
2ffdad8a:	f7ff ffd1 	bl	2ffdad30 <stm32mp1_get_string.part.0.constprop.0>
2ffdad8e:	4802      	ldr	r0, [pc, #8]	; (2ffdad98 <stm32mp1_product_desc+0x14>)
2ffdad90:	bd08      	pop	{r3, pc}
2ffdad92:	bf00      	nop
2ffdad94:	2ffe357f 	.word	0x2ffe357f
2ffdad98:	2ffe805a 	.word	0x2ffe805a

2ffdad9c <stm32mp1_config_desc>:
2ffdad9c:	4601      	mov	r1, r0
2ffdad9e:	b508      	push	{r3, lr}
2ffdada0:	4802      	ldr	r0, [pc, #8]	; (2ffdadac <stm32mp1_config_desc+0x10>)
2ffdada2:	f7ff ffc5 	bl	2ffdad30 <stm32mp1_get_string.part.0.constprop.0>
2ffdada6:	4802      	ldr	r0, [pc, #8]	; (2ffdadb0 <stm32mp1_config_desc+0x14>)
2ffdada8:	bd08      	pop	{r3, pc}
2ffdadaa:	bf00      	nop
2ffdadac:	2ffe35b6 	.word	0x2ffe35b6
2ffdadb0:	2ffe805a 	.word	0x2ffe805a

2ffdadb4 <stm32mp1_interface_desc>:
2ffdadb4:	4601      	mov	r1, r0
2ffdadb6:	b508      	push	{r3, lr}
2ffdadb8:	4802      	ldr	r0, [pc, #8]	; (2ffdadc4 <stm32mp1_interface_desc+0x10>)
2ffdadba:	f7ff ffb9 	bl	2ffdad30 <stm32mp1_get_string.part.0.constprop.0>
2ffdadbe:	4802      	ldr	r0, [pc, #8]	; (2ffdadc8 <stm32mp1_interface_desc+0x14>)
2ffdadc0:	bd08      	pop	{r3, pc}
2ffdadc2:	bf00      	nop
2ffdadc4:	2ffe35c1 	.word	0x2ffe35c1
2ffdadc8:	2ffe805a 	.word	0x2ffe805a

2ffdadcc <stm32mp1_get_usr_desc>:
2ffdadcc:	280b      	cmp	r0, #11
2ffdadce:	b508      	push	{r3, lr}
2ffdadd0:	d816      	bhi.n	2ffdae00 <stm32mp1_get_usr_desc+0x34>
2ffdadd2:	3806      	subs	r0, #6
2ffdadd4:	2805      	cmp	r0, #5
2ffdadd6:	d813      	bhi.n	2ffdae00 <stm32mp1_get_usr_desc+0x34>
2ffdadd8:	e8df f000 	tbb	[pc, r0]
2ffdaddc:	0c0a0803 	.word	0x0c0a0803
2ffdade0:	100e      	.short	0x100e
2ffdade2:	4808      	ldr	r0, [pc, #32]	; (2ffdae04 <stm32mp1_get_usr_desc+0x38>)
2ffdade4:	f7ff ffa4 	bl	2ffdad30 <stm32mp1_get_string.part.0.constprop.0>
2ffdade8:	4807      	ldr	r0, [pc, #28]	; (2ffdae08 <stm32mp1_get_usr_desc+0x3c>)
2ffdadea:	bd08      	pop	{r3, pc}
2ffdadec:	4807      	ldr	r0, [pc, #28]	; (2ffdae0c <stm32mp1_get_usr_desc+0x40>)
2ffdadee:	e7f9      	b.n	2ffdade4 <stm32mp1_get_usr_desc+0x18>
2ffdadf0:	4807      	ldr	r0, [pc, #28]	; (2ffdae10 <stm32mp1_get_usr_desc+0x44>)
2ffdadf2:	e7f7      	b.n	2ffdade4 <stm32mp1_get_usr_desc+0x18>
2ffdadf4:	4807      	ldr	r0, [pc, #28]	; (2ffdae14 <stm32mp1_get_usr_desc+0x48>)
2ffdadf6:	e7f5      	b.n	2ffdade4 <stm32mp1_get_usr_desc+0x18>
2ffdadf8:	4807      	ldr	r0, [pc, #28]	; (2ffdae18 <stm32mp1_get_usr_desc+0x4c>)
2ffdadfa:	e7f3      	b.n	2ffdade4 <stm32mp1_get_usr_desc+0x18>
2ffdadfc:	4807      	ldr	r0, [pc, #28]	; (2ffdae1c <stm32mp1_get_usr_desc+0x50>)
2ffdadfe:	e7f1      	b.n	2ffdade4 <stm32mp1_get_usr_desc+0x18>
2ffdae00:	2000      	movs	r0, #0
2ffdae02:	e7f2      	b.n	2ffdadea <stm32mp1_get_usr_desc+0x1e>
2ffdae04:	2ffe35cf 	.word	0x2ffe35cf
2ffdae08:	2ffe805a 	.word	0x2ffe805a
2ffdae0c:	2ffe35e9 	.word	0x2ffe35e9
2ffdae10:	2ffe35fb 	.word	0x2ffe35fb
2ffdae14:	2ffe3613 	.word	0x2ffe3613
2ffdae18:	2ffe362c 	.word	0x2ffe362c
2ffdae1c:	2ffe3645 	.word	0x2ffe3645

2ffdae20 <int_to_unicode.constprop.0>:
2ffdae20:	2300      	movs	r3, #0
2ffdae22:	b530      	push	{r4, r5, lr}
2ffdae24:	1c4c      	adds	r4, r1, #1
2ffdae26:	461d      	mov	r5, r3
2ffdae28:	0f02      	lsrs	r2, r0, #28
2ffdae2a:	f1b0 4f20 	cmp.w	r0, #2684354560	; 0xa0000000
2ffdae2e:	bf34      	ite	cc
2ffdae30:	3230      	addcc	r2, #48	; 0x30
2ffdae32:	3237      	addcs	r2, #55	; 0x37
2ffdae34:	f801 2013 	strb.w	r2, [r1, r3, lsl #1]
2ffdae38:	f804 5013 	strb.w	r5, [r4, r3, lsl #1]
2ffdae3c:	3301      	adds	r3, #1
2ffdae3e:	0100      	lsls	r0, r0, #4
2ffdae40:	2b08      	cmp	r3, #8
2ffdae42:	d1f1      	bne.n	2ffdae28 <int_to_unicode.constprop.0+0x8>
2ffdae44:	bd30      	pop	{r4, r5, pc}
	...

2ffdae48 <stm32mp1_serial_desc>:
2ffdae48:	b530      	push	{r4, r5, lr}
2ffdae4a:	2332      	movs	r3, #50	; 0x32
2ffdae4c:	8003      	strh	r3, [r0, #0]
2ffdae4e:	b087      	sub	sp, #28
2ffdae50:	4819      	ldr	r0, [pc, #100]	; (2ffdaeb8 <stm32mp1_serial_desc+0x70>)
2ffdae52:	2300      	movs	r3, #0
2ffdae54:	9303      	str	r3, [sp, #12]
2ffdae56:	aa02      	add	r2, sp, #8
2ffdae58:	9304      	str	r3, [sp, #16]
2ffdae5a:	a901      	add	r1, sp, #4
2ffdae5c:	9305      	str	r3, [sp, #20]
2ffdae5e:	f000 fc83 	bl	2ffdb768 <stm32_get_otp_index>
2ffdae62:	4604      	mov	r4, r0
2ffdae64:	b128      	cbz	r0, 2ffdae72 <stm32mp1_serial_desc+0x2a>
2ffdae66:	4815      	ldr	r0, [pc, #84]	; (2ffdaebc <stm32mp1_serial_desc+0x74>)
2ffdae68:	f000 f9b4 	bl	2ffdb1d4 <tf_log>
2ffdae6c:	4814      	ldr	r0, [pc, #80]	; (2ffdaec0 <stm32mp1_serial_desc+0x78>)
2ffdae6e:	b007      	add	sp, #28
2ffdae70:	bd30      	pop	{r4, r5, pc}
2ffdae72:	9b02      	ldr	r3, [sp, #8]
2ffdae74:	3b60      	subs	r3, #96	; 0x60
2ffdae76:	2b1f      	cmp	r3, #31
2ffdae78:	d901      	bls.n	2ffdae7e <stm32mp1_serial_desc+0x36>
2ffdae7a:	4812      	ldr	r0, [pc, #72]	; (2ffdaec4 <stm32mp1_serial_desc+0x7c>)
2ffdae7c:	e7f4      	b.n	2ffdae68 <stm32mp1_serial_desc+0x20>
2ffdae7e:	ad03      	add	r5, sp, #12
2ffdae80:	9901      	ldr	r1, [sp, #4]
2ffdae82:	4628      	mov	r0, r5
2ffdae84:	4421      	add	r1, r4
2ffdae86:	f002 f915 	bl	2ffdd0b4 <bsec_shadow_read_otp>
2ffdae8a:	b120      	cbz	r0, 2ffdae96 <stm32mp1_serial_desc+0x4e>
2ffdae8c:	480e      	ldr	r0, [pc, #56]	; (2ffdaec8 <stm32mp1_serial_desc+0x80>)
2ffdae8e:	4621      	mov	r1, r4
2ffdae90:	f000 f9a0 	bl	2ffdb1d4 <tf_log>
2ffdae94:	e7ea      	b.n	2ffdae6c <stm32mp1_serial_desc+0x24>
2ffdae96:	3401      	adds	r4, #1
2ffdae98:	3504      	adds	r5, #4
2ffdae9a:	2c03      	cmp	r4, #3
2ffdae9c:	d1f0      	bne.n	2ffdae80 <stm32mp1_serial_desc+0x38>
2ffdae9e:	9803      	ldr	r0, [sp, #12]
2ffdaea0:	490a      	ldr	r1, [pc, #40]	; (2ffdaecc <stm32mp1_serial_desc+0x84>)
2ffdaea2:	f7ff ffbd 	bl	2ffdae20 <int_to_unicode.constprop.0>
2ffdaea6:	9804      	ldr	r0, [sp, #16]
2ffdaea8:	4909      	ldr	r1, [pc, #36]	; (2ffdaed0 <stm32mp1_serial_desc+0x88>)
2ffdaeaa:	f7ff ffb9 	bl	2ffdae20 <int_to_unicode.constprop.0>
2ffdaeae:	4909      	ldr	r1, [pc, #36]	; (2ffdaed4 <stm32mp1_serial_desc+0x8c>)
2ffdaeb0:	9805      	ldr	r0, [sp, #20]
2ffdaeb2:	f7ff ffb5 	bl	2ffdae20 <int_to_unicode.constprop.0>
2ffdaeb6:	e7d9      	b.n	2ffdae6c <stm32mp1_serial_desc+0x24>
2ffdaeb8:	2ffe365c 	.word	0x2ffe365c
2ffdaebc:	2ffe3664 	.word	0x2ffe3664
2ffdaec0:	2ffe6224 	.word	0x2ffe6224
2ffdaec4:	2ffe3685 	.word	0x2ffe3685
2ffdaec8:	2ffe36a6 	.word	0x2ffe36a6
2ffdaecc:	2ffe6226 	.word	0x2ffe6226
2ffdaed0:	2ffe6236 	.word	0x2ffe6236
2ffdaed4:	2ffe6246 	.word	0x2ffe6246

2ffdaed8 <stm32mp_usb_init_desc>:
2ffdaed8:	4901      	ldr	r1, [pc, #4]	; (2ffdaee0 <stm32mp_usb_init_desc+0x8>)
2ffdaeda:	f7ff bc12 	b.w	2ffda702 <register_platform>
2ffdaede:	bf00      	nop
2ffdaee0:	2ffe36bc 	.word	0x2ffe36bc

2ffdaee4 <bl2_load_images>:
2ffdaee4:	e92d 43f8 	stmdb	sp!, {r3, r4, r5, r6, r7, r8, r9, lr}
2ffdaee8:	f7fe fba8 	bl	2ffd963c <plat_get_bl_image_load_info>
2ffdaeec:	b918      	cbnz	r0, 2ffdaef6 <bl2_load_images+0x12>
2ffdaeee:	2126      	movs	r1, #38	; 0x26
2ffdaef0:	4838      	ldr	r0, [pc, #224]	; (2ffdafd4 <bl2_load_images+0xf0>)
2ffdaef2:	f006 fa71 	bl	2ffe13d8 <__assert>
2ffdaef6:	6884      	ldr	r4, [r0, #8]
2ffdaef8:	b90c      	cbnz	r4, 2ffdaefe <bl2_load_images+0x1a>
2ffdaefa:	2127      	movs	r1, #39	; 0x27
2ffdaefc:	e7f8      	b.n	2ffdaef0 <bl2_load_images+0xc>
2ffdaefe:	7803      	ldrb	r3, [r0, #0]
2ffdaf00:	2b04      	cmp	r3, #4
2ffdaf02:	d001      	beq.n	2ffdaf08 <bl2_load_images+0x24>
2ffdaf04:	2128      	movs	r1, #40	; 0x28
2ffdaf06:	e7f3      	b.n	2ffdaef0 <bl2_load_images+0xc>
2ffdaf08:	7843      	ldrb	r3, [r0, #1]
2ffdaf0a:	2b01      	cmp	r3, #1
2ffdaf0c:	d801      	bhi.n	2ffdaf12 <bl2_load_images+0x2e>
2ffdaf0e:	2129      	movs	r1, #41	; 0x29
2ffdaf10:	e7ee      	b.n	2ffdaef0 <bl2_load_images+0xc>
2ffdaf12:	4f31      	ldr	r7, [pc, #196]	; (2ffdafd8 <bl2_load_images+0xf4>)
2ffdaf14:	2600      	movs	r6, #0
2ffdaf16:	f8df 80d4 	ldr.w	r8, [pc, #212]	; 2ffdafec <bl2_load_images+0x108>
2ffdaf1a:	f8df 90d4 	ldr.w	r9, [pc, #212]	; 2ffdaff0 <bl2_load_images+0x10c>
2ffdaf1e:	6863      	ldr	r3, [r4, #4]
2ffdaf20:	685b      	ldr	r3, [r3, #4]
2ffdaf22:	075a      	lsls	r2, r3, #29
2ffdaf24:	d503      	bpl.n	2ffdaf2e <bl2_load_images+0x4a>
2ffdaf26:	b176      	cbz	r6, 2ffdaf46 <bl2_load_images+0x62>
2ffdaf28:	4640      	mov	r0, r8
2ffdaf2a:	f000 f953 	bl	2ffdb1d4 <tf_log>
2ffdaf2e:	6820      	ldr	r0, [r4, #0]
2ffdaf30:	f000 fa12 	bl	2ffdb358 <bl2_plat_handle_pre_image_load>
2ffdaf34:	4605      	mov	r5, r0
2ffdaf36:	b168      	cbz	r0, 2ffdaf54 <bl2_load_images+0x70>
2ffdaf38:	4601      	mov	r1, r0
2ffdaf3a:	4828      	ldr	r0, [pc, #160]	; (2ffdafdc <bl2_load_images+0xf8>)
2ffdaf3c:	f000 f94a 	bl	2ffdb1d4 <tf_log>
2ffdaf40:	4628      	mov	r0, r5
2ffdaf42:	f000 fa06 	bl	2ffdb352 <plat_error_handler>
2ffdaf46:	4638      	mov	r0, r7
2ffdaf48:	2601      	movs	r6, #1
2ffdaf4a:	f000 f943 	bl	2ffdb1d4 <tf_log>
2ffdaf4e:	f7fc f9c3 	bl	2ffd72d8 <bl2_platform_setup>
2ffdaf52:	e7ec      	b.n	2ffdaf2e <bl2_load_images+0x4a>
2ffdaf54:	e9d4 1300 	ldrd	r1, r3, [r4]
2ffdaf58:	685b      	ldr	r3, [r3, #4]
2ffdaf5a:	079b      	lsls	r3, r3, #30
2ffdaf5c:	d413      	bmi.n	2ffdaf86 <bl2_load_images+0xa2>
2ffdaf5e:	4820      	ldr	r0, [pc, #128]	; (2ffdafe0 <bl2_load_images+0xfc>)
2ffdaf60:	f000 f938 	bl	2ffdb1d4 <tf_log>
2ffdaf64:	e9d4 0100 	ldrd	r0, r1, [r4]
2ffdaf68:	f000 f912 	bl	2ffdb190 <load_auth_image>
2ffdaf6c:	4605      	mov	r5, r0
2ffdaf6e:	b110      	cbz	r0, 2ffdaf76 <bl2_load_images+0x92>
2ffdaf70:	4601      	mov	r1, r0
2ffdaf72:	481c      	ldr	r0, [pc, #112]	; (2ffdafe4 <bl2_load_images+0x100>)
2ffdaf74:	e7e2      	b.n	2ffdaf3c <bl2_load_images+0x58>
2ffdaf76:	6820      	ldr	r0, [r4, #0]
2ffdaf78:	f7fc fc44 	bl	2ffd7804 <bl2_plat_handle_post_image_load>
2ffdaf7c:	4605      	mov	r5, r0
2ffdaf7e:	b128      	cbz	r0, 2ffdaf8c <bl2_load_images+0xa8>
2ffdaf80:	4601      	mov	r1, r0
2ffdaf82:	4819      	ldr	r0, [pc, #100]	; (2ffdafe8 <bl2_load_images+0x104>)
2ffdaf84:	e7da      	b.n	2ffdaf3c <bl2_load_images+0x58>
2ffdaf86:	4648      	mov	r0, r9
2ffdaf88:	f000 f924 	bl	2ffdb1d4 <tf_log>
2ffdaf8c:	68a4      	ldr	r4, [r4, #8]
2ffdaf8e:	2c00      	cmp	r4, #0
2ffdaf90:	d1c5      	bne.n	2ffdaf1e <bl2_load_images+0x3a>
2ffdaf92:	f7fe fb93 	bl	2ffd96bc <plat_get_next_bl_params>
2ffdaf96:	4604      	mov	r4, r0
2ffdaf98:	b908      	cbnz	r0, 2ffdaf9e <bl2_load_images+0xba>
2ffdaf9a:	215d      	movs	r1, #93	; 0x5d
2ffdaf9c:	e7a8      	b.n	2ffdaef0 <bl2_load_images+0xc>
2ffdaf9e:	6883      	ldr	r3, [r0, #8]
2ffdafa0:	b90b      	cbnz	r3, 2ffdafa6 <bl2_load_images+0xc2>
2ffdafa2:	215e      	movs	r1, #94	; 0x5e
2ffdafa4:	e7a4      	b.n	2ffdaef0 <bl2_load_images+0xc>
2ffdafa6:	7802      	ldrb	r2, [r0, #0]
2ffdafa8:	2a05      	cmp	r2, #5
2ffdafaa:	d001      	beq.n	2ffdafb0 <bl2_load_images+0xcc>
2ffdafac:	215f      	movs	r1, #95	; 0x5f
2ffdafae:	e79f      	b.n	2ffdaef0 <bl2_load_images+0xc>
2ffdafb0:	7842      	ldrb	r2, [r0, #1]
2ffdafb2:	2a01      	cmp	r2, #1
2ffdafb4:	d801      	bhi.n	2ffdafba <bl2_load_images+0xd6>
2ffdafb6:	2160      	movs	r1, #96	; 0x60
2ffdafb8:	e79a      	b.n	2ffdaef0 <bl2_load_images+0xc>
2ffdafba:	689b      	ldr	r3, [r3, #8]
2ffdafbc:	b90b      	cbnz	r3, 2ffdafc2 <bl2_load_images+0xde>
2ffdafbe:	2161      	movs	r1, #97	; 0x61
2ffdafc0:	e796      	b.n	2ffdaef0 <bl2_load_images+0xc>
2ffdafc2:	695a      	ldr	r2, [r3, #20]
2ffdafc4:	b902      	cbnz	r2, 2ffdafc8 <bl2_load_images+0xe4>
2ffdafc6:	6158      	str	r0, [r3, #20]
2ffdafc8:	f7fe fb36 	bl	2ffd9638 <plat_flush_next_bl_params>
2ffdafcc:	68a3      	ldr	r3, [r4, #8]
2ffdafce:	6898      	ldr	r0, [r3, #8]
2ffdafd0:	e8bd 83f8 	ldmia.w	sp!, {r3, r4, r5, r6, r7, r8, r9, pc}
2ffdafd4:	2ffe3710 	.word	0x2ffe3710
2ffdafd8:	2ffe374d 	.word	0x2ffe374d
2ffdafdc:	2ffe3769 	.word	0x2ffe3769
2ffdafe0:	2ffe3798 	.word	0x2ffe3798
2ffdafe4:	2ffe37b3 	.word	0x2ffe37b3
2ffdafe8:	2ffe37d4 	.word	0x2ffe37d4
2ffdafec:	2ffe3728 	.word	0x2ffe3728
2ffdaff0:	2ffe3804 	.word	0x2ffe3804

2ffdaff4 <bl2_el3_setup>:
2ffdaff4:	b508      	push	{r3, lr}
2ffdaff6:	f7fc f96d 	bl	2ffd72d4 <bl2_el3_early_platform_setup>
2ffdaffa:	e8bd 4008 	ldmia.w	sp!, {r3, lr}
2ffdaffe:	f7fc b9b9 	b.w	2ffd7374 <bl2_el3_plat_arch_setup>
	...

2ffdb004 <bl2_main>:
2ffdb004:	b510      	push	{r4, lr}
2ffdb006:	4c0f      	ldr	r4, [pc, #60]	; (2ffdb044 <bl2_main+0x40>)
2ffdb008:	490f      	ldr	r1, [pc, #60]	; (2ffdb048 <bl2_main+0x44>)
2ffdb00a:	4620      	mov	r0, r4
2ffdb00c:	f000 f8e2 	bl	2ffdb1d4 <tf_log>
2ffdb010:	490e      	ldr	r1, [pc, #56]	; (2ffdb04c <bl2_main+0x48>)
2ffdb012:	4620      	mov	r0, r4
2ffdb014:	f000 f8de 	bl	2ffdb1d4 <tf_log>
2ffdb018:	f000 f81c 	bl	2ffdb054 <bl2_arch_setup>
2ffdb01c:	f7fc fc4c 	bl	2ffd78b8 <auth_mod_init>
2ffdb020:	f000 f999 	bl	2ffdb356 <bl2_plat_preload_setup>
2ffdb024:	f7ff ff5e 	bl	2ffdaee4 <bl2_load_images>
2ffdb028:	4604      	mov	r4, r0
2ffdb02a:	4809      	ldr	r0, [pc, #36]	; (2ffdb050 <bl2_main+0x4c>)
2ffdb02c:	f000 f8d2 	bl	2ffdb1d4 <tf_log>
2ffdb030:	4620      	mov	r0, r4
2ffdb032:	f000 f8bf 	bl	2ffdb1b4 <print_entry_point_info>
2ffdb036:	f000 f96b 	bl	2ffdb310 <console_flush>
2ffdb03a:	4620      	mov	r0, r4
2ffdb03c:	e8bd 4010 	ldmia.w	sp!, {r4, lr}
2ffdb040:	f00a b962 	b.w	2ffe5308 <__bl2_run_next_image_from_thumb>
2ffdb044:	2ffe3824 	.word	0x2ffe3824
2ffdb048:	2ffe18aa 	.word	0x2ffe18aa
2ffdb04c:	2ffe188c 	.word	0x2ffe188c
2ffdb050:	2ffe382e 	.word	0x2ffe382e

2ffdb054 <bl2_arch_setup>:
2ffdb054:	4770      	bx	lr
	...

2ffdb058 <load_auth_image_internal>:
2ffdb058:	e92d 41f0 	stmdb	sp!, {r4, r5, r6, r7, r8, lr}
2ffdb05c:	b086      	sub	sp, #24
2ffdb05e:	460d      	mov	r5, r1
2ffdb060:	a905      	add	r1, sp, #20
2ffdb062:	4606      	mov	r6, r0
2ffdb064:	4617      	mov	r7, r2
2ffdb066:	f7fc fc07 	bl	2ffd7878 <auth_mod_get_parent_id>
2ffdb06a:	b930      	cbnz	r0, 2ffdb07a <load_auth_image_internal+0x22>
2ffdb06c:	9805      	ldr	r0, [sp, #20]
2ffdb06e:	2201      	movs	r2, #1
2ffdb070:	4629      	mov	r1, r5
2ffdb072:	f7ff fff1 	bl	2ffdb058 <load_auth_image_internal>
2ffdb076:	4604      	mov	r4, r0
2ffdb078:	b9b8      	cbnz	r0, 2ffdb0aa <load_auth_image_internal+0x52>
2ffdb07a:	b91d      	cbnz	r5, 2ffdb084 <load_auth_image_internal+0x2c>
2ffdb07c:	2150      	movs	r1, #80	; 0x50
2ffdb07e:	483c      	ldr	r0, [pc, #240]	; (2ffdb170 <load_auth_image_internal+0x118>)
2ffdb080:	f006 f9aa 	bl	2ffe13d8 <__assert>
2ffdb084:	786b      	ldrb	r3, [r5, #1]
2ffdb086:	2b01      	cmp	r3, #1
2ffdb088:	d801      	bhi.n	2ffdb08e <load_auth_image_internal+0x36>
2ffdb08a:	2151      	movs	r1, #81	; 0x51
2ffdb08c:	e7f7      	b.n	2ffdb07e <load_auth_image_internal+0x26>
2ffdb08e:	f8d5 8008 	ldr.w	r8, [r5, #8]
2ffdb092:	aa03      	add	r2, sp, #12
2ffdb094:	a901      	add	r1, sp, #4
2ffdb096:	4630      	mov	r0, r6
2ffdb098:	f7fc f8b6 	bl	2ffd7208 <plat_get_image_source>
2ffdb09c:	4604      	mov	r4, r0
2ffdb09e:	b140      	cbz	r0, 2ffdb0b2 <load_auth_image_internal+0x5a>
2ffdb0a0:	4602      	mov	r2, r0
2ffdb0a2:	4631      	mov	r1, r6
2ffdb0a4:	4833      	ldr	r0, [pc, #204]	; (2ffdb174 <load_auth_image_internal+0x11c>)
2ffdb0a6:	f000 f895 	bl	2ffdb1d4 <tf_log>
2ffdb0aa:	4620      	mov	r0, r4
2ffdb0ac:	b006      	add	sp, #24
2ffdb0ae:	e8bd 81f0 	ldmia.w	sp!, {r4, r5, r6, r7, r8, pc}
2ffdb0b2:	9903      	ldr	r1, [sp, #12]
2ffdb0b4:	aa02      	add	r2, sp, #8
2ffdb0b6:	9801      	ldr	r0, [sp, #4]
2ffdb0b8:	f7fb fd5c 	bl	2ffd6b74 <io_open>
2ffdb0bc:	4604      	mov	r4, r0
2ffdb0be:	b118      	cbz	r0, 2ffdb0c8 <load_auth_image_internal+0x70>
2ffdb0c0:	4602      	mov	r2, r0
2ffdb0c2:	4631      	mov	r1, r6
2ffdb0c4:	482c      	ldr	r0, [pc, #176]	; (2ffdb178 <load_auth_image_internal+0x120>)
2ffdb0c6:	e7ee      	b.n	2ffdb0a6 <load_auth_image_internal+0x4e>
2ffdb0c8:	482c      	ldr	r0, [pc, #176]	; (2ffdb17c <load_auth_image_internal+0x124>)
2ffdb0ca:	4642      	mov	r2, r8
2ffdb0cc:	4631      	mov	r1, r6
2ffdb0ce:	f000 f881 	bl	2ffdb1d4 <tf_log>
2ffdb0d2:	9802      	ldr	r0, [sp, #8]
2ffdb0d4:	a904      	add	r1, sp, #16
2ffdb0d6:	f7fb fd99 	bl	2ffd6c0c <io_size>
2ffdb0da:	4604      	mov	r4, r0
2ffdb0dc:	b908      	cbnz	r0, 2ffdb0e2 <load_auth_image_internal+0x8a>
2ffdb0de:	9a04      	ldr	r2, [sp, #16]
2ffdb0e0:	b92a      	cbnz	r2, 2ffdb0ee <load_auth_image_internal+0x96>
2ffdb0e2:	4827      	ldr	r0, [pc, #156]	; (2ffdb180 <load_auth_image_internal+0x128>)
2ffdb0e4:	4622      	mov	r2, r4
2ffdb0e6:	4631      	mov	r1, r6
2ffdb0e8:	f000 f874 	bl	2ffdb1d4 <tf_log>
2ffdb0ec:	e008      	b.n	2ffdb100 <load_auth_image_internal+0xa8>
2ffdb0ee:	692b      	ldr	r3, [r5, #16]
2ffdb0f0:	429a      	cmp	r2, r3
2ffdb0f2:	d91f      	bls.n	2ffdb134 <load_auth_image_internal+0xdc>
2ffdb0f4:	4823      	ldr	r0, [pc, #140]	; (2ffdb184 <load_auth_image_internal+0x12c>)
2ffdb0f6:	4631      	mov	r1, r6
2ffdb0f8:	f06f 041a 	mvn.w	r4, #26
2ffdb0fc:	f000 f86a 	bl	2ffdb1d4 <tf_log>
2ffdb100:	9802      	ldr	r0, [sp, #8]
2ffdb102:	f7fb fdc1 	bl	2ffd6c88 <io_close>
2ffdb106:	9801      	ldr	r0, [sp, #4]
2ffdb108:	f7fb fd1c 	bl	2ffd6b44 <io_dev_close>
2ffdb10c:	2c00      	cmp	r4, #0
2ffdb10e:	d1cc      	bne.n	2ffdb0aa <load_auth_image_internal+0x52>
2ffdb110:	68ea      	ldr	r2, [r5, #12]
2ffdb112:	4630      	mov	r0, r6
2ffdb114:	68a9      	ldr	r1, [r5, #8]
2ffdb116:	f7fc fbe3 	bl	2ffd78e0 <auth_mod_verify_img>
2ffdb11a:	4604      	mov	r4, r0
2ffdb11c:	b308      	cbz	r0, 2ffdb162 <load_auth_image_internal+0x10a>
2ffdb11e:	68e9      	ldr	r1, [r5, #12]
2ffdb120:	f06f 044f 	mvn.w	r4, #79	; 0x4f
2ffdb124:	68a8      	ldr	r0, [r5, #8]
2ffdb126:	f7fb e99c 	blx	2ffd6460 <zero_normalmem>
2ffdb12a:	68e9      	ldr	r1, [r5, #12]
2ffdb12c:	68a8      	ldr	r0, [r5, #8]
2ffdb12e:	f7fb e93e 	blx	2ffd63ac <flush_dcache_range>
2ffdb132:	e7ba      	b.n	2ffdb0aa <load_auth_image_internal+0x52>
2ffdb134:	9802      	ldr	r0, [sp, #8]
2ffdb136:	ab05      	add	r3, sp, #20
2ffdb138:	60ea      	str	r2, [r5, #12]
2ffdb13a:	4641      	mov	r1, r8
2ffdb13c:	f7fb fd80 	bl	2ffd6c40 <io_read>
2ffdb140:	4604      	mov	r4, r0
2ffdb142:	b918      	cbnz	r0, 2ffdb14c <load_auth_image_internal+0xf4>
2ffdb144:	e9dd 3204 	ldrd	r3, r2, [sp, #16]
2ffdb148:	429a      	cmp	r2, r3
2ffdb14a:	d203      	bcs.n	2ffdb154 <load_auth_image_internal+0xfc>
2ffdb14c:	480e      	ldr	r0, [pc, #56]	; (2ffdb188 <load_auth_image_internal+0x130>)
2ffdb14e:	4622      	mov	r2, r4
2ffdb150:	4631      	mov	r1, r6
2ffdb152:	e7c9      	b.n	2ffdb0e8 <load_auth_image_internal+0x90>
2ffdb154:	4443      	add	r3, r8
2ffdb156:	4642      	mov	r2, r8
2ffdb158:	480c      	ldr	r0, [pc, #48]	; (2ffdb18c <load_auth_image_internal+0x134>)
2ffdb15a:	4631      	mov	r1, r6
2ffdb15c:	f000 f83a 	bl	2ffdb1d4 <tf_log>
2ffdb160:	e7ce      	b.n	2ffdb100 <load_auth_image_internal+0xa8>
2ffdb162:	2f00      	cmp	r7, #0
2ffdb164:	d1a1      	bne.n	2ffdb0aa <load_auth_image_internal+0x52>
2ffdb166:	68e9      	ldr	r1, [r5, #12]
2ffdb168:	68a8      	ldr	r0, [r5, #8]
2ffdb16a:	f7fb e920 	blx	2ffd63ac <flush_dcache_range>
2ffdb16e:	e79c      	b.n	2ffdb0aa <load_auth_image_internal+0x52>
2ffdb170:	2ffe3842 	.word	0x2ffe3842
2ffdb174:	2ffe3855 	.word	0x2ffe3855
2ffdb178:	2ffe3886 	.word	0x2ffe3886
2ffdb17c:	2ffe38aa 	.word	0x2ffe38aa
2ffdb180:	2ffe38d1 	.word	0x2ffe38d1
2ffdb184:	2ffe3908 	.word	0x2ffe3908
2ffdb188:	2ffe3929 	.word	0x2ffe3929
2ffdb18c:	2ffe394b 	.word	0x2ffe394b

2ffdb190 <load_auth_image>:
2ffdb190:	b570      	push	{r4, r5, r6, lr}
2ffdb192:	4605      	mov	r5, r0
2ffdb194:	460e      	mov	r6, r1
2ffdb196:	2200      	movs	r2, #0
2ffdb198:	4631      	mov	r1, r6
2ffdb19a:	4628      	mov	r0, r5
2ffdb19c:	f7ff ff5c 	bl	2ffdb058 <load_auth_image_internal>
2ffdb1a0:	4604      	mov	r4, r0
2ffdb1a2:	b120      	cbz	r0, 2ffdb1ae <load_auth_image+0x1e>
2ffdb1a4:	4628      	mov	r0, r5
2ffdb1a6:	f7fc f84f 	bl	2ffd7248 <plat_try_next_boot_source>
2ffdb1aa:	2800      	cmp	r0, #0
2ffdb1ac:	d1f3      	bne.n	2ffdb196 <load_auth_image+0x6>
2ffdb1ae:	4620      	mov	r0, r4
2ffdb1b0:	bd70      	pop	{r4, r5, r6, pc}
	...

2ffdb1b4 <print_entry_point_info>:
2ffdb1b4:	b510      	push	{r4, lr}
2ffdb1b6:	4604      	mov	r4, r0
2ffdb1b8:	6881      	ldr	r1, [r0, #8]
2ffdb1ba:	4804      	ldr	r0, [pc, #16]	; (2ffdb1cc <print_entry_point_info+0x18>)
2ffdb1bc:	f000 f80a 	bl	2ffdb1d4 <tf_log>
2ffdb1c0:	68e1      	ldr	r1, [r4, #12]
2ffdb1c2:	4803      	ldr	r0, [pc, #12]	; (2ffdb1d0 <print_entry_point_info+0x1c>)
2ffdb1c4:	e8bd 4010 	ldmia.w	sp!, {r4, lr}
2ffdb1c8:	f000 b804 	b.w	2ffdb1d4 <tf_log>
2ffdb1cc:	2ffe396f 	.word	0x2ffe396f
2ffdb1d0:	2ffe398d 	.word	0x2ffe398d

2ffdb1d4 <tf_log>:
2ffdb1d4:	b40f      	push	{r0, r1, r2, r3}
2ffdb1d6:	b537      	push	{r0, r1, r2, r4, r5, lr}
2ffdb1d8:	9d06      	ldr	r5, [sp, #24]
2ffdb1da:	7828      	ldrb	r0, [r5, #0]
2ffdb1dc:	1e43      	subs	r3, r0, #1
2ffdb1de:	2b31      	cmp	r3, #49	; 0x31
2ffdb1e0:	d903      	bls.n	2ffdb1ea <tf_log+0x16>
2ffdb1e2:	2122      	movs	r1, #34	; 0x22
2ffdb1e4:	4810      	ldr	r0, [pc, #64]	; (2ffdb228 <tf_log+0x54>)
2ffdb1e6:	f006 f8f7 	bl	2ffe13d8 <__assert>
2ffdb1ea:	220a      	movs	r2, #10
2ffdb1ec:	fbb0 f3f2 	udiv	r3, r0, r2
2ffdb1f0:	fb02 0313 	mls	r3, r2, r3, r0
2ffdb1f4:	b10b      	cbz	r3, 2ffdb1fa <tf_log+0x26>
2ffdb1f6:	2123      	movs	r1, #35	; 0x23
2ffdb1f8:	e7f4      	b.n	2ffdb1e4 <tf_log+0x10>
2ffdb1fa:	4b0c      	ldr	r3, [pc, #48]	; (2ffdb22c <tf_log+0x58>)
2ffdb1fc:	681b      	ldr	r3, [r3, #0]
2ffdb1fe:	4283      	cmp	r3, r0
2ffdb200:	d30a      	bcc.n	2ffdb218 <tf_log+0x44>
2ffdb202:	f000 f8ab 	bl	2ffdb35c <plat_log_get_prefix>
2ffdb206:	1e44      	subs	r4, r0, #1
2ffdb208:	f814 0f01 	ldrb.w	r0, [r4, #1]!
2ffdb20c:	b948      	cbnz	r0, 2ffdb222 <tf_log+0x4e>
2ffdb20e:	a907      	add	r1, sp, #28
2ffdb210:	1c68      	adds	r0, r5, #1
2ffdb212:	9101      	str	r1, [sp, #4]
2ffdb214:	f006 f972 	bl	2ffe14fc <vprintf>
2ffdb218:	b003      	add	sp, #12
2ffdb21a:	e8bd 4030 	ldmia.w	sp!, {r4, r5, lr}
2ffdb21e:	b004      	add	sp, #16
2ffdb220:	4770      	bx	lr
2ffdb222:	f006 fa48 	bl	2ffe16b6 <putchar>
2ffdb226:	e7ef      	b.n	2ffdb208 <tf_log+0x34>
2ffdb228:	2ffe399b 	.word	0x2ffe399b
2ffdb22c:	2ffe6258 	.word	0x2ffe6258

2ffdb230 <console_is_registered>:
2ffdb230:	b508      	push	{r3, lr}
2ffdb232:	4603      	mov	r3, r0
2ffdb234:	b918      	cbnz	r0, 2ffdb23e <console_is_registered+0xe>
2ffdb236:	4807      	ldr	r0, [pc, #28]	; (2ffdb254 <console_is_registered+0x24>)
2ffdb238:	2134      	movs	r1, #52	; 0x34
2ffdb23a:	f006 f8cd 	bl	2ffe13d8 <__assert>
2ffdb23e:	4a06      	ldr	r2, [pc, #24]	; (2ffdb258 <console_is_registered+0x28>)
2ffdb240:	6810      	ldr	r0, [r2, #0]
2ffdb242:	b900      	cbnz	r0, 2ffdb246 <console_is_registered+0x16>
2ffdb244:	bd08      	pop	{r3, pc}
2ffdb246:	4298      	cmp	r0, r3
2ffdb248:	d001      	beq.n	2ffdb24e <console_is_registered+0x1e>
2ffdb24a:	6800      	ldr	r0, [r0, #0]
2ffdb24c:	e7f9      	b.n	2ffdb242 <console_is_registered+0x12>
2ffdb24e:	2001      	movs	r0, #1
2ffdb250:	e7f8      	b.n	2ffdb244 <console_is_registered+0x14>
2ffdb252:	bf00      	nop
2ffdb254:	2ffe39ab 	.word	0x2ffe39ab
2ffdb258:	2ffe81d4 	.word	0x2ffe81d4

2ffdb25c <console_register>:
2ffdb25c:	4b0b      	ldr	r3, [pc, #44]	; (2ffdb28c <console_register+0x30>)
2ffdb25e:	b510      	push	{r4, lr}
2ffdb260:	4604      	mov	r4, r0
2ffdb262:	4298      	cmp	r0, r3
2ffdb264:	d306      	bcc.n	2ffdb274 <console_register+0x18>
2ffdb266:	4b0a      	ldr	r3, [pc, #40]	; (2ffdb290 <console_register+0x34>)
2ffdb268:	4298      	cmp	r0, r3
2ffdb26a:	d203      	bcs.n	2ffdb274 <console_register+0x18>
2ffdb26c:	4809      	ldr	r0, [pc, #36]	; (2ffdb294 <console_register+0x38>)
2ffdb26e:	2114      	movs	r1, #20
2ffdb270:	f006 f8b2 	bl	2ffe13d8 <__assert>
2ffdb274:	4620      	mov	r0, r4
2ffdb276:	f7ff ffdb 	bl	2ffdb230 <console_is_registered>
2ffdb27a:	2801      	cmp	r0, #1
2ffdb27c:	f04f 0001 	mov.w	r0, #1
2ffdb280:	bf1f      	itttt	ne
2ffdb282:	4b05      	ldrne	r3, [pc, #20]	; (2ffdb298 <console_register+0x3c>)
2ffdb284:	681a      	ldrne	r2, [r3, #0]
2ffdb286:	6022      	strne	r2, [r4, #0]
2ffdb288:	601c      	strne	r4, [r3, #0]
2ffdb28a:	bd10      	pop	{r4, pc}
2ffdb28c:	2ffe6300 	.word	0x2ffe6300
2ffdb290:	2ffe6f00 	.word	0x2ffe6f00
2ffdb294:	2ffe39ab 	.word	0x2ffe39ab
2ffdb298:	2ffe81d4 	.word	0x2ffe81d4

2ffdb29c <console_set_scope>:
2ffdb29c:	b508      	push	{r3, lr}
2ffdb29e:	b918      	cbnz	r0, 2ffdb2a8 <console_set_scope+0xc>
2ffdb2a0:	4804      	ldr	r0, [pc, #16]	; (2ffdb2b4 <console_set_scope+0x18>)
2ffdb2a2:	2144      	movs	r1, #68	; 0x44
2ffdb2a4:	f006 f898 	bl	2ffe13d8 <__assert>
2ffdb2a8:	6843      	ldr	r3, [r0, #4]
2ffdb2aa:	f023 03ff 	bic.w	r3, r3, #255	; 0xff
2ffdb2ae:	4319      	orrs	r1, r3
2ffdb2b0:	6041      	str	r1, [r0, #4]
2ffdb2b2:	bd08      	pop	{r3, pc}
2ffdb2b4:	2ffe39ab 	.word	0x2ffe39ab

2ffdb2b8 <console_putc>:
2ffdb2b8:	b5f8      	push	{r3, r4, r5, r6, r7, lr}
2ffdb2ba:	4606      	mov	r6, r0
2ffdb2bc:	4b12      	ldr	r3, [pc, #72]	; (2ffdb308 <console_putc+0x50>)
2ffdb2be:	f06f 057f 	mvn.w	r5, #127	; 0x7f
2ffdb2c2:	4f12      	ldr	r7, [pc, #72]	; (2ffdb30c <console_putc+0x54>)
2ffdb2c4:	681c      	ldr	r4, [r3, #0]
2ffdb2c6:	b90c      	cbnz	r4, 2ffdb2cc <console_putc+0x14>
2ffdb2c8:	4628      	mov	r0, r5
2ffdb2ca:	bdf8      	pop	{r3, r4, r5, r6, r7, pc}
2ffdb2cc:	6862      	ldr	r2, [r4, #4]
2ffdb2ce:	783b      	ldrb	r3, [r7, #0]
2ffdb2d0:	4213      	tst	r3, r2
2ffdb2d2:	d00d      	beq.n	2ffdb2f0 <console_putc+0x38>
2ffdb2d4:	68a3      	ldr	r3, [r4, #8]
2ffdb2d6:	b15b      	cbz	r3, 2ffdb2f0 <console_putc+0x38>
2ffdb2d8:	2e0a      	cmp	r6, #10
2ffdb2da:	d00b      	beq.n	2ffdb2f4 <console_putc+0x3c>
2ffdb2dc:	68a3      	ldr	r3, [r4, #8]
2ffdb2de:	4621      	mov	r1, r4
2ffdb2e0:	4630      	mov	r0, r6
2ffdb2e2:	4798      	blx	r3
2ffdb2e4:	f115 0f80 	cmn.w	r5, #128	; 0x80
2ffdb2e8:	d00c      	beq.n	2ffdb304 <console_putc+0x4c>
2ffdb2ea:	4285      	cmp	r5, r0
2ffdb2ec:	bfa8      	it	ge
2ffdb2ee:	4605      	movge	r5, r0
2ffdb2f0:	6824      	ldr	r4, [r4, #0]
2ffdb2f2:	e7e8      	b.n	2ffdb2c6 <console_putc+0xe>
2ffdb2f4:	05d2      	lsls	r2, r2, #23
2ffdb2f6:	d5f1      	bpl.n	2ffdb2dc <console_putc+0x24>
2ffdb2f8:	4621      	mov	r1, r4
2ffdb2fa:	200d      	movs	r0, #13
2ffdb2fc:	4798      	blx	r3
2ffdb2fe:	2800      	cmp	r0, #0
2ffdb300:	daec      	bge.n	2ffdb2dc <console_putc+0x24>
2ffdb302:	e7ef      	b.n	2ffdb2e4 <console_putc+0x2c>
2ffdb304:	4605      	mov	r5, r0
2ffdb306:	e7f3      	b.n	2ffdb2f0 <console_putc+0x38>
2ffdb308:	2ffe81d4 	.word	0x2ffe81d4
2ffdb30c:	2ffe625c 	.word	0x2ffe625c

2ffdb310 <console_flush>:
2ffdb310:	4b0d      	ldr	r3, [pc, #52]	; (2ffdb348 <console_flush+0x38>)
2ffdb312:	b570      	push	{r4, r5, r6, lr}
2ffdb314:	f06f 057f 	mvn.w	r5, #127	; 0x7f
2ffdb318:	681c      	ldr	r4, [r3, #0]
2ffdb31a:	4e0c      	ldr	r6, [pc, #48]	; (2ffdb34c <console_flush+0x3c>)
2ffdb31c:	b90c      	cbnz	r4, 2ffdb322 <console_flush+0x12>
2ffdb31e:	4628      	mov	r0, r5
2ffdb320:	bd70      	pop	{r4, r5, r6, pc}
2ffdb322:	7832      	ldrb	r2, [r6, #0]
2ffdb324:	6863      	ldr	r3, [r4, #4]
2ffdb326:	421a      	tst	r2, r3
2ffdb328:	d009      	beq.n	2ffdb33e <console_flush+0x2e>
2ffdb32a:	6923      	ldr	r3, [r4, #16]
2ffdb32c:	b13b      	cbz	r3, 2ffdb33e <console_flush+0x2e>
2ffdb32e:	4620      	mov	r0, r4
2ffdb330:	4798      	blx	r3
2ffdb332:	f115 0f80 	cmn.w	r5, #128	; 0x80
2ffdb336:	d004      	beq.n	2ffdb342 <console_flush+0x32>
2ffdb338:	4285      	cmp	r5, r0
2ffdb33a:	bfa8      	it	ge
2ffdb33c:	4605      	movge	r5, r0
2ffdb33e:	6824      	ldr	r4, [r4, #0]
2ffdb340:	e7ec      	b.n	2ffdb31c <console_flush+0xc>
2ffdb342:	4605      	mov	r5, r0
2ffdb344:	e7fb      	b.n	2ffdb33e <console_flush+0x2e>
2ffdb346:	bf00      	nop
2ffdb348:	2ffe81d4 	.word	0x2ffe81d4
2ffdb34c:	2ffe625c 	.word	0x2ffe625c

2ffdb350 <bl2_el3_plat_prepare_exit>:
2ffdb350:	4770      	bx	lr

2ffdb352 <plat_error_handler>:
2ffdb352:	bf30      	wfi
2ffdb354:	e7fd      	b.n	2ffdb352 <plat_error_handler>

2ffdb356 <bl2_plat_preload_setup>:
2ffdb356:	4770      	bx	lr

2ffdb358 <bl2_plat_handle_pre_image_load>:
2ffdb358:	2000      	movs	r0, #0
2ffdb35a:	4770      	bx	lr

2ffdb35c <plat_log_get_prefix>:
2ffdb35c:	2832      	cmp	r0, #50	; 0x32
2ffdb35e:	f04f 030a 	mov.w	r3, #10
2ffdb362:	bf28      	it	cs
2ffdb364:	2032      	movcs	r0, #50	; 0x32
2ffdb366:	280a      	cmp	r0, #10
2ffdb368:	bf38      	it	cc
2ffdb36a:	200a      	movcc	r0, #10
2ffdb36c:	fbb0 f0f3 	udiv	r0, r0, r3
2ffdb370:	4b02      	ldr	r3, [pc, #8]	; (2ffdb37c <plat_log_get_prefix+0x20>)
2ffdb372:	3801      	subs	r0, #1
2ffdb374:	f853 0020 	ldr.w	r0, [r3, r0, lsl #2]
2ffdb378:	4770      	bx	lr
2ffdb37a:	bf00      	nop
2ffdb37c:	2ffe3a00 	.word	0x2ffe3a00

2ffdb380 <__ctzdi2>:
2ffdb380:	fab0 f380 	clz	r3, r0
2ffdb384:	095b      	lsrs	r3, r3, #5
2ffdb386:	425a      	negs	r2, r3
2ffdb388:	3b01      	subs	r3, #1
2ffdb38a:	4003      	ands	r3, r0
2ffdb38c:	4011      	ands	r1, r2
2ffdb38e:	430b      	orrs	r3, r1
2ffdb390:	f002 0020 	and.w	r0, r2, #32
2ffdb394:	fa93 f3a3 	rbit	r3, r3
2ffdb398:	fab3 f383 	clz	r3, r3
2ffdb39c:	4418      	add	r0, r3
2ffdb39e:	4770      	bx	lr

2ffdb3a0 <__udivmoddi4>:
2ffdb3a0:	e92d 47f0 	stmdb	sp!, {r4, r5, r6, r7, r8, r9, sl, lr}
2ffdb3a4:	9e08      	ldr	r6, [sp, #32]
2ffdb3a6:	b981      	cbnz	r1, 2ffdb3ca <__udivmoddi4+0x2a>
2ffdb3a8:	b953      	cbnz	r3, 2ffdb3c0 <__udivmoddi4+0x20>
2ffdb3aa:	fbb0 f1f2 	udiv	r1, r0, r2
2ffdb3ae:	b11e      	cbz	r6, 2ffdb3b8 <__udivmoddi4+0x18>
2ffdb3b0:	fb01 0012 	mls	r0, r1, r2, r0
2ffdb3b4:	e9c6 0300 	strd	r0, r3, [r6]
2ffdb3b8:	4608      	mov	r0, r1
2ffdb3ba:	2100      	movs	r1, #0
2ffdb3bc:	e8bd 87f0 	ldmia.w	sp!, {r4, r5, r6, r7, r8, r9, sl, pc}
2ffdb3c0:	b10e      	cbz	r6, 2ffdb3c6 <__udivmoddi4+0x26>
2ffdb3c2:	e9c6 0100 	strd	r0, r1, [r6]
2ffdb3c6:	4608      	mov	r0, r1
2ffdb3c8:	e7f8      	b.n	2ffdb3bc <__udivmoddi4+0x1c>
2ffdb3ca:	2a00      	cmp	r2, #0
2ffdb3cc:	d164      	bne.n	2ffdb498 <__udivmoddi4+0xf8>
2ffdb3ce:	b903      	cbnz	r3, 2ffdb3d2 <__udivmoddi4+0x32>
2ffdb3d0:	deff      	udf	#255	; 0xff
2ffdb3d2:	b940      	cbnz	r0, 2ffdb3e6 <__udivmoddi4+0x46>
2ffdb3d4:	fbb1 f2f3 	udiv	r2, r1, r3
2ffdb3d8:	b11e      	cbz	r6, 2ffdb3e2 <__udivmoddi4+0x42>
2ffdb3da:	fb02 1113 	mls	r1, r2, r3, r1
2ffdb3de:	e9c6 0100 	strd	r0, r1, [r6]
2ffdb3e2:	4610      	mov	r0, r2
2ffdb3e4:	e7e9      	b.n	2ffdb3ba <__udivmoddi4+0x1a>
2ffdb3e6:	1e5c      	subs	r4, r3, #1
2ffdb3e8:	421c      	tst	r4, r3
2ffdb3ea:	d10a      	bne.n	2ffdb402 <__udivmoddi4+0x62>
2ffdb3ec:	b116      	cbz	r6, 2ffdb3f4 <__udivmoddi4+0x54>
2ffdb3ee:	400c      	ands	r4, r1
2ffdb3f0:	e9c6 0400 	strd	r0, r4, [r6]
2ffdb3f4:	fa93 f0a3 	rbit	r0, r3
2ffdb3f8:	fab0 f080 	clz	r0, r0
2ffdb3fc:	fa21 f000 	lsr.w	r0, r1, r0
2ffdb400:	e7db      	b.n	2ffdb3ba <__udivmoddi4+0x1a>
2ffdb402:	fab3 f483 	clz	r4, r3
2ffdb406:	fab1 f581 	clz	r5, r1
2ffdb40a:	1b64      	subs	r4, r4, r5
2ffdb40c:	2c1e      	cmp	r4, #30
2ffdb40e:	d907      	bls.n	2ffdb420 <__udivmoddi4+0x80>
2ffdb410:	2e00      	cmp	r6, #0
2ffdb412:	f000 8092 	beq.w	2ffdb53a <__udivmoddi4+0x19a>
2ffdb416:	e9c6 0100 	strd	r0, r1, [r6]
2ffdb41a:	2000      	movs	r0, #0
2ffdb41c:	4601      	mov	r1, r0
2ffdb41e:	e7cd      	b.n	2ffdb3bc <__udivmoddi4+0x1c>
2ffdb420:	f104 0e01 	add.w	lr, r4, #1
2ffdb424:	f1c4 041f 	rsb	r4, r4, #31
2ffdb428:	4694      	mov	ip, r2
2ffdb42a:	fa00 f704 	lsl.w	r7, r0, r4
2ffdb42e:	fa01 f404 	lsl.w	r4, r1, r4
2ffdb432:	fa20 f00e 	lsr.w	r0, r0, lr
2ffdb436:	fa21 f80e 	lsr.w	r8, r1, lr
2ffdb43a:	ea44 0100 	orr.w	r1, r4, r0
2ffdb43e:	f04f 0900 	mov.w	r9, #0
2ffdb442:	ea4f 7ad7 	mov.w	sl, r7, lsr #31
2ffdb446:	0fcd      	lsrs	r5, r1, #31
2ffdb448:	ea4f 70dc 	mov.w	r0, ip, lsr #31
2ffdb44c:	ea4a 0441 	orr.w	r4, sl, r1, lsl #1
2ffdb450:	ea40 0747 	orr.w	r7, r0, r7, lsl #1
2ffdb454:	ea45 0048 	orr.w	r0, r5, r8, lsl #1
2ffdb458:	43e5      	mvns	r5, r4
2ffdb45a:	43c1      	mvns	r1, r0
2ffdb45c:	18ad      	adds	r5, r5, r2
2ffdb45e:	eb41 0503 	adc.w	r5, r1, r3
2ffdb462:	ea49 0c4c 	orr.w	ip, r9, ip, lsl #1
2ffdb466:	ea02 71e5 	and.w	r1, r2, r5, asr #31
2ffdb46a:	1a64      	subs	r4, r4, r1
2ffdb46c:	ea4f 79d5 	mov.w	r9, r5, lsr #31
2ffdb470:	4621      	mov	r1, r4
2ffdb472:	ea03 75e5 	and.w	r5, r3, r5, asr #31
2ffdb476:	eb60 0505 	sbc.w	r5, r0, r5
2ffdb47a:	f1be 0e01 	subs.w	lr, lr, #1
2ffdb47e:	46a8      	mov	r8, r5
2ffdb480:	d1df      	bne.n	2ffdb442 <__udivmoddi4+0xa2>
2ffdb482:	eb1c 030c 	adds.w	r3, ip, ip
2ffdb486:	eb47 0107 	adc.w	r1, r7, r7
2ffdb48a:	ea49 004c 	orr.w	r0, r9, ip, lsl #1
2ffdb48e:	2e00      	cmp	r6, #0
2ffdb490:	d094      	beq.n	2ffdb3bc <__udivmoddi4+0x1c>
2ffdb492:	e9c6 4500 	strd	r4, r5, [r6]
2ffdb496:	e791      	b.n	2ffdb3bc <__udivmoddi4+0x1c>
2ffdb498:	2b00      	cmp	r3, #0
2ffdb49a:	d13e      	bne.n	2ffdb51a <__udivmoddi4+0x17a>
2ffdb49c:	1e54      	subs	r4, r2, #1
2ffdb49e:	ea14 0502 	ands.w	r5, r4, r2
2ffdb4a2:	d112      	bne.n	2ffdb4ca <__udivmoddi4+0x12a>
2ffdb4a4:	b116      	cbz	r6, 2ffdb4ac <__udivmoddi4+0x10c>
2ffdb4a6:	4004      	ands	r4, r0
2ffdb4a8:	e9c6 4500 	strd	r4, r5, [r6]
2ffdb4ac:	2a01      	cmp	r2, #1
2ffdb4ae:	d085      	beq.n	2ffdb3bc <__udivmoddi4+0x1c>
2ffdb4b0:	fa92 f2a2 	rbit	r2, r2
2ffdb4b4:	fab2 f282 	clz	r2, r2
2ffdb4b8:	f1c2 0420 	rsb	r4, r2, #32
2ffdb4bc:	fa21 f702 	lsr.w	r7, r1, r2
2ffdb4c0:	40d0      	lsrs	r0, r2
2ffdb4c2:	40a1      	lsls	r1, r4
2ffdb4c4:	4308      	orrs	r0, r1
2ffdb4c6:	4639      	mov	r1, r7
2ffdb4c8:	e778      	b.n	2ffdb3bc <__udivmoddi4+0x1c>
2ffdb4ca:	fab1 f481 	clz	r4, r1
2ffdb4ce:	fab2 f582 	clz	r5, r2
2ffdb4d2:	1b2d      	subs	r5, r5, r4
2ffdb4d4:	1c6c      	adds	r4, r5, #1
2ffdb4d6:	f105 0e21 	add.w	lr, r5, #33	; 0x21
2ffdb4da:	d103      	bne.n	2ffdb4e4 <__udivmoddi4+0x144>
2ffdb4dc:	469c      	mov	ip, r3
2ffdb4de:	4607      	mov	r7, r0
2ffdb4e0:	4698      	mov	r8, r3
2ffdb4e2:	e7ac      	b.n	2ffdb43e <__udivmoddi4+0x9e>
2ffdb4e4:	f1be 0f1f 	cmp.w	lr, #31
2ffdb4e8:	d80b      	bhi.n	2ffdb502 <__udivmoddi4+0x162>
2ffdb4ea:	469c      	mov	ip, r3
2ffdb4ec:	fa21 f80e 	lsr.w	r8, r1, lr
2ffdb4f0:	f1ce 0420 	rsb	r4, lr, #32
2ffdb4f4:	fa00 f704 	lsl.w	r7, r0, r4
2ffdb4f8:	40a1      	lsls	r1, r4
2ffdb4fa:	fa20 f00e 	lsr.w	r0, r0, lr
2ffdb4fe:	4301      	orrs	r1, r0
2ffdb500:	e79d      	b.n	2ffdb43e <__udivmoddi4+0x9e>
2ffdb502:	f1ce 0440 	rsb	r4, lr, #64	; 0x40
2ffdb506:	3501      	adds	r5, #1
2ffdb508:	4698      	mov	r8, r3
2ffdb50a:	fa01 f704 	lsl.w	r7, r1, r4
2ffdb50e:	fa00 fc04 	lsl.w	ip, r0, r4
2ffdb512:	40e8      	lsrs	r0, r5
2ffdb514:	4307      	orrs	r7, r0
2ffdb516:	40e9      	lsrs	r1, r5
2ffdb518:	e791      	b.n	2ffdb43e <__udivmoddi4+0x9e>
2ffdb51a:	fab3 f483 	clz	r4, r3
2ffdb51e:	fab1 f581 	clz	r5, r1
2ffdb522:	1b64      	subs	r4, r4, r5
2ffdb524:	2c1f      	cmp	r4, #31
2ffdb526:	f63f af73 	bhi.w	2ffdb410 <__udivmoddi4+0x70>
2ffdb52a:	f104 0e01 	add.w	lr, r4, #1
2ffdb52e:	f04f 0c00 	mov.w	ip, #0
2ffdb532:	d1db      	bne.n	2ffdb4ec <__udivmoddi4+0x14c>
2ffdb534:	4607      	mov	r7, r0
2ffdb536:	46e0      	mov	r8, ip
2ffdb538:	e781      	b.n	2ffdb43e <__udivmoddi4+0x9e>
2ffdb53a:	4630      	mov	r0, r6
2ffdb53c:	e76e      	b.n	2ffdb41c <__udivmoddi4+0x7c>

2ffdb53e <plat_get_syscnt_freq2>:
2ffdb53e:	ee1e 0f10 	mrc	15, 0, r0, cr14, cr0, {0}
2ffdb542:	4770      	bx	lr

2ffdb544 <stm32mp_save_boot_ctx_address>:
2ffdb544:	4b01      	ldr	r3, [pc, #4]	; (2ffdb54c <stm32mp_save_boot_ctx_address+0x8>)
2ffdb546:	6018      	str	r0, [r3, #0]
2ffdb548:	4770      	bx	lr
2ffdb54a:	bf00      	nop
2ffdb54c:	2ffe7e74 	.word	0x2ffe7e74

2ffdb550 <stm32mp_get_boot_ctx_address>:
2ffdb550:	4b01      	ldr	r3, [pc, #4]	; (2ffdb558 <stm32mp_get_boot_ctx_address+0x8>)
2ffdb552:	6818      	ldr	r0, [r3, #0]
2ffdb554:	4770      	bx	lr
2ffdb556:	bf00      	nop
2ffdb558:	2ffe7e74 	.word	0x2ffe7e74

2ffdb55c <stm32mp_ddrctrl_base>:
2ffdb55c:	4800      	ldr	r0, [pc, #0]	; (2ffdb560 <stm32mp_ddrctrl_base+0x4>)
2ffdb55e:	4770      	bx	lr
2ffdb560:	5a003000 	.word	0x5a003000

2ffdb564 <stm32mp_ddrphyc_base>:
2ffdb564:	4800      	ldr	r0, [pc, #0]	; (2ffdb568 <stm32mp_ddrphyc_base+0x4>)
2ffdb566:	4770      	bx	lr
2ffdb568:	5a004000 	.word	0x5a004000

2ffdb56c <stm32mp_pwr_base>:
2ffdb56c:	4800      	ldr	r0, [pc, #0]	; (2ffdb570 <stm32mp_pwr_base+0x4>)
2ffdb56e:	4770      	bx	lr
2ffdb570:	50001000 	.word	0x50001000

2ffdb574 <stm32mp_rcc_base>:
2ffdb574:	f04f 40a0 	mov.w	r0, #1342177280	; 0x50000000
2ffdb578:	4770      	bx	lr

2ffdb57a <stm32mp_lock_available>:
2ffdb57a:	ee11 0f10 	mrc	15, 0, r0, cr1, cr0, {0}
2ffdb57e:	f000 0005 	and.w	r0, r0, #5
2ffdb582:	1f43      	subs	r3, r0, #5
2ffdb584:	4258      	negs	r0, r3
2ffdb586:	4158      	adcs	r0, r3
2ffdb588:	4770      	bx	lr
	...

2ffdb58c <stm32_get_gpio_bank_base>:
2ffdb58c:	2819      	cmp	r0, #25
2ffdb58e:	b508      	push	{r3, lr}
2ffdb590:	d00a      	beq.n	2ffdb5a8 <stm32_get_gpio_bank_base+0x1c>
2ffdb592:	280a      	cmp	r0, #10
2ffdb594:	d903      	bls.n	2ffdb59e <stm32_get_gpio_bank_base+0x12>
2ffdb596:	4805      	ldr	r0, [pc, #20]	; (2ffdb5ac <stm32_get_gpio_bank_base+0x20>)
2ffdb598:	2164      	movs	r1, #100	; 0x64
2ffdb59a:	f005 ff1d 	bl	2ffe13d8 <__assert>
2ffdb59e:	f500 20a0 	add.w	r0, r0, #327680	; 0x50000
2ffdb5a2:	3002      	adds	r0, #2
2ffdb5a4:	0300      	lsls	r0, r0, #12
2ffdb5a6:	bd08      	pop	{r3, pc}
2ffdb5a8:	4801      	ldr	r0, [pc, #4]	; (2ffdb5b0 <stm32_get_gpio_bank_base+0x24>)
2ffdb5aa:	e7fc      	b.n	2ffdb5a6 <stm32_get_gpio_bank_base+0x1a>
2ffdb5ac:	2ffe3a14 	.word	0x2ffe3a14
2ffdb5b0:	54004000 	.word	0x54004000

2ffdb5b4 <stm32_get_gpio_bank_offset>:
2ffdb5b4:	2819      	cmp	r0, #25
2ffdb5b6:	b508      	push	{r3, lr}
2ffdb5b8:	d007      	beq.n	2ffdb5ca <stm32_get_gpio_bank_offset+0x16>
2ffdb5ba:	280a      	cmp	r0, #10
2ffdb5bc:	d903      	bls.n	2ffdb5c6 <stm32_get_gpio_bank_offset+0x12>
2ffdb5be:	4804      	ldr	r0, [pc, #16]	; (2ffdb5d0 <stm32_get_gpio_bank_offset+0x1c>)
2ffdb5c0:	216f      	movs	r1, #111	; 0x6f
2ffdb5c2:	f005 ff09 	bl	2ffe13d8 <__assert>
2ffdb5c6:	0300      	lsls	r0, r0, #12
2ffdb5c8:	bd08      	pop	{r3, pc}
2ffdb5ca:	2000      	movs	r0, #0
2ffdb5cc:	e7fc      	b.n	2ffdb5c8 <stm32_get_gpio_bank_offset+0x14>
2ffdb5ce:	bf00      	nop
2ffdb5d0:	2ffe3a14 	.word	0x2ffe3a14

2ffdb5d4 <stm32mp_check_header>:
2ffdb5d4:	460a      	mov	r2, r1
2ffdb5d6:	b538      	push	{r3, r4, r5, lr}
2ffdb5d8:	7841      	ldrb	r1, [r0, #1]
2ffdb5da:	7803      	ldrb	r3, [r0, #0]
2ffdb5dc:	ea43 2301 	orr.w	r3, r3, r1, lsl #8
2ffdb5e0:	7881      	ldrb	r1, [r0, #2]
2ffdb5e2:	ea43 4301 	orr.w	r3, r3, r1, lsl #16
2ffdb5e6:	78c1      	ldrb	r1, [r0, #3]
2ffdb5e8:	ea43 6301 	orr.w	r3, r3, r1, lsl #24
2ffdb5ec:	4925      	ldr	r1, [pc, #148]	; (2ffdb684 <stm32mp_check_header+0xb0>)
2ffdb5ee:	428b      	cmp	r3, r1
2ffdb5f0:	d005      	beq.n	2ffdb5fe <stm32mp_check_header+0x2a>
2ffdb5f2:	4825      	ldr	r0, [pc, #148]	; (2ffdb688 <stm32mp_check_header+0xb4>)
2ffdb5f4:	f7ff fdee 	bl	2ffdb1d4 <tf_log>
2ffdb5f8:	f06f 0015 	mvn.w	r0, #21
2ffdb5fc:	bd38      	pop	{r3, r4, r5, pc}
2ffdb5fe:	f890 304a 	ldrb.w	r3, [r0, #74]	; 0x4a
2ffdb602:	2b01      	cmp	r3, #1
2ffdb604:	d001      	beq.n	2ffdb60a <stm32mp_check_header+0x36>
2ffdb606:	4821      	ldr	r0, [pc, #132]	; (2ffdb68c <stm32mp_check_header+0xb8>)
2ffdb608:	e7f4      	b.n	2ffdb5f4 <stm32mp_check_header+0x20>
2ffdb60a:	f890 1065 	ldrb.w	r1, [r0, #101]	; 0x65
2ffdb60e:	f890 3064 	ldrb.w	r3, [r0, #100]	; 0x64
2ffdb612:	ea43 2301 	orr.w	r3, r3, r1, lsl #8
2ffdb616:	f890 1066 	ldrb.w	r1, [r0, #102]	; 0x66
2ffdb61a:	ea43 4301 	orr.w	r3, r3, r1, lsl #16
2ffdb61e:	f890 1067 	ldrb.w	r1, [r0, #103]	; 0x67
2ffdb622:	ea43 6301 	orr.w	r3, r3, r1, lsl #24
2ffdb626:	2b01      	cmp	r3, #1
2ffdb628:	d129      	bne.n	2ffdb67e <stm32mp_check_header+0xaa>
2ffdb62a:	f890 104d 	ldrb.w	r1, [r0, #77]	; 0x4d
2ffdb62e:	f890 304c 	ldrb.w	r3, [r0, #76]	; 0x4c
2ffdb632:	ea43 2301 	orr.w	r3, r3, r1, lsl #8
2ffdb636:	f890 104e 	ldrb.w	r1, [r0, #78]	; 0x4e
2ffdb63a:	ea43 4301 	orr.w	r3, r3, r1, lsl #16
2ffdb63e:	f890 104f 	ldrb.w	r1, [r0, #79]	; 0x4f
2ffdb642:	ea43 6301 	orr.w	r3, r3, r1, lsl #24
2ffdb646:	2100      	movs	r1, #0
2ffdb648:	460c      	mov	r4, r1
2ffdb64a:	42a3      	cmp	r3, r4
2ffdb64c:	d113      	bne.n	2ffdb676 <stm32mp_check_header+0xa2>
2ffdb64e:	f890 3045 	ldrb.w	r3, [r0, #69]	; 0x45
2ffdb652:	f890 2044 	ldrb.w	r2, [r0, #68]	; 0x44
2ffdb656:	ea42 2203 	orr.w	r2, r2, r3, lsl #8
2ffdb65a:	f890 3046 	ldrb.w	r3, [r0, #70]	; 0x46
2ffdb65e:	ea42 4203 	orr.w	r2, r2, r3, lsl #16
2ffdb662:	f890 3047 	ldrb.w	r3, [r0, #71]	; 0x47
2ffdb666:	ea42 6203 	orr.w	r2, r2, r3, lsl #24
2ffdb66a:	428a      	cmp	r2, r1
2ffdb66c:	d007      	beq.n	2ffdb67e <stm32mp_check_header+0xaa>
2ffdb66e:	4808      	ldr	r0, [pc, #32]	; (2ffdb690 <stm32mp_check_header+0xbc>)
2ffdb670:	f7ff fdb0 	bl	2ffdb1d4 <tf_log>
2ffdb674:	e7c0      	b.n	2ffdb5f8 <stm32mp_check_header+0x24>
2ffdb676:	5ca5      	ldrb	r5, [r4, r2]
2ffdb678:	3401      	adds	r4, #1
2ffdb67a:	4429      	add	r1, r5
2ffdb67c:	e7e5      	b.n	2ffdb64a <stm32mp_check_header+0x76>
2ffdb67e:	2000      	movs	r0, #0
2ffdb680:	e7bc      	b.n	2ffdb5fc <stm32mp_check_header+0x28>
2ffdb682:	bf00      	nop
2ffdb684:	324d5453 	.word	0x324d5453
2ffdb688:	2ffe3a34 	.word	0x2ffe3a34
2ffdb68c:	2ffe3a43 	.word	0x2ffe3a43
2ffdb690:	2ffe3a54 	.word	0x2ffe3a54

2ffdb694 <stm32mp_get_cpu_supply_name>:
2ffdb694:	b513      	push	{r0, r1, r4, lr}
2ffdb696:	2300      	movs	r3, #0
2ffdb698:	9301      	str	r3, [sp, #4]
2ffdb69a:	f005 f8a7 	bl	2ffe07ec <dt_get_cpu_regulator_name>
2ffdb69e:	4604      	mov	r4, r0
2ffdb6a0:	b910      	cbnz	r0, 2ffdb6a8 <stm32mp_get_cpu_supply_name+0x14>
2ffdb6a2:	2000      	movs	r0, #0
2ffdb6a4:	b002      	add	sp, #8
2ffdb6a6:	bd10      	pop	{r4, pc}
2ffdb6a8:	f004 fa9c 	bl	2ffdfbe4 <dt_pmic_status>
2ffdb6ac:	2800      	cmp	r0, #0
2ffdb6ae:	dc01      	bgt.n	2ffdb6b4 <stm32mp_get_cpu_supply_name+0x20>
2ffdb6b0:	9801      	ldr	r0, [sp, #4]
2ffdb6b2:	e7f7      	b.n	2ffdb6a4 <stm32mp_get_cpu_supply_name+0x10>
2ffdb6b4:	4621      	mov	r1, r4
2ffdb6b6:	a801      	add	r0, sp, #4
2ffdb6b8:	f004 faae 	bl	2ffdfc18 <dt_pmic_find_supply>
2ffdb6bc:	2800      	cmp	r0, #0
2ffdb6be:	d0f7      	beq.n	2ffdb6b0 <stm32mp_get_cpu_supply_name+0x1c>
2ffdb6c0:	e7ef      	b.n	2ffdb6a2 <stm32mp_get_cpu_supply_name+0xe>
	...

2ffdb6c4 <stm32mp_save_loaded_header>:
2ffdb6c4:	b508      	push	{r3, lr}
2ffdb6c6:	4b04      	ldr	r3, [pc, #16]	; (2ffdb6d8 <stm32mp_save_loaded_header+0x14>)
2ffdb6c8:	681a      	ldr	r2, [r3, #0]
2ffdb6ca:	b11a      	cbz	r2, 2ffdb6d4 <stm32mp_save_loaded_header+0x10>
2ffdb6cc:	4803      	ldr	r0, [pc, #12]	; (2ffdb6dc <stm32mp_save_loaded_header+0x18>)
2ffdb6ce:	21b4      	movs	r1, #180	; 0xb4
2ffdb6d0:	f005 fe82 	bl	2ffe13d8 <__assert>
2ffdb6d4:	6018      	str	r0, [r3, #0]
2ffdb6d6:	bd08      	pop	{r3, pc}
2ffdb6d8:	2ffe7e78 	.word	0x2ffe7e78
2ffdb6dc:	2ffe3a14 	.word	0x2ffe3a14

2ffdb6e0 <stm32mp_delete_loaded_header>:
2ffdb6e0:	b510      	push	{r4, lr}
2ffdb6e2:	4c05      	ldr	r4, [pc, #20]	; (2ffdb6f8 <stm32mp_delete_loaded_header+0x18>)
2ffdb6e4:	6820      	ldr	r0, [r4, #0]
2ffdb6e6:	b128      	cbz	r0, 2ffdb6f4 <stm32mp_delete_loaded_header+0x14>
2ffdb6e8:	f44f 7180 	mov.w	r1, #256	; 0x100
2ffdb6ec:	f7fa eeb8 	blx	2ffd6460 <zero_normalmem>
2ffdb6f0:	2300      	movs	r3, #0
2ffdb6f2:	6023      	str	r3, [r4, #0]
2ffdb6f4:	bd10      	pop	{r4, pc}
2ffdb6f6:	bf00      	nop
2ffdb6f8:	2ffe7e78 	.word	0x2ffe7e78

2ffdb6fc <stm32mp_get_loaded_header>:
2ffdb6fc:	b508      	push	{r3, lr}
2ffdb6fe:	4b04      	ldr	r3, [pc, #16]	; (2ffdb710 <stm32mp_get_loaded_header+0x14>)
2ffdb700:	6818      	ldr	r0, [r3, #0]
2ffdb702:	b918      	cbnz	r0, 2ffdb70c <stm32mp_get_loaded_header+0x10>
2ffdb704:	4803      	ldr	r0, [pc, #12]	; (2ffdb714 <stm32mp_get_loaded_header+0x18>)
2ffdb706:	21c7      	movs	r1, #199	; 0xc7
2ffdb708:	f005 fe66 	bl	2ffe13d8 <__assert>
2ffdb70c:	bd08      	pop	{r3, pc}
2ffdb70e:	bf00      	nop
2ffdb710:	2ffe7e78 	.word	0x2ffe7e78
2ffdb714:	2ffe3a14 	.word	0x2ffe3a14

2ffdb718 <configure_mmu>:
2ffdb718:	4805      	ldr	r0, [pc, #20]	; (2ffdb730 <configure_mmu+0x18>)
2ffdb71a:	b508      	push	{r3, lr}
2ffdb71c:	f000 fb28 	bl	2ffdbd70 <mmap_add>
2ffdb720:	f000 fb48 	bl	2ffdbdb4 <init_xlat_tables>
2ffdb724:	e8bd 4008 	ldmia.w	sp!, {r3, lr}
2ffdb728:	2000      	movs	r0, #0
2ffdb72a:	f000 bb61 	b.w	2ffdbdf0 <enable_mmu_svc_mon>
2ffdb72e:	bf00      	nop
2ffdb730:	2ffe3bf0 	.word	0x2ffe3bf0

2ffdb734 <get_uart_address>:
2ffdb734:	3801      	subs	r0, #1
2ffdb736:	2807      	cmp	r0, #7
2ffdb738:	bf9a      	itte	ls
2ffdb73a:	4b02      	ldrls	r3, [pc, #8]	; (2ffdb744 <get_uart_address+0x10>)
2ffdb73c:	f853 0020 	ldrls.w	r0, [r3, r0, lsl #2]
2ffdb740:	2000      	movhi	r0, #0
2ffdb742:	4770      	bx	lr
2ffdb744:	2ffe3c68 	.word	0x2ffe3c68

2ffdb748 <stm32_get_gpio_bank_clock>:
2ffdb748:	2819      	cmp	r0, #25
2ffdb74a:	b508      	push	{r3, lr}
2ffdb74c:	d008      	beq.n	2ffdb760 <stm32_get_gpio_bank_clock+0x18>
2ffdb74e:	280a      	cmp	r0, #10
2ffdb750:	d904      	bls.n	2ffdb75c <stm32_get_gpio_bank_clock+0x14>
2ffdb752:	4804      	ldr	r0, [pc, #16]	; (2ffdb764 <stm32_get_gpio_bank_clock+0x1c>)
2ffdb754:	f240 112b 	movw	r1, #299	; 0x12b
2ffdb758:	f005 fe3e 	bl	2ffe13d8 <__assert>
2ffdb75c:	3054      	adds	r0, #84	; 0x54
2ffdb75e:	bd08      	pop	{r3, pc}
2ffdb760:	205f      	movs	r0, #95	; 0x5f
2ffdb762:	e7fc      	b.n	2ffdb75e <stm32_get_gpio_bank_clock+0x16>
2ffdb764:	2ffe3a75 	.word	0x2ffe3a75

2ffdb768 <stm32_get_otp_index>:
2ffdb768:	b508      	push	{r3, lr}
2ffdb76a:	b920      	cbnz	r0, 2ffdb776 <stm32_get_otp_index+0xe>
2ffdb76c:	f240 1133 	movw	r1, #307	; 0x133
2ffdb770:	4806      	ldr	r0, [pc, #24]	; (2ffdb78c <stm32_get_otp_index+0x24>)
2ffdb772:	f005 fe31 	bl	2ffe13d8 <__assert>
2ffdb776:	b911      	cbnz	r1, 2ffdb77e <stm32_get_otp_index+0x16>
2ffdb778:	f44f 719a 	mov.w	r1, #308	; 0x134
2ffdb77c:	e7f8      	b.n	2ffdb770 <stm32_get_otp_index+0x8>
2ffdb77e:	f001 fa19 	bl	2ffdcbb4 <bsec_find_otp_name_in_dt>
2ffdb782:	3800      	subs	r0, #0
2ffdb784:	bf18      	it	ne
2ffdb786:	2001      	movne	r0, #1
2ffdb788:	4240      	negs	r0, r0
2ffdb78a:	bd08      	pop	{r3, pc}
2ffdb78c:	2ffe3a75 	.word	0x2ffe3a75

2ffdb790 <stm32_get_otp_value_from_idx>:
2ffdb790:	b510      	push	{r4, lr}
2ffdb792:	4604      	mov	r4, r0
2ffdb794:	4608      	mov	r0, r1
2ffdb796:	b921      	cbnz	r1, 2ffdb7a2 <stm32_get_otp_value_from_idx+0x12>
2ffdb798:	4807      	ldr	r0, [pc, #28]	; (2ffdb7b8 <stm32_get_otp_value_from_idx+0x28>)
2ffdb79a:	f44f 71aa 	mov.w	r1, #340	; 0x154
2ffdb79e:	f005 fe1b 	bl	2ffe13d8 <__assert>
2ffdb7a2:	4621      	mov	r1, r4
2ffdb7a4:	f001 fc86 	bl	2ffdd0b4 <bsec_shadow_read_otp>
2ffdb7a8:	b128      	cbz	r0, 2ffdb7b6 <stm32_get_otp_value_from_idx+0x26>
2ffdb7aa:	4804      	ldr	r0, [pc, #16]	; (2ffdb7bc <stm32_get_otp_value_from_idx+0x2c>)
2ffdb7ac:	4621      	mov	r1, r4
2ffdb7ae:	f7ff fd11 	bl	2ffdb1d4 <tf_log>
2ffdb7b2:	f04f 30ff 	mov.w	r0, #4294967295	; 0xffffffff
2ffdb7b6:	bd10      	pop	{r4, pc}
2ffdb7b8:	2ffe3a75 	.word	0x2ffe3a75
2ffdb7bc:	2ffe3a99 	.word	0x2ffe3a99

2ffdb7c0 <stm32_get_otp_value>:
2ffdb7c0:	b537      	push	{r0, r1, r2, r4, r5, lr}
2ffdb7c2:	460d      	mov	r5, r1
2ffdb7c4:	4604      	mov	r4, r0
2ffdb7c6:	b920      	cbnz	r0, 2ffdb7d2 <stm32_get_otp_value+0x12>
2ffdb7c8:	f240 1141 	movw	r1, #321	; 0x141
2ffdb7cc:	480c      	ldr	r0, [pc, #48]	; (2ffdb800 <stm32_get_otp_value+0x40>)
2ffdb7ce:	f005 fe03 	bl	2ffe13d8 <__assert>
2ffdb7d2:	b911      	cbnz	r1, 2ffdb7da <stm32_get_otp_value+0x1a>
2ffdb7d4:	f44f 71a1 	mov.w	r1, #322	; 0x142
2ffdb7d8:	e7f8      	b.n	2ffdb7cc <stm32_get_otp_value+0xc>
2ffdb7da:	2200      	movs	r2, #0
2ffdb7dc:	a901      	add	r1, sp, #4
2ffdb7de:	f7ff ffc3 	bl	2ffdb768 <stm32_get_otp_index>
2ffdb7e2:	b940      	cbnz	r0, 2ffdb7f6 <stm32_get_otp_value+0x36>
2ffdb7e4:	9801      	ldr	r0, [sp, #4]
2ffdb7e6:	4629      	mov	r1, r5
2ffdb7e8:	f7ff ffd2 	bl	2ffdb790 <stm32_get_otp_value_from_idx>
2ffdb7ec:	b128      	cbz	r0, 2ffdb7fa <stm32_get_otp_value+0x3a>
2ffdb7ee:	4805      	ldr	r0, [pc, #20]	; (2ffdb804 <stm32_get_otp_value+0x44>)
2ffdb7f0:	4621      	mov	r1, r4
2ffdb7f2:	f7ff fcef 	bl	2ffdb1d4 <tf_log>
2ffdb7f6:	f04f 30ff 	mov.w	r0, #4294967295	; 0xffffffff
2ffdb7fa:	b003      	add	sp, #12
2ffdb7fc:	bd30      	pop	{r4, r5, pc}
2ffdb7fe:	bf00      	nop
2ffdb800:	2ffe3a75 	.word	0x2ffe3a75
2ffdb804:	2ffe3ab3 	.word	0x2ffe3ab3

2ffdb808 <get_part_number>:
2ffdb808:	b513      	push	{r0, r1, r4, lr}
2ffdb80a:	4c0f      	ldr	r4, [pc, #60]	; (2ffdb848 <get_part_number+0x40>)
2ffdb80c:	6820      	ldr	r0, [r4, #0]
2ffdb80e:	b9c0      	cbnz	r0, 2ffdb842 <get_part_number+0x3a>
2ffdb810:	a801      	add	r0, sp, #4
2ffdb812:	f005 f8d1 	bl	2ffe09b8 <stm32mp1_dbgmcu_get_chip_dev_id>
2ffdb816:	2800      	cmp	r0, #0
2ffdb818:	da05      	bge.n	2ffdb826 <get_part_number+0x1e>
2ffdb81a:	480c      	ldr	r0, [pc, #48]	; (2ffdb84c <get_part_number+0x44>)
2ffdb81c:	f7ff fcda 	bl	2ffdb1d4 <tf_log>
2ffdb820:	f44f 63a0 	mov.w	r3, #1280	; 0x500
2ffdb824:	9301      	str	r3, [sp, #4]
2ffdb826:	4908      	ldr	r1, [pc, #32]	; (2ffdb848 <get_part_number+0x40>)
2ffdb828:	4809      	ldr	r0, [pc, #36]	; (2ffdb850 <get_part_number+0x48>)
2ffdb82a:	f7ff ffc9 	bl	2ffdb7c0 <stm32_get_otp_value>
2ffdb82e:	b118      	cbz	r0, 2ffdb838 <get_part_number+0x30>
2ffdb830:	f7ff fd6e 	bl	2ffdb310 <console_flush>
2ffdb834:	f7fa ed14 	blx	2ffd6260 <do_panic>
2ffdb838:	7820      	ldrb	r0, [r4, #0]
2ffdb83a:	9b01      	ldr	r3, [sp, #4]
2ffdb83c:	ea40 4003 	orr.w	r0, r0, r3, lsl #16
2ffdb840:	6020      	str	r0, [r4, #0]
2ffdb842:	b002      	add	sp, #8
2ffdb844:	bd10      	pop	{r4, pc}
2ffdb846:	bf00      	nop
2ffdb848:	2ffe7e7c 	.word	0x2ffe7e7c
2ffdb84c:	2ffe3ac9 	.word	0x2ffe3ac9
2ffdb850:	2ffe3aef 	.word	0x2ffe3aef

2ffdb854 <stm32mp_supports_cpu_opp>:
2ffdb854:	1e43      	subs	r3, r0, #1
2ffdb856:	2b01      	cmp	r3, #1
2ffdb858:	b510      	push	{r4, lr}
2ffdb85a:	4604      	mov	r4, r0
2ffdb85c:	d814      	bhi.n	2ffdb888 <stm32mp_supports_cpu_opp+0x34>
2ffdb85e:	f7ff ffd3 	bl	2ffdb808 <get_part_number>
2ffdb862:	4b0b      	ldr	r3, [pc, #44]	; (2ffdb890 <stm32mp_supports_cpu_opp+0x3c>)
2ffdb864:	4298      	cmp	r0, r3
2ffdb866:	d80b      	bhi.n	2ffdb880 <stm32mp_supports_cpu_opp+0x2c>
2ffdb868:	3b02      	subs	r3, #2
2ffdb86a:	4298      	cmp	r0, r3
2ffdb86c:	d80e      	bhi.n	2ffdb88c <stm32mp_supports_cpu_opp+0x38>
2ffdb86e:	f100 437b 	add.w	r3, r0, #4211081216	; 0xfb000000
2ffdb872:	3b80      	subs	r3, #128	; 0x80
2ffdb874:	2b01      	cmp	r3, #1
2ffdb876:	d909      	bls.n	2ffdb88c <stm32mp_supports_cpu_opp+0x38>
2ffdb878:	1e63      	subs	r3, r4, #1
2ffdb87a:	4258      	negs	r0, r3
2ffdb87c:	4158      	adcs	r0, r3
2ffdb87e:	bd10      	pop	{r4, pc}
2ffdb880:	f100 437b 	add.w	r3, r0, #4211081216	; 0xfb000000
2ffdb884:	3bae      	subs	r3, #174	; 0xae
2ffdb886:	e7f5      	b.n	2ffdb874 <stm32mp_supports_cpu_opp+0x20>
2ffdb888:	2000      	movs	r0, #0
2ffdb88a:	e7f8      	b.n	2ffdb87e <stm32mp_supports_cpu_opp+0x2a>
2ffdb88c:	2001      	movs	r0, #1
2ffdb88e:	e7f6      	b.n	2ffdb87e <stm32mp_supports_cpu_opp+0x2a>
2ffdb890:	050000a5 	.word	0x050000a5

2ffdb894 <stm32mp_print_cpuinfo>:
2ffdb894:	b537      	push	{r0, r1, r2, r4, r5, lr}
2ffdb896:	f7ff ffb7 	bl	2ffdb808 <get_part_number>
2ffdb89a:	4b3d      	ldr	r3, [pc, #244]	; (2ffdb990 <stm32mp_print_cpuinfo+0xfc>)
2ffdb89c:	4298      	cmp	r0, r3
2ffdb89e:	d046      	beq.n	2ffdb92e <stm32mp_print_cpuinfo+0x9a>
2ffdb8a0:	d833      	bhi.n	2ffdb90a <stm32mp_print_cpuinfo+0x76>
2ffdb8a2:	3b51      	subs	r3, #81	; 0x51
2ffdb8a4:	4298      	cmp	r0, r3
2ffdb8a6:	d838      	bhi.n	2ffdb91a <stm32mp_print_cpuinfo+0x86>
2ffdb8a8:	3b0c      	subs	r3, #12
2ffdb8aa:	4298      	cmp	r0, r3
2ffdb8ac:	d81e      	bhi.n	2ffdb8ec <stm32mp_print_cpuinfo+0x58>
2ffdb8ae:	f1b0 6fa0 	cmp.w	r0, #83886080	; 0x5000000
2ffdb8b2:	d03e      	beq.n	2ffdb932 <stm32mp_print_cpuinfo+0x9e>
2ffdb8b4:	4a37      	ldr	r2, [pc, #220]	; (2ffdb994 <stm32mp_print_cpuinfo+0x100>)
2ffdb8b6:	4c38      	ldr	r4, [pc, #224]	; (2ffdb998 <stm32mp_print_cpuinfo+0x104>)
2ffdb8b8:	4b38      	ldr	r3, [pc, #224]	; (2ffdb99c <stm32mp_print_cpuinfo+0x108>)
2ffdb8ba:	4290      	cmp	r0, r2
2ffdb8bc:	bf08      	it	eq
2ffdb8be:	461c      	moveq	r4, r3
2ffdb8c0:	4837      	ldr	r0, [pc, #220]	; (2ffdb9a0 <stm32mp_print_cpuinfo+0x10c>)
2ffdb8c2:	a901      	add	r1, sp, #4
2ffdb8c4:	f7ff ff7c 	bl	2ffdb7c0 <stm32_get_otp_value>
2ffdb8c8:	2800      	cmp	r0, #0
2ffdb8ca:	d03a      	beq.n	2ffdb942 <stm32mp_print_cpuinfo+0xae>
2ffdb8cc:	f7ff fd20 	bl	2ffdb310 <console_flush>
2ffdb8d0:	f7fa ecc6 	blx	2ffd6260 <do_panic>
2ffdb8d4:	280b      	cmp	r0, #11
2ffdb8d6:	d820      	bhi.n	2ffdb91a <stm32mp_print_cpuinfo+0x86>
2ffdb8d8:	e8df f000 	tbb	[pc, r0]
2ffdb8dc:	1f1f2d06 	.word	0x1f1f2d06
2ffdb8e0:	1f1f1f1f 	.word	0x1f1f1f1f
2ffdb8e4:	27251f1f 	.word	0x27251f1f
2ffdb8e8:	4c2e      	ldr	r4, [pc, #184]	; (2ffdb9a4 <stm32mp_print_cpuinfo+0x110>)
2ffdb8ea:	e7e9      	b.n	2ffdb8c0 <stm32mp_print_cpuinfo+0x2c>
2ffdb8ec:	f100 407b 	add.w	r0, r0, #4211081216	; 0xfb000000
2ffdb8f0:	3824      	subs	r0, #36	; 0x24
2ffdb8f2:	280b      	cmp	r0, #11
2ffdb8f4:	d811      	bhi.n	2ffdb91a <stm32mp_print_cpuinfo+0x86>
2ffdb8f6:	e8df f000 	tbb	[pc, r0]
2ffdb8fa:	2006      	.short	0x2006
2ffdb8fc:	10101010 	.word	0x10101010
2ffdb900:	10101010 	.word	0x10101010
2ffdb904:	1412      	.short	0x1412
2ffdb906:	4c28      	ldr	r4, [pc, #160]	; (2ffdb9a8 <stm32mp_print_cpuinfo+0x114>)
2ffdb908:	e7da      	b.n	2ffdb8c0 <stm32mp_print_cpuinfo+0x2c>
2ffdb90a:	4b28      	ldr	r3, [pc, #160]	; (2ffdb9ac <stm32mp_print_cpuinfo+0x118>)
2ffdb90c:	4298      	cmp	r0, r3
2ffdb90e:	d016      	beq.n	2ffdb93e <stm32mp_print_cpuinfo+0xaa>
2ffdb910:	f100 407b 	add.w	r0, r0, #4211081216	; 0xfb000000
2ffdb914:	38a4      	subs	r0, #164	; 0xa4
2ffdb916:	280b      	cmp	r0, #11
2ffdb918:	d9dc      	bls.n	2ffdb8d4 <stm32mp_print_cpuinfo+0x40>
2ffdb91a:	4c1f      	ldr	r4, [pc, #124]	; (2ffdb998 <stm32mp_print_cpuinfo+0x104>)
2ffdb91c:	e7d0      	b.n	2ffdb8c0 <stm32mp_print_cpuinfo+0x2c>
2ffdb91e:	4c24      	ldr	r4, [pc, #144]	; (2ffdb9b0 <stm32mp_print_cpuinfo+0x11c>)
2ffdb920:	e7ce      	b.n	2ffdb8c0 <stm32mp_print_cpuinfo+0x2c>
2ffdb922:	4c24      	ldr	r4, [pc, #144]	; (2ffdb9b4 <stm32mp_print_cpuinfo+0x120>)
2ffdb924:	e7cc      	b.n	2ffdb8c0 <stm32mp_print_cpuinfo+0x2c>
2ffdb926:	4c24      	ldr	r4, [pc, #144]	; (2ffdb9b8 <stm32mp_print_cpuinfo+0x124>)
2ffdb928:	e7ca      	b.n	2ffdb8c0 <stm32mp_print_cpuinfo+0x2c>
2ffdb92a:	4c24      	ldr	r4, [pc, #144]	; (2ffdb9bc <stm32mp_print_cpuinfo+0x128>)
2ffdb92c:	e7c8      	b.n	2ffdb8c0 <stm32mp_print_cpuinfo+0x2c>
2ffdb92e:	4c24      	ldr	r4, [pc, #144]	; (2ffdb9c0 <stm32mp_print_cpuinfo+0x12c>)
2ffdb930:	e7c6      	b.n	2ffdb8c0 <stm32mp_print_cpuinfo+0x2c>
2ffdb932:	4c24      	ldr	r4, [pc, #144]	; (2ffdb9c4 <stm32mp_print_cpuinfo+0x130>)
2ffdb934:	e7c4      	b.n	2ffdb8c0 <stm32mp_print_cpuinfo+0x2c>
2ffdb936:	4c24      	ldr	r4, [pc, #144]	; (2ffdb9c8 <stm32mp_print_cpuinfo+0x134>)
2ffdb938:	e7c2      	b.n	2ffdb8c0 <stm32mp_print_cpuinfo+0x2c>
2ffdb93a:	4c24      	ldr	r4, [pc, #144]	; (2ffdb9cc <stm32mp_print_cpuinfo+0x138>)
2ffdb93c:	e7c0      	b.n	2ffdb8c0 <stm32mp_print_cpuinfo+0x2c>
2ffdb93e:	4c24      	ldr	r4, [pc, #144]	; (2ffdb9d0 <stm32mp_print_cpuinfo+0x13c>)
2ffdb940:	e7be      	b.n	2ffdb8c0 <stm32mp_print_cpuinfo+0x2c>
2ffdb942:	9b01      	ldr	r3, [sp, #4]
2ffdb944:	a801      	add	r0, sp, #4
2ffdb946:	f3c3 63c2 	ubfx	r3, r3, #27, #3
2ffdb94a:	3b01      	subs	r3, #1
2ffdb94c:	2b03      	cmp	r3, #3
2ffdb94e:	bf96      	itet	ls
2ffdb950:	4a20      	ldrls	r2, [pc, #128]	; (2ffdb9d4 <stm32mp_print_cpuinfo+0x140>)
2ffdb952:	4d21      	ldrhi	r5, [pc, #132]	; (2ffdb9d8 <stm32mp_print_cpuinfo+0x144>)
2ffdb954:	f852 5023 	ldrls.w	r5, [r2, r3, lsl #2]
2ffdb958:	f005 f818 	bl	2ffe098c <stm32mp1_dbgmcu_get_chip_version>
2ffdb95c:	2800      	cmp	r0, #0
2ffdb95e:	da02      	bge.n	2ffdb966 <stm32mp_print_cpuinfo+0xd2>
2ffdb960:	481e      	ldr	r0, [pc, #120]	; (2ffdb9dc <stm32mp_print_cpuinfo+0x148>)
2ffdb962:	f7ff fc37 	bl	2ffdb1d4 <tf_log>
2ffdb966:	9a01      	ldr	r2, [sp, #4]
2ffdb968:	f5b2 5f00 	cmp.w	r2, #8192	; 0x2000
2ffdb96c:	d00d      	beq.n	2ffdb98a <stm32mp_print_cpuinfo+0xf6>
2ffdb96e:	4b1c      	ldr	r3, [pc, #112]	; (2ffdb9e0 <stm32mp_print_cpuinfo+0x14c>)
2ffdb970:	f242 0001 	movw	r0, #8193	; 0x2001
2ffdb974:	491b      	ldr	r1, [pc, #108]	; (2ffdb9e4 <stm32mp_print_cpuinfo+0x150>)
2ffdb976:	4282      	cmp	r2, r0
2ffdb978:	bf08      	it	eq
2ffdb97a:	460b      	moveq	r3, r1
2ffdb97c:	481a      	ldr	r0, [pc, #104]	; (2ffdb9e8 <stm32mp_print_cpuinfo+0x154>)
2ffdb97e:	462a      	mov	r2, r5
2ffdb980:	4621      	mov	r1, r4
2ffdb982:	f7ff fc27 	bl	2ffdb1d4 <tf_log>
2ffdb986:	b003      	add	sp, #12
2ffdb988:	bd30      	pop	{r4, r5, pc}
2ffdb98a:	4b18      	ldr	r3, [pc, #96]	; (2ffdb9ec <stm32mp_print_cpuinfo+0x158>)
2ffdb98c:	e7f6      	b.n	2ffdb97c <stm32mp_print_cpuinfo+0xe8>
2ffdb98e:	bf00      	nop
2ffdb990:	05000080 	.word	0x05000080
2ffdb994:	05000001 	.word	0x05000001
2ffdb998:	2ffe3aff 	.word	0x2ffe3aff
2ffdb99c:	2ffe3b27 	.word	0x2ffe3b27
2ffdb9a0:	2ffe3b42 	.word	0x2ffe3b42
2ffdb9a4:	2ffe3b09 	.word	0x2ffe3b09
2ffdb9a8:	2ffe3b22 	.word	0x2ffe3b22
2ffdb9ac:	05000081 	.word	0x05000081
2ffdb9b0:	2ffe3b13 	.word	0x2ffe3b13
2ffdb9b4:	2ffe3b18 	.word	0x2ffe3b18
2ffdb9b8:	2ffe3b31 	.word	0x2ffe3b31
2ffdb9bc:	2ffe3b36 	.word	0x2ffe3b36
2ffdb9c0:	2ffe3b1d 	.word	0x2ffe3b1d
2ffdb9c4:	2ffe3b04 	.word	0x2ffe3b04
2ffdb9c8:	2ffe3b2c 	.word	0x2ffe3b2c
2ffdb9cc:	2ffe3b0e 	.word	0x2ffe3b0e
2ffdb9d0:	2ffe3b3b 	.word	0x2ffe3b3b
2ffdb9d4:	2ffe3bdc 	.word	0x2ffe3bdc
2ffdb9d8:	2ffe3b01 	.word	0x2ffe3b01
2ffdb9dc:	2ffe3b4e 	.word	0x2ffe3b4e
2ffdb9e0:	2ffe3b02 	.word	0x2ffe3b02
2ffdb9e4:	2ffe3b40 	.word	0x2ffe3b40
2ffdb9e8:	2ffe3b77 	.word	0x2ffe3b77
2ffdb9ec:	2ffe3bd7 	.word	0x2ffe3bd7

2ffdb9f0 <stm32mp_print_boardinfo>:
2ffdb9f0:	b51f      	push	{r0, r1, r2, r3, r4, lr}
2ffdb9f2:	2300      	movs	r3, #0
2ffdb9f4:	480f      	ldr	r0, [pc, #60]	; (2ffdba34 <stm32mp_print_boardinfo+0x44>)
2ffdb9f6:	a903      	add	r1, sp, #12
2ffdb9f8:	9303      	str	r3, [sp, #12]
2ffdb9fa:	f7ff fee1 	bl	2ffdb7c0 <stm32_get_otp_value>
2ffdb9fe:	b9a8      	cbnz	r0, 2ffdba2c <stm32mp_print_boardinfo+0x3c>
2ffdba00:	9903      	ldr	r1, [sp, #12]
2ffdba02:	b199      	cbz	r1, 2ffdba2c <stm32mp_print_boardinfo+0x3c>
2ffdba04:	f3c1 2303 	ubfx	r3, r1, #8, #4
2ffdba08:	f3c1 3203 	ubfx	r2, r1, #12, #4
2ffdba0c:	3340      	adds	r3, #64	; 0x40
2ffdba0e:	f88d 3008 	strb.w	r3, [sp, #8]
2ffdba12:	f001 030f 	and.w	r3, r1, #15
2ffdba16:	9301      	str	r3, [sp, #4]
2ffdba18:	ab02      	add	r3, sp, #8
2ffdba1a:	f88d 0009 	strb.w	r0, [sp, #9]
2ffdba1e:	9300      	str	r3, [sp, #0]
2ffdba20:	4805      	ldr	r0, [pc, #20]	; (2ffdba38 <stm32mp_print_boardinfo+0x48>)
2ffdba22:	f3c1 1303 	ubfx	r3, r1, #4, #4
2ffdba26:	0c09      	lsrs	r1, r1, #16
2ffdba28:	f7ff fbd4 	bl	2ffdb1d4 <tf_log>
2ffdba2c:	b005      	add	sp, #20
2ffdba2e:	f85d fb04 	ldr.w	pc, [sp], #4
2ffdba32:	bf00      	nop
2ffdba34:	2ffe3b91 	.word	0x2ffe3b91
2ffdba38:	2ffe3b9a 	.word	0x2ffe3b9a

2ffdba3c <stm32mp_is_closed_device>:
2ffdba3c:	b507      	push	{r0, r1, r2, lr}
2ffdba3e:	a901      	add	r1, sp, #4
2ffdba40:	4806      	ldr	r0, [pc, #24]	; (2ffdba5c <stm32mp_is_closed_device+0x20>)
2ffdba42:	f7ff febd 	bl	2ffdb7c0 <stm32_get_otp_value>
2ffdba46:	9b01      	ldr	r3, [sp, #4]
2ffdba48:	f003 0340 	and.w	r3, r3, #64	; 0x40
2ffdba4c:	4303      	orrs	r3, r0
2ffdba4e:	bf14      	ite	ne
2ffdba50:	2001      	movne	r0, #1
2ffdba52:	2000      	moveq	r0, #0
2ffdba54:	b003      	add	sp, #12
2ffdba56:	f85d fb04 	ldr.w	pc, [sp], #4
2ffdba5a:	bf00      	nop
2ffdba5c:	2ffe3bbf 	.word	0x2ffe3bbf

2ffdba60 <stm32mp_is_auth_supported>:
2ffdba60:	b508      	push	{r3, lr}
2ffdba62:	f7ff fed1 	bl	2ffdb808 <get_part_number>
2ffdba66:	4b0c      	ldr	r3, [pc, #48]	; (2ffdba98 <stm32mp_is_auth_supported+0x38>)
2ffdba68:	4298      	cmp	r0, r3
2ffdba6a:	d012      	beq.n	2ffdba92 <stm32mp_is_auth_supported+0x32>
2ffdba6c:	d80b      	bhi.n	2ffdba86 <stm32mp_is_auth_supported+0x26>
2ffdba6e:	3b5c      	subs	r3, #92	; 0x5c
2ffdba70:	4298      	cmp	r0, r3
2ffdba72:	d00e      	beq.n	2ffdba92 <stm32mp_is_auth_supported+0x32>
2ffdba74:	330a      	adds	r3, #10
2ffdba76:	4298      	cmp	r0, r3
2ffdba78:	d00b      	beq.n	2ffdba92 <stm32mp_is_auth_supported+0x32>
2ffdba7a:	f1b0 6fa0 	cmp.w	r0, #83886080	; 0x5000000
2ffdba7e:	bf14      	ite	ne
2ffdba80:	2000      	movne	r0, #0
2ffdba82:	2001      	moveq	r0, #1
2ffdba84:	bd08      	pop	{r3, pc}
2ffdba86:	4b05      	ldr	r3, [pc, #20]	; (2ffdba9c <stm32mp_is_auth_supported+0x3c>)
2ffdba88:	4298      	cmp	r0, r3
2ffdba8a:	d002      	beq.n	2ffdba92 <stm32mp_is_auth_supported+0x32>
2ffdba8c:	330a      	adds	r3, #10
2ffdba8e:	4298      	cmp	r0, r3
2ffdba90:	e7f5      	b.n	2ffdba7e <stm32mp_is_auth_supported+0x1e>
2ffdba92:	2001      	movs	r0, #1
2ffdba94:	e7f6      	b.n	2ffdba84 <stm32mp_is_auth_supported+0x24>
2ffdba96:	bf00      	nop
2ffdba98:	05000080 	.word	0x05000080
2ffdba9c:	050000a4 	.word	0x050000a4

2ffdbaa0 <stm32_iwdg_get_instance>:
2ffdbaa0:	b508      	push	{r3, lr}
2ffdbaa2:	4b07      	ldr	r3, [pc, #28]	; (2ffdbac0 <stm32_iwdg_get_instance+0x20>)
2ffdbaa4:	4298      	cmp	r0, r3
2ffdbaa6:	d006      	beq.n	2ffdbab6 <stm32_iwdg_get_instance+0x16>
2ffdbaa8:	4b06      	ldr	r3, [pc, #24]	; (2ffdbac4 <stm32_iwdg_get_instance+0x24>)
2ffdbaaa:	4298      	cmp	r0, r3
2ffdbaac:	d005      	beq.n	2ffdbaba <stm32_iwdg_get_instance+0x1a>
2ffdbaae:	f7ff fc2f 	bl	2ffdb310 <console_flush>
2ffdbab2:	f7fa ebd6 	blx	2ffd6260 <do_panic>
2ffdbab6:	2001      	movs	r0, #1
2ffdbab8:	bd08      	pop	{r3, pc}
2ffdbaba:	2000      	movs	r0, #0
2ffdbabc:	e7fc      	b.n	2ffdbab8 <stm32_iwdg_get_instance+0x18>
2ffdbabe:	bf00      	nop
2ffdbac0:	5a002000 	.word	0x5a002000
2ffdbac4:	5c003000 	.word	0x5c003000

2ffdbac8 <stm32_iwdg_get_otp_config>:
2ffdbac8:	b513      	push	{r0, r1, r4, lr}
2ffdbaca:	4604      	mov	r4, r0
2ffdbacc:	4811      	ldr	r0, [pc, #68]	; (2ffdbb14 <stm32_iwdg_get_otp_config+0x4c>)
2ffdbace:	a901      	add	r1, sp, #4
2ffdbad0:	f7ff fe76 	bl	2ffdb7c0 <stm32_get_otp_value>
2ffdbad4:	b118      	cbz	r0, 2ffdbade <stm32_iwdg_get_otp_config+0x16>
2ffdbad6:	f7ff fc1b 	bl	2ffdb310 <console_flush>
2ffdbada:	f7fa ebc2 	blx	2ffd6260 <do_panic>
2ffdbade:	9a01      	ldr	r2, [sp, #4]
2ffdbae0:	2301      	movs	r3, #1
2ffdbae2:	1ce1      	adds	r1, r4, #3
2ffdbae4:	fa03 f101 	lsl.w	r1, r3, r1
2ffdbae8:	4211      	tst	r1, r2
2ffdbaea:	f104 0105 	add.w	r1, r4, #5
2ffdbaee:	f104 0407 	add.w	r4, r4, #7
2ffdbaf2:	bf18      	it	ne
2ffdbaf4:	4618      	movne	r0, r3
2ffdbaf6:	fa03 f101 	lsl.w	r1, r3, r1
2ffdbafa:	bf08      	it	eq
2ffdbafc:	2000      	moveq	r0, #0
2ffdbafe:	40a3      	lsls	r3, r4
2ffdbb00:	4211      	tst	r1, r2
2ffdbb02:	bf18      	it	ne
2ffdbb04:	f040 0002 	orrne.w	r0, r0, #2
2ffdbb08:	4213      	tst	r3, r2
2ffdbb0a:	bf18      	it	ne
2ffdbb0c:	f040 0004 	orrne.w	r0, r0, #4
2ffdbb10:	b002      	add	sp, #8
2ffdbb12:	bd10      	pop	{r4, pc}
2ffdbb14:	2ffe3bc8 	.word	0x2ffe3bc8

2ffdbb18 <stm32_iwdg_shadow_update>:
2ffdbb18:	b537      	push	{r0, r1, r2, r4, r5, lr}
2ffdbb1a:	4604      	mov	r4, r0
2ffdbb1c:	481a      	ldr	r0, [pc, #104]	; (2ffdbb88 <stm32_iwdg_shadow_update+0x70>)
2ffdbb1e:	460d      	mov	r5, r1
2ffdbb20:	2200      	movs	r2, #0
2ffdbb22:	a901      	add	r1, sp, #4
2ffdbb24:	f7ff fe20 	bl	2ffdb768 <stm32_get_otp_index>
2ffdbb28:	b118      	cbz	r0, 2ffdbb32 <stm32_iwdg_shadow_update+0x1a>
2ffdbb2a:	f7ff fbf1 	bl	2ffdb310 <console_flush>
2ffdbb2e:	f7fa eb98 	blx	2ffd6260 <do_panic>
2ffdbb32:	4815      	ldr	r0, [pc, #84]	; (2ffdbb88 <stm32_iwdg_shadow_update+0x70>)
2ffdbb34:	4669      	mov	r1, sp
2ffdbb36:	f7ff fe43 	bl	2ffdb7c0 <stm32_get_otp_value>
2ffdbb3a:	2800      	cmp	r0, #0
2ffdbb3c:	d1f5      	bne.n	2ffdbb2a <stm32_iwdg_shadow_update+0x12>
2ffdbb3e:	07aa      	lsls	r2, r5, #30
2ffdbb40:	d506      	bpl.n	2ffdbb50 <stm32_iwdg_shadow_update+0x38>
2ffdbb42:	2301      	movs	r3, #1
2ffdbb44:	1d62      	adds	r2, r4, #5
2ffdbb46:	fa03 f202 	lsl.w	r2, r3, r2
2ffdbb4a:	9b00      	ldr	r3, [sp, #0]
2ffdbb4c:	4313      	orrs	r3, r2
2ffdbb4e:	9300      	str	r3, [sp, #0]
2ffdbb50:	076b      	lsls	r3, r5, #29
2ffdbb52:	d506      	bpl.n	2ffdbb62 <stm32_iwdg_shadow_update+0x4a>
2ffdbb54:	2301      	movs	r3, #1
2ffdbb56:	3407      	adds	r4, #7
2ffdbb58:	fa03 f404 	lsl.w	r4, r3, r4
2ffdbb5c:	9b00      	ldr	r3, [sp, #0]
2ffdbb5e:	4323      	orrs	r3, r4
2ffdbb60:	9300      	str	r3, [sp, #0]
2ffdbb62:	e9dd 0100 	ldrd	r0, r1, [sp]
2ffdbb66:	f001 f9db 	bl	2ffdcf20 <bsec_write_otp>
2ffdbb6a:	b928      	cbnz	r0, 2ffdbb78 <stm32_iwdg_shadow_update+0x60>
2ffdbb6c:	9801      	ldr	r0, [sp, #4]
2ffdbb6e:	f001 f929 	bl	2ffdcdc4 <bsec_set_sr_lock>
2ffdbb72:	b118      	cbz	r0, 2ffdbb7c <stm32_iwdg_shadow_update+0x64>
2ffdbb74:	f06f 0005 	mvn.w	r0, #5
2ffdbb78:	b003      	add	sp, #12
2ffdbb7a:	bd30      	pop	{r4, r5, pc}
2ffdbb7c:	9801      	ldr	r0, [sp, #4]
2ffdbb7e:	f001 f997 	bl	2ffdceb0 <bsec_set_sw_lock>
2ffdbb82:	2800      	cmp	r0, #0
2ffdbb84:	d0f8      	beq.n	2ffdbb78 <stm32_iwdg_shadow_update+0x60>
2ffdbb86:	e7f5      	b.n	2ffdbb74 <stm32_iwdg_shadow_update+0x5c>
2ffdbb88:	2ffe3bc8 	.word	0x2ffe3bc8

2ffdbb8c <xlat_arch_get_max_supported_pa>:
2ffdbb8c:	f04f 30ff 	mov.w	r0, #4294967295	; 0xffffffff
2ffdbb90:	21ff      	movs	r1, #255	; 0xff
2ffdbb92:	4770      	bx	lr

2ffdbb94 <xlat_get_min_virt_addr_space_size>:
2ffdbb94:	f04f 7000 	mov.w	r0, #33554432	; 0x2000000
2ffdbb98:	4770      	bx	lr

2ffdbb9a <is_dcache_enabled>:
2ffdbb9a:	f3ef 8300 	mrs	r3, CPSR
2ffdbb9e:	f003 031f 	and.w	r3, r3, #31
2ffdbba2:	2b1a      	cmp	r3, #26
2ffdbba4:	d104      	bne.n	2ffdbbb0 <is_dcache_enabled+0x16>
2ffdbba6:	ee91 0f10 	mrc	15, 4, r0, cr1, cr0, {0}
2ffdbbaa:	f3c0 0080 	ubfx	r0, r0, #2, #1
2ffdbbae:	4770      	bx	lr
2ffdbbb0:	ee11 0f10 	mrc	15, 0, r0, cr1, cr0, {0}
2ffdbbb4:	e7f9      	b.n	2ffdbbaa <is_dcache_enabled+0x10>
	...

2ffdbbb8 <xlat_arch_regime_get_xn_desc>:
2ffdbbb8:	2801      	cmp	r0, #1
2ffdbbba:	b508      	push	{r3, lr}
2ffdbbbc:	d005      	beq.n	2ffdbbca <xlat_arch_regime_get_xn_desc+0x12>
2ffdbbbe:	2802      	cmp	r0, #2
2ffdbbc0:	d007      	beq.n	2ffdbbd2 <xlat_arch_regime_get_xn_desc+0x1a>
2ffdbbc2:	4806      	ldr	r0, [pc, #24]	; (2ffdbbdc <xlat_arch_regime_get_xn_desc+0x24>)
2ffdbbc4:	2154      	movs	r1, #84	; 0x54
2ffdbbc6:	f005 fc07 	bl	2ffe13d8 <__assert>
2ffdbbca:	2000      	movs	r0, #0
2ffdbbcc:	f44f 01c0 	mov.w	r1, #6291456	; 0x600000
2ffdbbd0:	bd08      	pop	{r3, pc}
2ffdbbd2:	2000      	movs	r0, #0
2ffdbbd4:	f44f 0180 	mov.w	r1, #4194304	; 0x400000
2ffdbbd8:	e7fa      	b.n	2ffdbbd0 <xlat_arch_regime_get_xn_desc+0x18>
2ffdbbda:	bf00      	nop
2ffdbbdc:	2ffe3c88 	.word	0x2ffe3c88

2ffdbbe0 <xlat_arch_tlbi_va>:
2ffdbbe0:	b508      	push	{r3, lr}
2ffdbbe2:	f3bf 8f4a 	dsb	ishst
2ffdbbe6:	f420 607f 	bic.w	r0, r0, #4080	; 0xff0
2ffdbbea:	2901      	cmp	r1, #1
2ffdbbec:	f020 000f 	bic.w	r0, r0, #15
2ffdbbf0:	d102      	bne.n	2ffdbbf8 <xlat_arch_tlbi_va+0x18>
2ffdbbf2:	ee08 0f73 	mcr	15, 0, r0, cr8, cr3, {3}
2ffdbbf6:	bd08      	pop	{r3, pc}
2ffdbbf8:	2902      	cmp	r1, #2
2ffdbbfa:	d003      	beq.n	2ffdbc04 <xlat_arch_tlbi_va+0x24>
2ffdbbfc:	4803      	ldr	r0, [pc, #12]	; (2ffdbc0c <xlat_arch_tlbi_va+0x2c>)
2ffdbbfe:	2164      	movs	r1, #100	; 0x64
2ffdbc00:	f005 fbea 	bl	2ffe13d8 <__assert>
2ffdbc04:	ee88 0f33 	mcr	15, 4, r0, cr8, cr3, {1}
2ffdbc08:	e7f5      	b.n	2ffdbbf6 <xlat_arch_tlbi_va+0x16>
2ffdbc0a:	bf00      	nop
2ffdbc0c:	2ffe3c88 	.word	0x2ffe3c88

2ffdbc10 <xlat_arch_tlbi_va_sync>:
2ffdbc10:	2300      	movs	r3, #0
2ffdbc12:	ee07 3fd1 	mcr	15, 0, r3, cr7, cr1, {6}
2ffdbc16:	f3bf 8f4b 	dsb	ish
2ffdbc1a:	f3bf 8f6f 	isb	sy
2ffdbc1e:	4770      	bx	lr

2ffdbc20 <xlat_arch_current_el>:
2ffdbc20:	b508      	push	{r3, lr}
2ffdbc22:	f3ef 8300 	mrs	r3, CPSR
2ffdbc26:	f003 031f 	and.w	r3, r3, #31
2ffdbc2a:	2b1a      	cmp	r3, #26
2ffdbc2c:	d00f      	beq.n	2ffdbc4e <xlat_arch_current_el+0x2e>
2ffdbc2e:	f3ef 8300 	mrs	r3, CPSR
2ffdbc32:	f003 031f 	and.w	r3, r3, #31
2ffdbc36:	2b13      	cmp	r3, #19
2ffdbc38:	d00b      	beq.n	2ffdbc52 <xlat_arch_current_el+0x32>
2ffdbc3a:	f3ef 8300 	mrs	r3, CPSR
2ffdbc3e:	f003 031f 	and.w	r3, r3, #31
2ffdbc42:	2b16      	cmp	r3, #22
2ffdbc44:	d005      	beq.n	2ffdbc52 <xlat_arch_current_el+0x32>
2ffdbc46:	4804      	ldr	r0, [pc, #16]	; (2ffdbc58 <xlat_arch_current_el+0x38>)
2ffdbc48:	2188      	movs	r1, #136	; 0x88
2ffdbc4a:	f005 fbc5 	bl	2ffe13d8 <__assert>
2ffdbc4e:	2002      	movs	r0, #2
2ffdbc50:	bd08      	pop	{r3, pc}
2ffdbc52:	2001      	movs	r0, #1
2ffdbc54:	e7fc      	b.n	2ffdbc50 <xlat_arch_current_el+0x30>
2ffdbc56:	bf00      	nop
2ffdbc58:	2ffe3c88 	.word	0x2ffe3c88

2ffdbc5c <is_mmu_enabled_ctx>:
2ffdbc5c:	b508      	push	{r3, lr}
2ffdbc5e:	6c43      	ldr	r3, [r0, #68]	; 0x44
2ffdbc60:	2b01      	cmp	r3, #1
2ffdbc62:	d10c      	bne.n	2ffdbc7e <is_mmu_enabled_ctx+0x22>
2ffdbc64:	f7ff ffdc 	bl	2ffdbc20 <xlat_arch_current_el>
2ffdbc68:	2801      	cmp	r0, #1
2ffdbc6a:	d003      	beq.n	2ffdbc74 <is_mmu_enabled_ctx+0x18>
2ffdbc6c:	213d      	movs	r1, #61	; 0x3d
2ffdbc6e:	480a      	ldr	r0, [pc, #40]	; (2ffdbc98 <is_mmu_enabled_ctx+0x3c>)
2ffdbc70:	f005 fbb2 	bl	2ffe13d8 <__assert>
2ffdbc74:	ee11 0f10 	mrc	15, 0, r0, cr1, cr0, {0}
2ffdbc78:	f000 0001 	and.w	r0, r0, #1
2ffdbc7c:	bd08      	pop	{r3, pc}
2ffdbc7e:	2b02      	cmp	r3, #2
2ffdbc80:	d001      	beq.n	2ffdbc86 <is_mmu_enabled_ctx+0x2a>
2ffdbc82:	2140      	movs	r1, #64	; 0x40
2ffdbc84:	e7f3      	b.n	2ffdbc6e <is_mmu_enabled_ctx+0x12>
2ffdbc86:	f7ff ffcb 	bl	2ffdbc20 <xlat_arch_current_el>
2ffdbc8a:	2802      	cmp	r0, #2
2ffdbc8c:	d001      	beq.n	2ffdbc92 <is_mmu_enabled_ctx+0x36>
2ffdbc8e:	2141      	movs	r1, #65	; 0x41
2ffdbc90:	e7ed      	b.n	2ffdbc6e <is_mmu_enabled_ctx+0x12>
2ffdbc92:	ee91 0f10 	mrc	15, 4, r0, cr1, cr0, {0}
2ffdbc96:	e7ef      	b.n	2ffdbc78 <is_mmu_enabled_ctx+0x1c>
2ffdbc98:	2ffe3c88 	.word	0x2ffe3c88

2ffdbc9c <setup_mmu_cfg>:
2ffdbc9c:	b5f8      	push	{r3, r4, r5, r6, r7, lr}
2ffdbc9e:	4616      	mov	r6, r2
2ffdbca0:	9a09      	ldr	r2, [sp, #36]	; 0x24
2ffdbca2:	460f      	mov	r7, r1
2ffdbca4:	9908      	ldr	r1, [sp, #32]
2ffdbca6:	4604      	mov	r4, r0
2ffdbca8:	2a01      	cmp	r2, #1
2ffdbcaa:	d10f      	bne.n	2ffdbccc <setup_mmu_cfg+0x30>
2ffdbcac:	f3ef 8200 	mrs	r2, CPSR
2ffdbcb0:	f002 021f 	and.w	r2, r2, #31
2ffdbcb4:	2a13      	cmp	r2, #19
2ffdbcb6:	d015      	beq.n	2ffdbce4 <setup_mmu_cfg+0x48>
2ffdbcb8:	f3ef 8200 	mrs	r2, CPSR
2ffdbcbc:	f002 021f 	and.w	r2, r2, #31
2ffdbcc0:	2a16      	cmp	r2, #22
2ffdbcc2:	d00f      	beq.n	2ffdbce4 <setup_mmu_cfg+0x48>
2ffdbcc4:	21b1      	movs	r1, #177	; 0xb1
2ffdbcc6:	481c      	ldr	r0, [pc, #112]	; (2ffdbd38 <setup_mmu_cfg+0x9c>)
2ffdbcc8:	f005 fb86 	bl	2ffe13d8 <__assert>
2ffdbccc:	2a02      	cmp	r2, #2
2ffdbcce:	d001      	beq.n	2ffdbcd4 <setup_mmu_cfg+0x38>
2ffdbcd0:	21b8      	movs	r1, #184	; 0xb8
2ffdbcd2:	e7f8      	b.n	2ffdbcc6 <setup_mmu_cfg+0x2a>
2ffdbcd4:	f3ef 8200 	mrs	r2, CPSR
2ffdbcd8:	f002 021f 	and.w	r2, r2, #31
2ffdbcdc:	2a1a      	cmp	r2, #26
2ffdbcde:	d00a      	beq.n	2ffdbcf6 <setup_mmu_cfg+0x5a>
2ffdbce0:	21b9      	movs	r1, #185	; 0xb9
2ffdbce2:	e7f0      	b.n	2ffdbcc6 <setup_mmu_cfg+0x2a>
2ffdbce4:	4d15      	ldr	r5, [pc, #84]	; (2ffdbd3c <setup_mmu_cfg+0xa0>)
2ffdbce6:	1c4a      	adds	r2, r1, #1
2ffdbce8:	d010      	beq.n	2ffdbd0c <setup_mmu_cfg+0x70>
2ffdbcea:	1c48      	adds	r0, r1, #1
2ffdbcec:	f1b0 7f00 	cmp.w	r0, #33554432	; 0x2000000
2ffdbcf0:	d203      	bcs.n	2ffdbcfa <setup_mmu_cfg+0x5e>
2ffdbcf2:	21cc      	movs	r1, #204	; 0xcc
2ffdbcf4:	e7e7      	b.n	2ffdbcc6 <setup_mmu_cfg+0x2a>
2ffdbcf6:	4d12      	ldr	r5, [pc, #72]	; (2ffdbd40 <setup_mmu_cfg+0xa4>)
2ffdbcf8:	e7f5      	b.n	2ffdbce6 <setup_mmu_cfg+0x4a>
2ffdbcfa:	4001      	ands	r1, r0
2ffdbcfc:	d001      	beq.n	2ffdbd02 <setup_mmu_cfg+0x66>
2ffdbcfe:	21d0      	movs	r1, #208	; 0xd0
2ffdbd00:	e7e1      	b.n	2ffdbcc6 <setup_mmu_cfg+0x2a>
2ffdbd02:	f7ff fb3d 	bl	2ffdb380 <__ctzdi2>
2ffdbd06:	f1c0 0020 	rsb	r0, r0, #32
2ffdbd0a:	4305      	orrs	r5, r0
2ffdbd0c:	07bb      	lsls	r3, r7, #30
2ffdbd0e:	bf58      	it	pl
2ffdbd10:	f445 5554 	orrpl.w	r5, r5, #13568	; 0x3500
2ffdbd14:	ee10 3fd2 	mrc	15, 0, r3, cr0, cr2, {6}
2ffdbd18:	480a      	ldr	r0, [pc, #40]	; (2ffdbd44 <setup_mmu_cfg+0xa8>)
2ffdbd1a:	f413 4f70 	tst.w	r3, #61440	; 0xf000
2ffdbd1e:	bf18      	it	ne
2ffdbd20:	f046 0601 	orrne.w	r6, r6, #1
2ffdbd24:	2300      	movs	r3, #0
2ffdbd26:	2100      	movs	r1, #0
2ffdbd28:	e9c4 0100 	strd	r0, r1, [r4]
2ffdbd2c:	e9c4 5302 	strd	r5, r3, [r4, #8]
2ffdbd30:	e9c4 6304 	strd	r6, r3, [r4, #16]
2ffdbd34:	bdf8      	pop	{r3, r4, r5, r6, r7, pc}
2ffdbd36:	bf00      	nop
2ffdbd38:	2ffe3c88 	.word	0x2ffe3c88
2ffdbd3c:	80800000 	.word	0x80800000
2ffdbd40:	80803500 	.word	0x80803500
2ffdbd44:	004404ff 	.word	0x004404ff

2ffdbd48 <mmap_add_region>:
2ffdbd48:	b57f      	push	{r0, r1, r2, r3, r4, r5, r6, lr}
2ffdbd4a:	e9cd 2302 	strd	r2, r3, [sp, #8]
2ffdbd4e:	9b08      	ldr	r3, [sp, #32]
2ffdbd50:	e9cd 0100 	strd	r0, r1, [sp]
2ffdbd54:	9304      	str	r3, [sp, #16]
2ffdbd56:	4669      	mov	r1, sp
2ffdbd58:	4804      	ldr	r0, [pc, #16]	; (2ffdbd6c <mmap_add_region+0x24>)
2ffdbd5a:	f04f 4380 	mov.w	r3, #1073741824	; 0x40000000
2ffdbd5e:	9305      	str	r3, [sp, #20]
2ffdbd60:	f000 fb0e 	bl	2ffdc380 <mmap_add_region_ctx>
2ffdbd64:	b007      	add	sp, #28
2ffdbd66:	f85d fb04 	ldr.w	pc, [sp], #4
2ffdbd6a:	bf00      	nop
2ffdbd6c:	2ffe6260 	.word	0x2ffe6260

2ffdbd70 <mmap_add>:
2ffdbd70:	4601      	mov	r1, r0
2ffdbd72:	4801      	ldr	r0, [pc, #4]	; (2ffdbd78 <mmap_add+0x8>)
2ffdbd74:	f000 bb7c 	b.w	2ffdc470 <mmap_add_ctx>
2ffdbd78:	2ffe6260 	.word	0x2ffe6260

2ffdbd7c <mmap_add_dynamic_region>:
2ffdbd7c:	b57f      	push	{r0, r1, r2, r3, r4, r5, r6, lr}
2ffdbd7e:	e9cd 2302 	strd	r2, r3, [sp, #8]
2ffdbd82:	9b08      	ldr	r3, [sp, #32]
2ffdbd84:	e9cd 0100 	strd	r0, r1, [sp]
2ffdbd88:	9304      	str	r3, [sp, #16]
2ffdbd8a:	4669      	mov	r1, sp
2ffdbd8c:	4804      	ldr	r0, [pc, #16]	; (2ffdbda0 <mmap_add_dynamic_region+0x24>)
2ffdbd8e:	f04f 4380 	mov.w	r3, #1073741824	; 0x40000000
2ffdbd92:	9305      	str	r3, [sp, #20]
2ffdbd94:	f000 fb78 	bl	2ffdc488 <mmap_add_dynamic_region_ctx>
2ffdbd98:	b007      	add	sp, #28
2ffdbd9a:	f85d fb04 	ldr.w	pc, [sp], #4
2ffdbd9e:	bf00      	nop
2ffdbda0:	2ffe6260 	.word	0x2ffe6260

2ffdbda4 <mmap_remove_dynamic_region>:
2ffdbda4:	460a      	mov	r2, r1
2ffdbda6:	4601      	mov	r1, r0
2ffdbda8:	4801      	ldr	r0, [pc, #4]	; (2ffdbdb0 <mmap_remove_dynamic_region+0xc>)
2ffdbdaa:	f000 bc21 	b.w	2ffdc5f0 <mmap_remove_dynamic_region_ctx>
2ffdbdae:	bf00      	nop
2ffdbdb0:	2ffe6260 	.word	0x2ffe6260

2ffdbdb4 <init_xlat_tables>:
2ffdbdb4:	b510      	push	{r4, lr}
2ffdbdb6:	4c0c      	ldr	r4, [pc, #48]	; (2ffdbde8 <init_xlat_tables+0x34>)
2ffdbdb8:	6c63      	ldr	r3, [r4, #68]	; 0x44
2ffdbdba:	3301      	adds	r3, #1
2ffdbdbc:	d003      	beq.n	2ffdbdc6 <init_xlat_tables+0x12>
2ffdbdbe:	2160      	movs	r1, #96	; 0x60
2ffdbdc0:	480a      	ldr	r0, [pc, #40]	; (2ffdbdec <init_xlat_tables+0x38>)
2ffdbdc2:	f005 fb09 	bl	2ffe13d8 <__assert>
2ffdbdc6:	f7ff ff2b 	bl	2ffdbc20 <xlat_arch_current_el>
2ffdbdca:	2801      	cmp	r0, #1
2ffdbdcc:	d105      	bne.n	2ffdbdda <init_xlat_tables+0x26>
2ffdbdce:	6460      	str	r0, [r4, #68]	; 0x44
2ffdbdd0:	e8bd 4010 	ldmia.w	sp!, {r4, lr}
2ffdbdd4:	4804      	ldr	r0, [pc, #16]	; (2ffdbde8 <init_xlat_tables+0x34>)
2ffdbdd6:	f000 bc91 	b.w	2ffdc6fc <init_xlat_tables_ctx>
2ffdbdda:	2802      	cmp	r0, #2
2ffdbddc:	d0f7      	beq.n	2ffdbdce <init_xlat_tables+0x1a>
2ffdbdde:	2803      	cmp	r0, #3
2ffdbde0:	d0f5      	beq.n	2ffdbdce <init_xlat_tables+0x1a>
2ffdbde2:	2169      	movs	r1, #105	; 0x69
2ffdbde4:	e7ec      	b.n	2ffdbdc0 <init_xlat_tables+0xc>
2ffdbde6:	bf00      	nop
2ffdbde8:	2ffe6260 	.word	0x2ffe6260
2ffdbdec:	2ffe3cb6 	.word	0x2ffe3cb6

2ffdbdf0 <enable_mmu_svc_mon>:
2ffdbdf0:	b51f      	push	{r0, r1, r2, r3, r4, lr}
2ffdbdf2:	2201      	movs	r2, #1
2ffdbdf4:	4b09      	ldr	r3, [pc, #36]	; (2ffdbe1c <enable_mmu_svc_mon+0x2c>)
2ffdbdf6:	4604      	mov	r4, r0
2ffdbdf8:	9203      	str	r2, [sp, #12]
2ffdbdfa:	689a      	ldr	r2, [r3, #8]
2ffdbdfc:	9202      	str	r2, [sp, #8]
2ffdbdfe:	e9d3 0100 	ldrd	r0, r1, [r3]
2ffdbe02:	e9cd 0100 	strd	r0, r1, [sp]
2ffdbe06:	4806      	ldr	r0, [pc, #24]	; (2ffdbe20 <enable_mmu_svc_mon+0x30>)
2ffdbe08:	4621      	mov	r1, r4
2ffdbe0a:	6a5a      	ldr	r2, [r3, #36]	; 0x24
2ffdbe0c:	f7ff ff46 	bl	2ffdbc9c <setup_mmu_cfg>
2ffdbe10:	4620      	mov	r0, r4
2ffdbe12:	b004      	add	sp, #16
2ffdbe14:	e8bd 4010 	ldmia.w	sp!, {r4, lr}
2ffdbe18:	f009 ba6a 	b.w	2ffe52f0 <__enable_mmu_direct_svc_mon_from_thumb>
2ffdbe1c:	2ffe6260 	.word	0x2ffe6260
2ffdbe20:	2ffe81d8 	.word	0x2ffe81d8

2ffdbe24 <mmap_add_region_check>:
2ffdbe24:	e92d 4ff0 	stmdb	sp!, {r4, r5, r6, r7, r8, r9, sl, fp, lr}
2ffdbe28:	2700      	movs	r7, #0
2ffdbe2a:	e9d1 8900 	ldrd	r8, r9, [r1]
2ffdbe2e:	e9d1 2502 	ldrd	r2, r5, [r1, #8]
2ffdbe32:	f3c8 060b 	ubfx	r6, r8, #0, #12
2ffdbe36:	f118 3aff 	adds.w	sl, r8, #4294967295	; 0xffffffff
2ffdbe3a:	f149 3bff 	adc.w	fp, r9, #4294967295	; 0xffffffff
2ffdbe3e:	b089      	sub	sp, #36	; 0x24
2ffdbe40:	eb1a 0a05 	adds.w	sl, sl, r5
2ffdbe44:	f14b 0b00 	adc.w	fp, fp, #0
2ffdbe48:	433e      	orrs	r6, r7
2ffdbe4a:	eb02 0405 	add.w	r4, r2, r5
2ffdbe4e:	694b      	ldr	r3, [r1, #20]
2ffdbe50:	f104 34ff 	add.w	r4, r4, #4294967295	; 0xffffffff
2ffdbe54:	e9cd ab00 	strd	sl, fp, [sp]
2ffdbe58:	f040 8082 	bne.w	2ffdbf60 <mmap_add_region_check+0x13c>
2ffdbe5c:	ea42 0605 	orr.w	r6, r2, r5
2ffdbe60:	f3c6 060b 	ubfx	r6, r6, #0, #12
2ffdbe64:	2e00      	cmp	r6, #0
2ffdbe66:	d17b      	bne.n	2ffdbf60 <mmap_add_region_check+0x13c>
2ffdbe68:	f1b3 4f80 	cmp.w	r3, #1073741824	; 0x40000000
2ffdbe6c:	d005      	beq.n	2ffdbe7a <mmap_add_region_check+0x56>
2ffdbe6e:	f5b3 1f00 	cmp.w	r3, #2097152	; 0x200000
2ffdbe72:	d002      	beq.n	2ffdbe7a <mmap_add_region_check+0x56>
2ffdbe74:	f5b3 5f80 	cmp.w	r3, #4096	; 0x1000
2ffdbe78:	d172      	bne.n	2ffdbf60 <mmap_add_region_check+0x13c>
2ffdbe7a:	e9dd 6700 	ldrd	r6, r7, [sp]
2ffdbe7e:	454f      	cmp	r7, r9
2ffdbe80:	bf08      	it	eq
2ffdbe82:	4546      	cmpeq	r6, r8
2ffdbe84:	d36f      	bcc.n	2ffdbf66 <mmap_add_region_check+0x142>
2ffdbe86:	42a2      	cmp	r2, r4
2ffdbe88:	d86d      	bhi.n	2ffdbf66 <mmap_add_region_check+0x142>
2ffdbe8a:	6883      	ldr	r3, [r0, #8]
2ffdbe8c:	42a3      	cmp	r3, r4
2ffdbe8e:	d36a      	bcc.n	2ffdbf66 <mmap_add_region_check+0x142>
2ffdbe90:	e9d0 6700 	ldrd	r6, r7, [r0]
2ffdbe94:	e9dd ab00 	ldrd	sl, fp, [sp]
2ffdbe98:	455f      	cmp	r7, fp
2ffdbe9a:	bf08      	it	eq
2ffdbe9c:	4556      	cmpeq	r6, sl
2ffdbe9e:	d362      	bcc.n	2ffdbf66 <mmap_add_region_check+0x142>
2ffdbea0:	68c3      	ldr	r3, [r0, #12]
2ffdbea2:	2618      	movs	r6, #24
2ffdbea4:	6900      	ldr	r0, [r0, #16]
2ffdbea6:	fb06 3000 	mla	r0, r6, r0, r3
2ffdbeaa:	f850 0c0c 	ldr.w	r0, [r0, #-12]
2ffdbeae:	2800      	cmp	r0, #0
2ffdbeb0:	d15c      	bne.n	2ffdbf6c <mmap_add_region_check+0x148>
2ffdbeb2:	ebb2 0008 	subs.w	r0, r2, r8
2ffdbeb6:	4433      	add	r3, r6
2ffdbeb8:	9006      	str	r0, [sp, #24]
2ffdbeba:	eb69 0049 	sbc.w	r0, r9, r9, lsl #1
2ffdbebe:	9007      	str	r0, [sp, #28]
2ffdbec0:	f853 0c0c 	ldr.w	r0, [r3, #-12]
2ffdbec4:	b910      	cbnz	r0, 2ffdbecc <mmap_add_region_check+0xa8>
2ffdbec6:	b009      	add	sp, #36	; 0x24
2ffdbec8:	e8bd 8ff0 	ldmia.w	sp!, {r4, r5, r6, r7, r8, r9, sl, fp, pc}
2ffdbecc:	f853 cc10 	ldr.w	ip, [r3, #-16]
2ffdbed0:	4594      	cmp	ip, r2
2ffdbed2:	eb0c 0e00 	add.w	lr, ip, r0
2ffdbed6:	f10e 3eff 	add.w	lr, lr, #4294967295	; 0xffffffff
2ffdbeda:	d820      	bhi.n	2ffdbf1e <mmap_add_region_check+0xfa>
2ffdbedc:	4574      	cmp	r4, lr
2ffdbede:	d920      	bls.n	2ffdbf22 <mmap_add_region_check+0xfe>
2ffdbee0:	4594      	cmp	ip, r2
2ffdbee2:	d01e      	beq.n	2ffdbf22 <mmap_add_region_check+0xfe>
2ffdbee4:	e953 ab06 	ldrd	sl, fp, [r3, #-24]
2ffdbee8:	e9dd 6700 	ldrd	r6, r7, [sp]
2ffdbeec:	455f      	cmp	r7, fp
2ffdbeee:	bf08      	it	eq
2ffdbef0:	4556      	cmpeq	r6, sl
2ffdbef2:	d33e      	bcc.n	2ffdbf72 <mmap_add_region_check+0x14e>
2ffdbef4:	f11a 36ff 	adds.w	r6, sl, #4294967295	; 0xffffffff
2ffdbef8:	9604      	str	r6, [sp, #16]
2ffdbefa:	f14b 36ff 	adc.w	r6, fp, #4294967295	; 0xffffffff
2ffdbefe:	9605      	str	r6, [sp, #20]
2ffdbf00:	e9dd 6704 	ldrd	r6, r7, [sp, #16]
2ffdbf04:	1836      	adds	r6, r6, r0
2ffdbf06:	f147 0700 	adc.w	r7, r7, #0
2ffdbf0a:	45a4      	cmp	ip, r4
2ffdbf0c:	d801      	bhi.n	2ffdbf12 <mmap_add_region_check+0xee>
2ffdbf0e:	4572      	cmp	r2, lr
2ffdbf10:	d923      	bls.n	2ffdbf5a <mmap_add_region_check+0x136>
2ffdbf12:	454f      	cmp	r7, r9
2ffdbf14:	bf08      	it	eq
2ffdbf16:	4546      	cmpeq	r6, r8
2ffdbf18:	d21f      	bcs.n	2ffdbf5a <mmap_add_region_check+0x136>
2ffdbf1a:	3318      	adds	r3, #24
2ffdbf1c:	e7d0      	b.n	2ffdbec0 <mmap_add_region_check+0x9c>
2ffdbf1e:	4574      	cmp	r4, lr
2ffdbf20:	d3e0      	bcc.n	2ffdbee4 <mmap_add_region_check+0xc0>
2ffdbf22:	690e      	ldr	r6, [r1, #16]
2ffdbf24:	2e00      	cmp	r6, #0
2ffdbf26:	db18      	blt.n	2ffdbf5a <mmap_add_region_check+0x136>
2ffdbf28:	f853 6c08 	ldr.w	r6, [r3, #-8]
2ffdbf2c:	2e00      	cmp	r6, #0
2ffdbf2e:	db14      	blt.n	2ffdbf5a <mmap_add_region_check+0x136>
2ffdbf30:	e953 6706 	ldrd	r6, r7, [r3, #-24]
2ffdbf34:	e9dd ab06 	ldrd	sl, fp, [sp, #24]
2ffdbf38:	ebbc 0606 	subs.w	r6, ip, r6
2ffdbf3c:	46e6      	mov	lr, ip
2ffdbf3e:	9602      	str	r6, [sp, #8]
2ffdbf40:	eb67 0647 	sbc.w	r6, r7, r7, lsl #1
2ffdbf44:	9603      	str	r6, [sp, #12]
2ffdbf46:	e9dd 6702 	ldrd	r6, r7, [sp, #8]
2ffdbf4a:	455f      	cmp	r7, fp
2ffdbf4c:	bf08      	it	eq
2ffdbf4e:	4556      	cmpeq	r6, sl
2ffdbf50:	d103      	bne.n	2ffdbf5a <mmap_add_region_check+0x136>
2ffdbf52:	4594      	cmp	ip, r2
2ffdbf54:	d1e1      	bne.n	2ffdbf1a <mmap_add_region_check+0xf6>
2ffdbf56:	42a8      	cmp	r0, r5
2ffdbf58:	d1df      	bne.n	2ffdbf1a <mmap_add_region_check+0xf6>
2ffdbf5a:	f04f 30ff 	mov.w	r0, #4294967295	; 0xffffffff
2ffdbf5e:	e7b2      	b.n	2ffdbec6 <mmap_add_region_check+0xa2>
2ffdbf60:	f06f 0015 	mvn.w	r0, #21
2ffdbf64:	e7af      	b.n	2ffdbec6 <mmap_add_region_check+0xa2>
2ffdbf66:	f06f 0021 	mvn.w	r0, #33	; 0x21
2ffdbf6a:	e7ac      	b.n	2ffdbec6 <mmap_add_region_check+0xa2>
2ffdbf6c:	f06f 000b 	mvn.w	r0, #11
2ffdbf70:	e7a9      	b.n	2ffdbec6 <mmap_add_region_check+0xa2>
2ffdbf72:	45a4      	cmp	ip, r4
2ffdbf74:	d8d1      	bhi.n	2ffdbf1a <mmap_add_region_check+0xf6>
2ffdbf76:	4572      	cmp	r2, lr
2ffdbf78:	d8cf      	bhi.n	2ffdbf1a <mmap_add_region_check+0xf6>
2ffdbf7a:	e7ee      	b.n	2ffdbf5a <mmap_add_region_check+0x136>

2ffdbf7c <xlat_clean_dcache_range>:
2ffdbf7c:	b538      	push	{r3, r4, r5, lr}
2ffdbf7e:	4604      	mov	r4, r0
2ffdbf80:	460d      	mov	r5, r1
2ffdbf82:	f7ff fe0a 	bl	2ffdbb9a <is_dcache_enabled>
2ffdbf86:	b128      	cbz	r0, 2ffdbf94 <xlat_clean_dcache_range+0x18>
2ffdbf88:	4629      	mov	r1, r5
2ffdbf8a:	4620      	mov	r0, r4
2ffdbf8c:	e8bd 4038 	ldmia.w	sp!, {r3, r4, r5, lr}
2ffdbf90:	f009 b9b2 	b.w	2ffe52f8 <__clean_dcache_range_from_thumb>
2ffdbf94:	bd38      	pop	{r3, r4, r5, pc}
	...

2ffdbf98 <xlat_table_get_index>:
2ffdbf98:	4603      	mov	r3, r0
2ffdbf9a:	b510      	push	{r4, lr}
2ffdbf9c:	6984      	ldr	r4, [r0, #24]
2ffdbf9e:	2000      	movs	r0, #0
2ffdbfa0:	4284      	cmp	r4, r0
2ffdbfa2:	dc03      	bgt.n	2ffdbfac <xlat_table_get_index+0x14>
2ffdbfa4:	4805      	ldr	r0, [pc, #20]	; (2ffdbfbc <xlat_table_get_index+0x24>)
2ffdbfa6:	2135      	movs	r1, #53	; 0x35
2ffdbfa8:	f005 fa16 	bl	2ffe13d8 <__assert>
2ffdbfac:	695a      	ldr	r2, [r3, #20]
2ffdbfae:	eb02 3200 	add.w	r2, r2, r0, lsl #12
2ffdbfb2:	4291      	cmp	r1, r2
2ffdbfb4:	d001      	beq.n	2ffdbfba <xlat_table_get_index+0x22>
2ffdbfb6:	3001      	adds	r0, #1
2ffdbfb8:	e7f2      	b.n	2ffdbfa0 <xlat_table_get_index+0x8>
2ffdbfba:	bd10      	pop	{r4, pc}
2ffdbfbc:	2ffe3cdf 	.word	0x2ffe3cdf

2ffdbfc0 <xlat_tables_unmap_region>:
2ffdbfc0:	e92d 4ff0 	stmdb	sp!, {r4, r5, r6, r7, r8, r9, sl, fp, lr}
2ffdbfc4:	b089      	sub	sp, #36	; 0x24
2ffdbfc6:	469a      	mov	sl, r3
2ffdbfc8:	460e      	mov	r6, r1
2ffdbfca:	9f13      	ldr	r7, [sp, #76]	; 0x4c
2ffdbfcc:	4605      	mov	r5, r0
2ffdbfce:	6bc3      	ldr	r3, [r0, #60]	; 0x3c
2ffdbfd0:	4611      	mov	r1, r2
2ffdbfd2:	42bb      	cmp	r3, r7
2ffdbfd4:	d801      	bhi.n	2ffdbfda <xlat_tables_unmap_region+0x1a>
2ffdbfd6:	2f03      	cmp	r7, #3
2ffdbfd8:	d904      	bls.n	2ffdbfe4 <xlat_tables_unmap_region+0x24>
2ffdbfda:	f240 115f 	movw	r1, #351	; 0x15f
2ffdbfde:	484d      	ldr	r0, [pc, #308]	; (2ffdc114 <xlat_tables_unmap_region+0x154>)
2ffdbfe0:	f005 f9fa 	bl	2ffe13d8 <__assert>
2ffdbfe4:	e9d6 2302 	ldrd	r2, r3, [r6, #8]
2ffdbfe8:	f06f 0408 	mvn.w	r4, #8
2ffdbfec:	f04f 0901 	mov.w	r9, #1
2ffdbff0:	4413      	add	r3, r2
2ffdbff2:	437c      	muls	r4, r7
2ffdbff4:	428a      	cmp	r2, r1
2ffdbff6:	f103 33ff 	add.w	r3, r3, #4294967295	; 0xffffffff
2ffdbffa:	9306      	str	r3, [sp, #24]
2ffdbffc:	f104 0327 	add.w	r3, r4, #39	; 0x27
2ffdc000:	bf98      	it	ls
2ffdc002:	460a      	movls	r2, r1
2ffdc004:	fa09 f003 	lsl.w	r0, r9, r3
2ffdc008:	9005      	str	r0, [sp, #20]
2ffdc00a:	bf84      	itt	hi
2ffdc00c:	4240      	neghi	r0, r0
2ffdc00e:	4002      	andhi	r2, r0
2ffdc010:	1a54      	subs	r4, r2, r1
2ffdc012:	40dc      	lsrs	r4, r3
2ffdc014:	eb0a 08c4 	add.w	r8, sl, r4, lsl #3
2ffdc018:	9b12      	ldr	r3, [sp, #72]	; 0x48
2ffdc01a:	429c      	cmp	r4, r3
2ffdc01c:	d26a      	bcs.n	2ffdc0f4 <xlat_tables_unmap_region+0x134>
2ffdc01e:	9b05      	ldr	r3, [sp, #20]
2ffdc020:	eb02 0b03 	add.w	fp, r2, r3
2ffdc024:	f8d8 3000 	ldr.w	r3, [r8]
2ffdc028:	f003 0103 	and.w	r1, r3, #3
2ffdc02c:	9102      	str	r1, [sp, #8]
2ffdc02e:	2100      	movs	r1, #0
2ffdc030:	9103      	str	r1, [sp, #12]
2ffdc032:	e9d6 1002 	ldrd	r1, r0, [r6, #8]
2ffdc036:	428a      	cmp	r2, r1
2ffdc038:	eb01 0c00 	add.w	ip, r1, r0
2ffdc03c:	f10b 30ff 	add.w	r0, fp, #4294967295	; 0xffffffff
2ffdc040:	f10c 3cff 	add.w	ip, ip, #4294967295	; 0xffffffff
2ffdc044:	d317      	bcc.n	2ffdc076 <xlat_tables_unmap_region+0xb6>
2ffdc046:	4584      	cmp	ip, r0
2ffdc048:	d315      	bcc.n	2ffdc076 <xlat_tables_unmap_region+0xb6>
2ffdc04a:	2f03      	cmp	r7, #3
2ffdc04c:	e9dd 0102 	ldrd	r0, r1, [sp, #8]
2ffdc050:	d106      	bne.n	2ffdc060 <xlat_tables_unmap_region+0xa0>
2ffdc052:	2900      	cmp	r1, #0
2ffdc054:	bf08      	it	eq
2ffdc056:	2803      	cmpeq	r0, #3
2ffdc058:	d03e      	beq.n	2ffdc0d8 <xlat_tables_unmap_region+0x118>
2ffdc05a:	f44f 7196 	mov.w	r1, #300	; 0x12c
2ffdc05e:	e7be      	b.n	2ffdbfde <xlat_tables_unmap_region+0x1e>
2ffdc060:	2900      	cmp	r1, #0
2ffdc062:	bf08      	it	eq
2ffdc064:	2803      	cmpeq	r0, #3
2ffdc066:	d01a      	beq.n	2ffdc09e <xlat_tables_unmap_region+0xde>
2ffdc068:	2900      	cmp	r1, #0
2ffdc06a:	bf08      	it	eq
2ffdc06c:	2801      	cmpeq	r0, #1
2ffdc06e:	d033      	beq.n	2ffdc0d8 <xlat_tables_unmap_region+0x118>
2ffdc070:	f240 113b 	movw	r1, #315	; 0x13b
2ffdc074:	e7b3      	b.n	2ffdbfde <xlat_tables_unmap_region+0x1e>
2ffdc076:	4281      	cmp	r1, r0
2ffdc078:	d901      	bls.n	2ffdc07e <xlat_tables_unmap_region+0xbe>
2ffdc07a:	4562      	cmp	r2, ip
2ffdc07c:	d834      	bhi.n	2ffdc0e8 <xlat_tables_unmap_region+0x128>
2ffdc07e:	2f03      	cmp	r7, #3
2ffdc080:	d102      	bne.n	2ffdc088 <xlat_tables_unmap_region+0xc8>
2ffdc082:	f44f 71a5 	mov.w	r1, #330	; 0x14a
2ffdc086:	e7aa      	b.n	2ffdbfde <xlat_tables_unmap_region+0x1e>
2ffdc088:	e9dd 0102 	ldrd	r0, r1, [sp, #8]
2ffdc08c:	2900      	cmp	r1, #0
2ffdc08e:	bf08      	it	eq
2ffdc090:	2803      	cmpeq	r0, #3
2ffdc092:	d004      	beq.n	2ffdc09e <xlat_tables_unmap_region+0xde>
2ffdc094:	f240 114b 	movw	r1, #331	; 0x14b
2ffdc098:	e7a1      	b.n	2ffdbfde <xlat_tables_unmap_region+0x1e>
2ffdc09a:	465a      	mov	r2, fp
2ffdc09c:	e7bc      	b.n	2ffdc018 <xlat_tables_unmap_region+0x58>
2ffdc09e:	f423 697f 	bic.w	r9, r3, #4080	; 0xff0
2ffdc0a2:	1c79      	adds	r1, r7, #1
2ffdc0a4:	f029 090f 	bic.w	r9, r9, #15
2ffdc0a8:	4628      	mov	r0, r5
2ffdc0aa:	9101      	str	r1, [sp, #4]
2ffdc0ac:	f44f 7100 	mov.w	r1, #512	; 0x200
2ffdc0b0:	9100      	str	r1, [sp, #0]
2ffdc0b2:	464b      	mov	r3, r9
2ffdc0b4:	9207      	str	r2, [sp, #28]
2ffdc0b6:	4631      	mov	r1, r6
2ffdc0b8:	f7ff ff82 	bl	2ffdbfc0 <xlat_tables_unmap_region>
2ffdc0bc:	f44f 5180 	mov.w	r1, #4096	; 0x1000
2ffdc0c0:	4648      	mov	r0, r9
2ffdc0c2:	f7ff ff5b 	bl	2ffdbf7c <xlat_clean_dcache_range>
2ffdc0c6:	4649      	mov	r1, r9
2ffdc0c8:	4628      	mov	r0, r5
2ffdc0ca:	f7ff ff65 	bl	2ffdbf98 <xlat_table_get_index>
2ffdc0ce:	69eb      	ldr	r3, [r5, #28]
2ffdc0d0:	9a07      	ldr	r2, [sp, #28]
2ffdc0d2:	f853 3020 	ldr.w	r3, [r3, r0, lsl #2]
2ffdc0d6:	b93b      	cbnz	r3, 2ffdc0e8 <xlat_tables_unmap_region+0x128>
2ffdc0d8:	2000      	movs	r0, #0
2ffdc0da:	2100      	movs	r1, #0
2ffdc0dc:	e9c8 0100 	strd	r0, r1, [r8]
2ffdc0e0:	6c69      	ldr	r1, [r5, #68]	; 0x44
2ffdc0e2:	4610      	mov	r0, r2
2ffdc0e4:	f7ff fd7c 	bl	2ffdbbe0 <xlat_arch_tlbi_va>
2ffdc0e8:	9b06      	ldr	r3, [sp, #24]
2ffdc0ea:	3401      	adds	r4, #1
2ffdc0ec:	f108 0808 	add.w	r8, r8, #8
2ffdc0f0:	459b      	cmp	fp, r3
2ffdc0f2:	d3d2      	bcc.n	2ffdc09a <xlat_tables_unmap_region+0xda>
2ffdc0f4:	6beb      	ldr	r3, [r5, #60]	; 0x3c
2ffdc0f6:	42bb      	cmp	r3, r7
2ffdc0f8:	d209      	bcs.n	2ffdc10e <xlat_tables_unmap_region+0x14e>
2ffdc0fa:	4651      	mov	r1, sl
2ffdc0fc:	4628      	mov	r0, r5
2ffdc0fe:	f7ff ff4b 	bl	2ffdbf98 <xlat_table_get_index>
2ffdc102:	69ea      	ldr	r2, [r5, #28]
2ffdc104:	f852 3020 	ldr.w	r3, [r2, r0, lsl #2]
2ffdc108:	3b01      	subs	r3, #1
2ffdc10a:	f842 3020 	str.w	r3, [r2, r0, lsl #2]
2ffdc10e:	b009      	add	sp, #36	; 0x24
2ffdc110:	e8bd 8ff0 	ldmia.w	sp!, {r4, r5, r6, r7, r8, r9, sl, fp, pc}
2ffdc114:	2ffe3cdf 	.word	0x2ffe3cdf

2ffdc118 <xlat_desc>:
2ffdc118:	b5f8      	push	{r3, r4, r5, r6, r7, lr}
2ffdc11a:	468c      	mov	ip, r1
2ffdc11c:	9c06      	ldr	r4, [sp, #24]
2ffdc11e:	f06f 0108 	mvn.w	r1, #8
2ffdc122:	2700      	movs	r7, #0
2ffdc124:	4361      	muls	r1, r4
2ffdc126:	f101 0527 	add.w	r5, r1, #39	; 0x27
2ffdc12a:	2101      	movs	r1, #1
2ffdc12c:	40a9      	lsls	r1, r5
2ffdc12e:	3901      	subs	r1, #1
2ffdc130:	ea01 0602 	and.w	r6, r1, r2
2ffdc134:	ea56 0107 	orrs.w	r1, r6, r7
2ffdc138:	d003      	beq.n	2ffdc142 <xlat_desc+0x2a>
2ffdc13a:	2172      	movs	r1, #114	; 0x72
2ffdc13c:	4822      	ldr	r0, [pc, #136]	; (2ffdc1c8 <xlat_desc+0xb0>)
2ffdc13e:	f005 f94b 	bl	2ffe13d8 <__assert>
2ffdc142:	6c40      	ldr	r0, [r0, #68]	; 0x44
2ffdc144:	2c03      	cmp	r4, #3
2ffdc146:	ea4f 044c 	mov.w	r4, ip, lsl #1
2ffdc14a:	bf0c      	ite	eq
2ffdc14c:	2103      	moveq	r1, #3
2ffdc14e:	2101      	movne	r1, #1
2ffdc150:	f004 0420 	and.w	r4, r4, #32
2ffdc154:	4314      	orrs	r4, r2
2ffdc156:	f01c 0f08 	tst.w	ip, #8
2ffdc15a:	ea44 0401 	orr.w	r4, r4, r1
2ffdc15e:	bf08      	it	eq
2ffdc160:	2680      	moveq	r6, #128	; 0x80
2ffdc162:	ea44 0406 	orr.w	r4, r4, r6
2ffdc166:	bf08      	it	eq
2ffdc168:	2700      	moveq	r7, #0
2ffdc16a:	ea43 0507 	orr.w	r5, r3, r7
2ffdc16e:	2801      	cmp	r0, #1
2ffdc170:	d10f      	bne.n	2ffdc192 <xlat_desc+0x7a>
2ffdc172:	f01c 0f40 	tst.w	ip, #64	; 0x40
2ffdc176:	d111      	bne.n	2ffdc19c <xlat_desc+0x84>
2ffdc178:	f444 6480 	orr.w	r4, r4, #1024	; 0x400
2ffdc17c:	f01c 0607 	ands.w	r6, ip, #7
2ffdc180:	4629      	mov	r1, r5
2ffdc182:	d10e      	bne.n	2ffdc1a2 <xlat_desc+0x8a>
2ffdc184:	f7ff fd18 	bl	2ffdbbb8 <xlat_arch_regime_get_xn_desc>
2ffdc188:	4304      	orrs	r4, r0
2ffdc18a:	4329      	orrs	r1, r5
2ffdc18c:	f444 7001 	orr.w	r0, r4, #516	; 0x204
2ffdc190:	bdf8      	pop	{r3, r4, r5, r6, r7, pc}
2ffdc192:	1e83      	subs	r3, r0, #2
2ffdc194:	2b01      	cmp	r3, #1
2ffdc196:	d901      	bls.n	2ffdc19c <xlat_desc+0x84>
2ffdc198:	2194      	movs	r1, #148	; 0x94
2ffdc19a:	e7cf      	b.n	2ffdc13c <xlat_desc+0x24>
2ffdc19c:	f444 6488 	orr.w	r4, r4, #1088	; 0x440
2ffdc1a0:	e7ec      	b.n	2ffdc17c <xlat_desc+0x64>
2ffdc1a2:	f01c 0f28 	tst.w	ip, #40	; 0x28
2ffdc1a6:	d003      	beq.n	2ffdc1b0 <xlat_desc+0x98>
2ffdc1a8:	f7ff fd06 	bl	2ffdbbb8 <xlat_arch_regime_get_xn_desc>
2ffdc1ac:	4304      	orrs	r4, r0
2ffdc1ae:	4329      	orrs	r1, r5
2ffdc1b0:	2e02      	cmp	r6, #2
2ffdc1b2:	d102      	bne.n	2ffdc1ba <xlat_desc+0xa2>
2ffdc1b4:	f444 7040 	orr.w	r0, r4, #768	; 0x300
2ffdc1b8:	e7ea      	b.n	2ffdc190 <xlat_desc+0x78>
2ffdc1ba:	2e01      	cmp	r6, #1
2ffdc1bc:	d001      	beq.n	2ffdc1c2 <xlat_desc+0xaa>
2ffdc1be:	21d4      	movs	r1, #212	; 0xd4
2ffdc1c0:	e7bc      	b.n	2ffdc13c <xlat_desc+0x24>
2ffdc1c2:	f444 7002 	orr.w	r0, r4, #520	; 0x208
2ffdc1c6:	e7e3      	b.n	2ffdc190 <xlat_desc+0x78>
2ffdc1c8:	2ffe3cdf 	.word	0x2ffe3cdf

2ffdc1cc <xlat_tables_map_region>:
2ffdc1cc:	e92d 4ff0 	stmdb	sp!, {r4, r5, r6, r7, r8, r9, sl, fp, lr}
2ffdc1d0:	b08b      	sub	sp, #44	; 0x2c
2ffdc1d2:	460f      	mov	r7, r1
2ffdc1d4:	4606      	mov	r6, r0
2ffdc1d6:	f8dd 8054 	ldr.w	r8, [sp, #84]	; 0x54
2ffdc1da:	461d      	mov	r5, r3
2ffdc1dc:	6bc1      	ldr	r1, [r0, #60]	; 0x3c
2ffdc1de:	4541      	cmp	r1, r8
2ffdc1e0:	d802      	bhi.n	2ffdc1e8 <xlat_tables_map_region+0x1c>
2ffdc1e2:	f1b8 0f03 	cmp.w	r8, #3
2ffdc1e6:	d904      	bls.n	2ffdc1f2 <xlat_tables_map_region+0x26>
2ffdc1e8:	f44f 710d 	mov.w	r1, #564	; 0x234
2ffdc1ec:	4863      	ldr	r0, [pc, #396]	; (2ffdc37c <xlat_tables_map_region+0x1b0>)
2ffdc1ee:	f005 f8f3 	bl	2ffe13d8 <__assert>
2ffdc1f2:	e9d7 0302 	ldrd	r0, r3, [r7, #8]
2ffdc1f6:	f04f 0b01 	mov.w	fp, #1
2ffdc1fa:	4403      	add	r3, r0
2ffdc1fc:	4290      	cmp	r0, r2
2ffdc1fe:	f103 33ff 	add.w	r3, r3, #4294967295	; 0xffffffff
2ffdc202:	9307      	str	r3, [sp, #28]
2ffdc204:	f06f 0308 	mvn.w	r3, #8
2ffdc208:	fb03 f308 	mul.w	r3, r3, r8
2ffdc20c:	bf98      	it	ls
2ffdc20e:	4614      	movls	r4, r2
2ffdc210:	f103 0327 	add.w	r3, r3, #39	; 0x27
2ffdc214:	9303      	str	r3, [sp, #12]
2ffdc216:	fa0b fb03 	lsl.w	fp, fp, r3
2ffdc21a:	bf88      	it	hi
2ffdc21c:	f1cb 0400 	rsbhi	r4, fp, #0
2ffdc220:	9b03      	ldr	r3, [sp, #12]
2ffdc222:	bf88      	it	hi
2ffdc224:	4004      	andhi	r4, r0
2ffdc226:	1aa2      	subs	r2, r4, r2
2ffdc228:	4541      	cmp	r1, r8
2ffdc22a:	fa22 fa03 	lsr.w	sl, r2, r3
2ffdc22e:	d209      	bcs.n	2ffdc244 <xlat_tables_map_region+0x78>
2ffdc230:	4629      	mov	r1, r5
2ffdc232:	4630      	mov	r0, r6
2ffdc234:	f7ff feb0 	bl	2ffdbf98 <xlat_table_get_index>
2ffdc238:	69f2      	ldr	r2, [r6, #28]
2ffdc23a:	f852 3020 	ldr.w	r3, [r2, r0, lsl #2]
2ffdc23e:	3301      	adds	r3, #1
2ffdc240:	f842 3020 	str.w	r3, [r2, r0, lsl #2]
2ffdc244:	eb05 05ca 	add.w	r5, r5, sl, lsl #3
2ffdc248:	f10b 33ff 	add.w	r3, fp, #4294967295	; 0xffffffff
2ffdc24c:	9308      	str	r3, [sp, #32]
2ffdc24e:	f108 0301 	add.w	r3, r8, #1
2ffdc252:	9306      	str	r3, [sp, #24]
2ffdc254:	e055      	b.n	2ffdc302 <xlat_tables_map_region+0x136>
2ffdc256:	f8d7 c008 	ldr.w	ip, [r7, #8]
2ffdc25a:	68fb      	ldr	r3, [r7, #12]
2ffdc25c:	6828      	ldr	r0, [r5, #0]
2ffdc25e:	45a4      	cmp	ip, r4
2ffdc260:	4463      	add	r3, ip
2ffdc262:	f000 0103 	and.w	r1, r0, #3
2ffdc266:	eb04 090b 	add.w	r9, r4, fp
2ffdc26a:	f103 33ff 	add.w	r3, r3, #4294967295	; 0xffffffff
2ffdc26e:	f109 32ff 	add.w	r2, r9, #4294967295	; 0xffffffff
2ffdc272:	d850      	bhi.n	2ffdc316 <xlat_tables_map_region+0x14a>
2ffdc274:	4293      	cmp	r3, r2
2ffdc276:	d34e      	bcc.n	2ffdc316 <xlat_tables_map_region+0x14a>
2ffdc278:	e9d7 2300 	ldrd	r2, r3, [r7]
2ffdc27c:	ebb2 020c 	subs.w	r2, r2, ip
2ffdc280:	f163 0300 	sbc.w	r3, r3, #0
2ffdc284:	1912      	adds	r2, r2, r4
2ffdc286:	f143 0300 	adc.w	r3, r3, #0
2ffdc28a:	f1b8 0f03 	cmp.w	r8, #3
2ffdc28e:	d105      	bne.n	2ffdc29c <xlat_tables_map_region+0xd0>
2ffdc290:	2903      	cmp	r1, #3
2ffdc292:	d02f      	beq.n	2ffdc2f4 <xlat_tables_map_region+0x128>
2ffdc294:	b331      	cbz	r1, 2ffdc2e4 <xlat_tables_map_region+0x118>
2ffdc296:	f240 11cb 	movw	r1, #459	; 0x1cb
2ffdc29a:	e7a7      	b.n	2ffdc1ec <xlat_tables_map_region+0x20>
2ffdc29c:	2903      	cmp	r1, #3
2ffdc29e:	d068      	beq.n	2ffdc372 <xlat_tables_map_region+0x1a6>
2ffdc2a0:	2900      	cmp	r1, #0
2ffdc2a2:	d133      	bne.n	2ffdc30c <xlat_tables_map_region+0x140>
2ffdc2a4:	9808      	ldr	r0, [sp, #32]
2ffdc2a6:	4010      	ands	r0, r2
2ffdc2a8:	e9cd 0104 	strd	r0, r1, [sp, #16]
2ffdc2ac:	e9dd 0104 	ldrd	r0, r1, [sp, #16]
2ffdc2b0:	4301      	orrs	r1, r0
2ffdc2b2:	d010      	beq.n	2ffdc2d6 <xlat_tables_map_region+0x10a>
2ffdc2b4:	69b1      	ldr	r1, [r6, #24]
2ffdc2b6:	2300      	movs	r3, #0
2ffdc2b8:	428b      	cmp	r3, r1
2ffdc2ba:	da08      	bge.n	2ffdc2ce <xlat_tables_map_region+0x102>
2ffdc2bc:	69f2      	ldr	r2, [r6, #28]
2ffdc2be:	f852 2023 	ldr.w	r2, [r2, r3, lsl #2]
2ffdc2c2:	2a00      	cmp	r2, #0
2ffdc2c4:	d138      	bne.n	2ffdc338 <xlat_tables_map_region+0x16c>
2ffdc2c6:	6971      	ldr	r1, [r6, #20]
2ffdc2c8:	eb11 3303 	adds.w	r3, r1, r3, lsl #12
2ffdc2cc:	d136      	bne.n	2ffdc33c <xlat_tables_map_region+0x170>
2ffdc2ce:	4620      	mov	r0, r4
2ffdc2d0:	b00b      	add	sp, #44	; 0x2c
2ffdc2d2:	e8bd 8ff0 	ldmia.w	sp!, {r4, r5, r6, r7, r8, r9, sl, fp, pc}
2ffdc2d6:	f1b8 0f00 	cmp.w	r8, #0
2ffdc2da:	d0eb      	beq.n	2ffdc2b4 <xlat_tables_map_region+0xe8>
2ffdc2dc:	6979      	ldr	r1, [r7, #20]
2ffdc2de:	9803      	ldr	r0, [sp, #12]
2ffdc2e0:	40c1      	lsrs	r1, r0
2ffdc2e2:	d0e7      	beq.n	2ffdc2b4 <xlat_tables_map_region+0xe8>
2ffdc2e4:	6939      	ldr	r1, [r7, #16]
2ffdc2e6:	4630      	mov	r0, r6
2ffdc2e8:	f8cd 8000 	str.w	r8, [sp]
2ffdc2ec:	f7ff ff14 	bl	2ffdc118 <xlat_desc>
2ffdc2f0:	e9c5 0100 	strd	r0, r1, [r5]
2ffdc2f4:	9b07      	ldr	r3, [sp, #28]
2ffdc2f6:	f10a 0a01 	add.w	sl, sl, #1
2ffdc2fa:	3508      	adds	r5, #8
2ffdc2fc:	464c      	mov	r4, r9
2ffdc2fe:	454b      	cmp	r3, r9
2ffdc300:	d902      	bls.n	2ffdc308 <xlat_tables_map_region+0x13c>
2ffdc302:	9b14      	ldr	r3, [sp, #80]	; 0x50
2ffdc304:	459a      	cmp	sl, r3
2ffdc306:	d3a6      	bcc.n	2ffdc256 <xlat_tables_map_region+0x8a>
2ffdc308:	3c01      	subs	r4, #1
2ffdc30a:	e7e0      	b.n	2ffdc2ce <xlat_tables_map_region+0x102>
2ffdc30c:	2901      	cmp	r1, #1
2ffdc30e:	d0f1      	beq.n	2ffdc2f4 <xlat_tables_map_region+0x128>
2ffdc310:	f44f 71f9 	mov.w	r1, #498	; 0x1f2
2ffdc314:	e76a      	b.n	2ffdc1ec <xlat_tables_map_region+0x20>
2ffdc316:	4594      	cmp	ip, r2
2ffdc318:	d901      	bls.n	2ffdc31e <xlat_tables_map_region+0x152>
2ffdc31a:	429c      	cmp	r4, r3
2ffdc31c:	d8ea      	bhi.n	2ffdc2f4 <xlat_tables_map_region+0x128>
2ffdc31e:	f1b8 0f03 	cmp.w	r8, #3
2ffdc322:	d102      	bne.n	2ffdc32a <xlat_tables_map_region+0x15e>
2ffdc324:	f240 2107 	movw	r1, #519	; 0x207
2ffdc328:	e760      	b.n	2ffdc1ec <xlat_tables_map_region+0x20>
2ffdc32a:	2900      	cmp	r1, #0
2ffdc32c:	d0c2      	beq.n	2ffdc2b4 <xlat_tables_map_region+0xe8>
2ffdc32e:	2903      	cmp	r1, #3
2ffdc330:	d01f      	beq.n	2ffdc372 <xlat_tables_map_region+0x1a6>
2ffdc332:	f240 2112 	movw	r1, #530	; 0x212
2ffdc336:	e759      	b.n	2ffdc1ec <xlat_tables_map_region+0x20>
2ffdc338:	3301      	adds	r3, #1
2ffdc33a:	e7bd      	b.n	2ffdc2b8 <xlat_tables_map_region+0xec>
2ffdc33c:	f043 0103 	orr.w	r1, r3, #3
2ffdc340:	e9c5 1200 	strd	r1, r2, [r5]
2ffdc344:	9a06      	ldr	r2, [sp, #24]
2ffdc346:	4639      	mov	r1, r7
2ffdc348:	9309      	str	r3, [sp, #36]	; 0x24
2ffdc34a:	4630      	mov	r0, r6
2ffdc34c:	9201      	str	r2, [sp, #4]
2ffdc34e:	f44f 7200 	mov.w	r2, #512	; 0x200
2ffdc352:	9200      	str	r2, [sp, #0]
2ffdc354:	4622      	mov	r2, r4
2ffdc356:	f7ff ff39 	bl	2ffdc1cc <xlat_tables_map_region>
2ffdc35a:	9b09      	ldr	r3, [sp, #36]	; 0x24
2ffdc35c:	4604      	mov	r4, r0
2ffdc35e:	f44f 5180 	mov.w	r1, #4096	; 0x1000
2ffdc362:	4618      	mov	r0, r3
2ffdc364:	f7ff fe0a 	bl	2ffdbf7c <xlat_clean_dcache_range>
2ffdc368:	f109 33ff 	add.w	r3, r9, #4294967295	; 0xffffffff
2ffdc36c:	429c      	cmp	r4, r3
2ffdc36e:	d0c1      	beq.n	2ffdc2f4 <xlat_tables_map_region+0x128>
2ffdc370:	e7ad      	b.n	2ffdc2ce <xlat_tables_map_region+0x102>
2ffdc372:	f420 637f 	bic.w	r3, r0, #4080	; 0xff0
2ffdc376:	f023 030f 	bic.w	r3, r3, #15
2ffdc37a:	e7e3      	b.n	2ffdc344 <xlat_tables_map_region+0x178>
2ffdc37c:	2ffe3cdf 	.word	0x2ffe3cdf

2ffdc380 <mmap_add_region_ctx>:
2ffdc380:	e92d 4ff7 	stmdb	sp!, {r0, r1, r2, r4, r5, r6, r7, r8, r9, sl, fp, lr}
2ffdc384:	4606      	mov	r6, r0
2ffdc386:	f8d1 a00c 	ldr.w	sl, [r1, #12]
2ffdc38a:	460d      	mov	r5, r1
2ffdc38c:	f1ba 0f00 	cmp.w	sl, #0
2ffdc390:	d057      	beq.n	2ffdc442 <mmap_add_region_ctx+0xc2>
2ffdc392:	f890 3040 	ldrb.w	r3, [r0, #64]	; 0x40
2ffdc396:	b123      	cbz	r3, 2ffdc3a2 <mmap_add_region_ctx+0x22>
2ffdc398:	f240 3107 	movw	r1, #775	; 0x307
2ffdc39c:	4832      	ldr	r0, [pc, #200]	; (2ffdc468 <mmap_add_region_ctx+0xe8>)
2ffdc39e:	f005 f81b 	bl	2ffe13d8 <__assert>
2ffdc3a2:	f7ff fd3f 	bl	2ffdbe24 <mmap_add_region_check>
2ffdc3a6:	4601      	mov	r1, r0
2ffdc3a8:	b9e8      	cbnz	r0, 2ffdc3e6 <mmap_add_region_ctx+0x66>
2ffdc3aa:	68a9      	ldr	r1, [r5, #8]
2ffdc3ac:	68f2      	ldr	r2, [r6, #12]
2ffdc3ae:	4451      	add	r1, sl
2ffdc3b0:	1e4f      	subs	r7, r1, #1
2ffdc3b2:	4614      	mov	r4, r2
2ffdc3b4:	e9d4 3002 	ldrd	r3, r0, [r4, #8]
2ffdc3b8:	4403      	add	r3, r0
2ffdc3ba:	3b01      	subs	r3, #1
2ffdc3bc:	42bb      	cmp	r3, r7
2ffdc3be:	d200      	bcs.n	2ffdc3c2 <mmap_add_region_ctx+0x42>
2ffdc3c0:	b9b8      	cbnz	r0, 2ffdc3f2 <mmap_add_region_ctx+0x72>
2ffdc3c2:	e9d4 3002 	ldrd	r3, r0, [r4, #8]
2ffdc3c6:	4403      	add	r3, r0
2ffdc3c8:	4299      	cmp	r1, r3
2ffdc3ca:	d014      	beq.n	2ffdc3f6 <mmap_add_region_ctx+0x76>
2ffdc3cc:	6933      	ldr	r3, [r6, #16]
2ffdc3ce:	f04f 0818 	mov.w	r8, #24
2ffdc3d2:	fb08 2803 	mla	r8, r8, r3, r2
2ffdc3d6:	68d3      	ldr	r3, [r2, #12]
2ffdc3d8:	2b00      	cmp	r3, #0
2ffdc3da:	d035      	beq.n	2ffdc448 <mmap_add_region_ctx+0xc8>
2ffdc3dc:	4542      	cmp	r2, r8
2ffdc3de:	d310      	bcc.n	2ffdc402 <mmap_add_region_ctx+0x82>
2ffdc3e0:	f240 313f 	movw	r1, #831	; 0x33f
2ffdc3e4:	e7da      	b.n	2ffdc39c <mmap_add_region_ctx+0x1c>
2ffdc3e6:	4821      	ldr	r0, [pc, #132]	; (2ffdc46c <mmap_add_region_ctx+0xec>)
2ffdc3e8:	f7fe fef4 	bl	2ffdb1d4 <tf_log>
2ffdc3ec:	f44f 7143 	mov.w	r1, #780	; 0x30c
2ffdc3f0:	e7d4      	b.n	2ffdc39c <mmap_add_region_ctx+0x1c>
2ffdc3f2:	3418      	adds	r4, #24
2ffdc3f4:	e7de      	b.n	2ffdc3b4 <mmap_add_region_ctx+0x34>
2ffdc3f6:	2800      	cmp	r0, #0
2ffdc3f8:	d0e8      	beq.n	2ffdc3cc <mmap_add_region_ctx+0x4c>
2ffdc3fa:	4582      	cmp	sl, r0
2ffdc3fc:	d9e6      	bls.n	2ffdc3cc <mmap_add_region_ctx+0x4c>
2ffdc3fe:	3418      	adds	r4, #24
2ffdc400:	e7df      	b.n	2ffdc3c2 <mmap_add_region_ctx+0x42>
2ffdc402:	3218      	adds	r2, #24
2ffdc404:	e7e7      	b.n	2ffdc3d6 <mmap_add_region_ctx+0x56>
2ffdc406:	f119 33ff 	adds.w	r3, r9, #4294967295	; 0xffffffff
2ffdc40a:	9300      	str	r3, [sp, #0]
2ffdc40c:	f14b 33ff 	adc.w	r3, fp, #4294967295	; 0xffffffff
2ffdc410:	9301      	str	r3, [sp, #4]
2ffdc412:	cd0f      	ldmia	r5!, {r0, r1, r2, r3}
2ffdc414:	e9dd 8900 	ldrd	r8, r9, [sp]
2ffdc418:	c40f      	stmia	r4!, {r0, r1, r2, r3}
2ffdc41a:	eb18 080a 	adds.w	r8, r8, sl
2ffdc41e:	e9d6 230c 	ldrd	r2, r3, [r6, #48]	; 0x30
2ffdc422:	f149 0900 	adc.w	r9, r9, #0
2ffdc426:	454b      	cmp	r3, r9
2ffdc428:	e895 0003 	ldmia.w	r5, {r0, r1}
2ffdc42c:	bf08      	it	eq
2ffdc42e:	4542      	cmpeq	r2, r8
2ffdc430:	e884 0003 	stmia.w	r4, {r0, r1}
2ffdc434:	d201      	bcs.n	2ffdc43a <mmap_add_region_ctx+0xba>
2ffdc436:	e9c6 890c 	strd	r8, r9, [r6, #48]	; 0x30
2ffdc43a:	6bb3      	ldr	r3, [r6, #56]	; 0x38
2ffdc43c:	42bb      	cmp	r3, r7
2ffdc43e:	d200      	bcs.n	2ffdc442 <mmap_add_region_ctx+0xc2>
2ffdc440:	63b7      	str	r7, [r6, #56]	; 0x38
2ffdc442:	b003      	add	sp, #12
2ffdc444:	e8bd 8ff0 	ldmia.w	sp!, {r4, r5, r6, r7, r8, r9, sl, fp, pc}
2ffdc448:	1b12      	subs	r2, r2, r4
2ffdc44a:	4621      	mov	r1, r4
2ffdc44c:	f104 0018 	add.w	r0, r4, #24
2ffdc450:	e9d5 9b00 	ldrd	r9, fp, [r5]
2ffdc454:	f004 fff3 	bl	2ffe143e <memmove>
2ffdc458:	f8d8 300c 	ldr.w	r3, [r8, #12]
2ffdc45c:	2b00      	cmp	r3, #0
2ffdc45e:	d0d2      	beq.n	2ffdc406 <mmap_add_region_ctx+0x86>
2ffdc460:	f240 314b 	movw	r1, #843	; 0x34b
2ffdc464:	e79a      	b.n	2ffdc39c <mmap_add_region_ctx+0x1c>
2ffdc466:	bf00      	nop
2ffdc468:	2ffe3cdf 	.word	0x2ffe3cdf
2ffdc46c:	2ffe3d05 	.word	0x2ffe3d05

2ffdc470 <mmap_add_ctx>:
2ffdc470:	b538      	push	{r3, r4, r5, lr}
2ffdc472:	4605      	mov	r5, r0
2ffdc474:	460c      	mov	r4, r1
2ffdc476:	6963      	ldr	r3, [r4, #20]
2ffdc478:	b903      	cbnz	r3, 2ffdc47c <mmap_add_ctx+0xc>
2ffdc47a:	bd38      	pop	{r3, r4, r5, pc}
2ffdc47c:	4621      	mov	r1, r4
2ffdc47e:	4628      	mov	r0, r5
2ffdc480:	3418      	adds	r4, #24
2ffdc482:	f7ff ff7d 	bl	2ffdc380 <mmap_add_region_ctx>
2ffdc486:	e7f6      	b.n	2ffdc476 <mmap_add_ctx+0x6>

2ffdc488 <mmap_add_dynamic_region_ctx>:
2ffdc488:	e92d 4ff0 	stmdb	sp!, {r4, r5, r6, r7, r8, r9, sl, fp, lr}
2ffdc48c:	b08f      	sub	sp, #60	; 0x3c
2ffdc48e:	68cb      	ldr	r3, [r1, #12]
2ffdc490:	4604      	mov	r4, r0
2ffdc492:	460d      	mov	r5, r1
2ffdc494:	9303      	str	r3, [sp, #12]
2ffdc496:	b92b      	cbnz	r3, 2ffdc4a4 <mmap_add_dynamic_region_ctx+0x1c>
2ffdc498:	f04f 0a00 	mov.w	sl, #0
2ffdc49c:	4650      	mov	r0, sl
2ffdc49e:	b00f      	add	sp, #60	; 0x3c
2ffdc4a0:	e8bd 8ff0 	ldmia.w	sp!, {r4, r5, r6, r7, r8, r9, sl, fp, pc}
2ffdc4a4:	680b      	ldr	r3, [r1, #0]
2ffdc4a6:	f8d0 b00c 	ldr.w	fp, [r0, #12]
2ffdc4aa:	9306      	str	r3, [sp, #24]
2ffdc4ac:	684b      	ldr	r3, [r1, #4]
2ffdc4ae:	f8d0 9010 	ldr.w	r9, [r0, #16]
2ffdc4b2:	9307      	str	r3, [sp, #28]
2ffdc4b4:	690b      	ldr	r3, [r1, #16]
2ffdc4b6:	688e      	ldr	r6, [r1, #8]
2ffdc4b8:	f043 4300 	orr.w	r3, r3, #2147483648	; 0x80000000
2ffdc4bc:	610b      	str	r3, [r1, #16]
2ffdc4be:	f7ff fcb1 	bl	2ffdbe24 <mmap_add_region_check>
2ffdc4c2:	4682      	mov	sl, r0
2ffdc4c4:	2800      	cmp	r0, #0
2ffdc4c6:	d1e9      	bne.n	2ffdc49c <mmap_add_dynamic_region_ctx+0x14>
2ffdc4c8:	9b03      	ldr	r3, [sp, #12]
2ffdc4ca:	1999      	adds	r1, r3, r6
2ffdc4cc:	465b      	mov	r3, fp
2ffdc4ce:	1e4e      	subs	r6, r1, #1
2ffdc4d0:	e9d3 2002 	ldrd	r2, r0, [r3, #8]
2ffdc4d4:	4698      	mov	r8, r3
2ffdc4d6:	3318      	adds	r3, #24
2ffdc4d8:	4402      	add	r2, r0
2ffdc4da:	3a01      	subs	r2, #1
2ffdc4dc:	42b2      	cmp	r2, r6
2ffdc4de:	d201      	bcs.n	2ffdc4e4 <mmap_add_dynamic_region_ctx+0x5c>
2ffdc4e0:	2800      	cmp	r0, #0
2ffdc4e2:	d1f5      	bne.n	2ffdc4d0 <mmap_add_dynamic_region_ctx+0x48>
2ffdc4e4:	e9d8 3202 	ldrd	r3, r2, [r8, #8]
2ffdc4e8:	4647      	mov	r7, r8
2ffdc4ea:	f108 0818 	add.w	r8, r8, #24
2ffdc4ee:	4413      	add	r3, r2
2ffdc4f0:	4299      	cmp	r1, r3
2ffdc4f2:	d103      	bne.n	2ffdc4fc <mmap_add_dynamic_region_ctx+0x74>
2ffdc4f4:	b112      	cbz	r2, 2ffdc4fc <mmap_add_dynamic_region_ctx+0x74>
2ffdc4f6:	9b03      	ldr	r3, [sp, #12]
2ffdc4f8:	4293      	cmp	r3, r2
2ffdc4fa:	d8f3      	bhi.n	2ffdc4e4 <mmap_add_dynamic_region_ctx+0x5c>
2ffdc4fc:	2318      	movs	r3, #24
2ffdc4fe:	4639      	mov	r1, r7
2ffdc500:	fb03 b909 	mla	r9, r3, r9, fp
2ffdc504:	4640      	mov	r0, r8
2ffdc506:	eba9 0b07 	sub.w	fp, r9, r7
2ffdc50a:	465a      	mov	r2, fp
2ffdc50c:	f004 ff97 	bl	2ffe143e <memmove>
2ffdc510:	f8d9 900c 	ldr.w	r9, [r9, #12]
2ffdc514:	f1b9 0f00 	cmp.w	r9, #0
2ffdc518:	d004      	beq.n	2ffdc524 <mmap_add_dynamic_region_ctx+0x9c>
2ffdc51a:	4834      	ldr	r0, [pc, #208]	; (2ffdc5ec <mmap_add_dynamic_region_ctx+0x164>)
2ffdc51c:	f240 31d6 	movw	r1, #982	; 0x3d6
2ffdc520:	f004 ff5a 	bl	2ffe13d8 <__assert>
2ffdc524:	46ae      	mov	lr, r5
2ffdc526:	46bc      	mov	ip, r7
2ffdc528:	e8be 000f 	ldmia.w	lr!, {r0, r1, r2, r3}
2ffdc52c:	e8ac 000f 	stmia.w	ip!, {r0, r1, r2, r3}
2ffdc530:	f894 3040 	ldrb.w	r3, [r4, #64]	; 0x40
2ffdc534:	e89e 0003 	ldmia.w	lr, {r0, r1}
2ffdc538:	e88c 0003 	stmia.w	ip, {r0, r1}
2ffdc53c:	2b00      	cmp	r3, #0
2ffdc53e:	d039      	beq.n	2ffdc5b4 <mmap_add_dynamic_region_ctx+0x12c>
2ffdc540:	6be3      	ldr	r3, [r4, #60]	; 0x3c
2ffdc542:	464a      	mov	r2, r9
2ffdc544:	4639      	mov	r1, r7
2ffdc546:	4620      	mov	r0, r4
2ffdc548:	9301      	str	r3, [sp, #4]
2ffdc54a:	6aa3      	ldr	r3, [r4, #40]	; 0x28
2ffdc54c:	9300      	str	r3, [sp, #0]
2ffdc54e:	6a63      	ldr	r3, [r4, #36]	; 0x24
2ffdc550:	f7ff fe3c 	bl	2ffdc1cc <xlat_tables_map_region>
2ffdc554:	6aa1      	ldr	r1, [r4, #40]	; 0x28
2ffdc556:	4606      	mov	r6, r0
2ffdc558:	6a60      	ldr	r0, [r4, #36]	; 0x24
2ffdc55a:	00c9      	lsls	r1, r1, #3
2ffdc55c:	f7ff fd0e 	bl	2ffdbf7c <xlat_clean_dcache_range>
2ffdc560:	e9d7 3202 	ldrd	r3, r2, [r7, #8]
2ffdc564:	4413      	add	r3, r2
2ffdc566:	3b01      	subs	r3, #1
2ffdc568:	42b3      	cmp	r3, r6
2ffdc56a:	d021      	beq.n	2ffdc5b0 <mmap_add_dynamic_region_ctx+0x128>
2ffdc56c:	465a      	mov	r2, fp
2ffdc56e:	4641      	mov	r1, r8
2ffdc570:	4638      	mov	r0, r7
2ffdc572:	f004 ff64 	bl	2ffe143e <memmove>
2ffdc576:	68ad      	ldr	r5, [r5, #8]
2ffdc578:	42b5      	cmp	r5, r6
2ffdc57a:	d216      	bcs.n	2ffdc5aa <mmap_add_dynamic_region_ctx+0x122>
2ffdc57c:	1b76      	subs	r6, r6, r5
2ffdc57e:	2218      	movs	r2, #24
2ffdc580:	4649      	mov	r1, r9
2ffdc582:	a808      	add	r0, sp, #32
2ffdc584:	f004 ff71 	bl	2ffe146a <memset>
2ffdc588:	6be3      	ldr	r3, [r4, #60]	; 0x3c
2ffdc58a:	a908      	add	r1, sp, #32
2ffdc58c:	950a      	str	r5, [sp, #40]	; 0x28
2ffdc58e:	4620      	mov	r0, r4
2ffdc590:	9301      	str	r3, [sp, #4]
2ffdc592:	464a      	mov	r2, r9
2ffdc594:	6aa3      	ldr	r3, [r4, #40]	; 0x28
2ffdc596:	960b      	str	r6, [sp, #44]	; 0x2c
2ffdc598:	9300      	str	r3, [sp, #0]
2ffdc59a:	6a63      	ldr	r3, [r4, #36]	; 0x24
2ffdc59c:	f7ff fd10 	bl	2ffdbfc0 <xlat_tables_unmap_region>
2ffdc5a0:	6aa1      	ldr	r1, [r4, #40]	; 0x28
2ffdc5a2:	6a60      	ldr	r0, [r4, #36]	; 0x24
2ffdc5a4:	00c9      	lsls	r1, r1, #3
2ffdc5a6:	f7ff fce9 	bl	2ffdbf7c <xlat_clean_dcache_range>
2ffdc5aa:	f06f 0a0b 	mvn.w	sl, #11
2ffdc5ae:	e775      	b.n	2ffdc49c <mmap_add_dynamic_region_ctx+0x14>
2ffdc5b0:	f3bf 8f4a 	dsb	ishst
2ffdc5b4:	9b06      	ldr	r3, [sp, #24]
2ffdc5b6:	f113 33ff 	adds.w	r3, r3, #4294967295	; 0xffffffff
2ffdc5ba:	9304      	str	r3, [sp, #16]
2ffdc5bc:	9b07      	ldr	r3, [sp, #28]
2ffdc5be:	f143 33ff 	adc.w	r3, r3, #4294967295	; 0xffffffff
2ffdc5c2:	9305      	str	r3, [sp, #20]
2ffdc5c4:	e9dd 0104 	ldrd	r0, r1, [sp, #16]
2ffdc5c8:	9b03      	ldr	r3, [sp, #12]
2ffdc5ca:	18c0      	adds	r0, r0, r3
2ffdc5cc:	e9d4 230c 	ldrd	r2, r3, [r4, #48]	; 0x30
2ffdc5d0:	f141 0100 	adc.w	r1, r1, #0
2ffdc5d4:	428b      	cmp	r3, r1
2ffdc5d6:	bf08      	it	eq
2ffdc5d8:	4282      	cmpeq	r2, r0
2ffdc5da:	d201      	bcs.n	2ffdc5e0 <mmap_add_dynamic_region_ctx+0x158>
2ffdc5dc:	e9c4 010c 	strd	r0, r1, [r4, #48]	; 0x30
2ffdc5e0:	6ba3      	ldr	r3, [r4, #56]	; 0x38
2ffdc5e2:	42b3      	cmp	r3, r6
2ffdc5e4:	f4bf af58 	bcs.w	2ffdc498 <mmap_add_dynamic_region_ctx+0x10>
2ffdc5e8:	63a6      	str	r6, [r4, #56]	; 0x38
2ffdc5ea:	e757      	b.n	2ffdc49c <mmap_add_dynamic_region_ctx+0x14>
2ffdc5ec:	2ffe3cdf 	.word	0x2ffe3cdf

2ffdc5f0 <mmap_remove_dynamic_region_ctx>:
2ffdc5f0:	e92d 4ff0 	stmdb	sp!, {r4, r5, r6, r7, r8, r9, sl, fp, lr}
2ffdc5f4:	2318      	movs	r3, #24
2ffdc5f6:	68c5      	ldr	r5, [r0, #12]
2ffdc5f8:	b087      	sub	sp, #28
2ffdc5fa:	6907      	ldr	r7, [r0, #16]
2ffdc5fc:	4604      	mov	r4, r0
2ffdc5fe:	fb03 5707 	mla	r7, r3, r7, r5
2ffdc602:	68fb      	ldr	r3, [r7, #12]
2ffdc604:	b153      	cbz	r3, 2ffdc61c <mmap_remove_dynamic_region_ctx+0x2c>
2ffdc606:	483c      	ldr	r0, [pc, #240]	; (2ffdc6f8 <mmap_remove_dynamic_region_ctx+0x108>)
2ffdc608:	f240 413a 	movw	r1, #1082	; 0x43a
2ffdc60c:	f004 fee4 	bl	2ffe13d8 <__assert>
2ffdc610:	68a8      	ldr	r0, [r5, #8]
2ffdc612:	4288      	cmp	r0, r1
2ffdc614:	d101      	bne.n	2ffdc61a <mmap_remove_dynamic_region_ctx+0x2a>
2ffdc616:	4293      	cmp	r3, r2
2ffdc618:	d068      	beq.n	2ffdc6ec <mmap_remove_dynamic_region_ctx+0xfc>
2ffdc61a:	3518      	adds	r5, #24
2ffdc61c:	68eb      	ldr	r3, [r5, #12]
2ffdc61e:	2b00      	cmp	r3, #0
2ffdc620:	d1f6      	bne.n	2ffdc610 <mmap_remove_dynamic_region_ctx+0x20>
2ffdc622:	f06f 0015 	mvn.w	r0, #21
2ffdc626:	b007      	add	sp, #28
2ffdc628:	e8bd 8ff0 	ldmia.w	sp!, {r4, r5, r6, r7, r8, r9, sl, fp, pc}
2ffdc62c:	6ba3      	ldr	r3, [r4, #56]	; 0x38
2ffdc62e:	3901      	subs	r1, #1
2ffdc630:	188e      	adds	r6, r1, r2
2ffdc632:	e9d5 0100 	ldrd	r0, r1, [r5]
2ffdc636:	9303      	str	r3, [sp, #12]
2ffdc638:	1880      	adds	r0, r0, r2
2ffdc63a:	e9d4 230c 	ldrd	r2, r3, [r4, #48]	; 0x30
2ffdc63e:	f141 0100 	adc.w	r1, r1, #0
2ffdc642:	f110 3aff 	adds.w	sl, r0, #4294967295	; 0xffffffff
2ffdc646:	e9cd 2304 	strd	r2, r3, [sp, #16]
2ffdc64a:	f894 3040 	ldrb.w	r3, [r4, #64]	; 0x40
2ffdc64e:	f141 3bff 	adc.w	fp, r1, #4294967295	; 0xffffffff
2ffdc652:	b183      	cbz	r3, 2ffdc676 <mmap_remove_dynamic_region_ctx+0x86>
2ffdc654:	6be3      	ldr	r3, [r4, #60]	; 0x3c
2ffdc656:	2200      	movs	r2, #0
2ffdc658:	4629      	mov	r1, r5
2ffdc65a:	4620      	mov	r0, r4
2ffdc65c:	9301      	str	r3, [sp, #4]
2ffdc65e:	6aa3      	ldr	r3, [r4, #40]	; 0x28
2ffdc660:	9300      	str	r3, [sp, #0]
2ffdc662:	6a63      	ldr	r3, [r4, #36]	; 0x24
2ffdc664:	f7ff fcac 	bl	2ffdbfc0 <xlat_tables_unmap_region>
2ffdc668:	6aa1      	ldr	r1, [r4, #40]	; 0x28
2ffdc66a:	6a60      	ldr	r0, [r4, #36]	; 0x24
2ffdc66c:	00c9      	lsls	r1, r1, #3
2ffdc66e:	f7ff fc85 	bl	2ffdbf7c <xlat_clean_dcache_range>
2ffdc672:	f7ff facd 	bl	2ffdbc10 <xlat_arch_tlbi_va_sync>
2ffdc676:	1b7a      	subs	r2, r7, r5
2ffdc678:	f105 0118 	add.w	r1, r5, #24
2ffdc67c:	4628      	mov	r0, r5
2ffdc67e:	f004 fede 	bl	2ffe143e <memmove>
2ffdc682:	9b03      	ldr	r3, [sp, #12]
2ffdc684:	429e      	cmp	r6, r3
2ffdc686:	d00f      	beq.n	2ffdc6a8 <mmap_remove_dynamic_region_ctx+0xb8>
2ffdc688:	e9dd 2304 	ldrd	r2, r3, [sp, #16]
2ffdc68c:	459b      	cmp	fp, r3
2ffdc68e:	bf08      	it	eq
2ffdc690:	4592      	cmpeq	sl, r2
2ffdc692:	d107      	bne.n	2ffdc6a4 <mmap_remove_dynamic_region_ctx+0xb4>
2ffdc694:	68e1      	ldr	r1, [r4, #12]
2ffdc696:	2200      	movs	r2, #0
2ffdc698:	2300      	movs	r3, #0
2ffdc69a:	e9c4 230c 	strd	r2, r3, [r4, #48]	; 0x30
2ffdc69e:	68ca      	ldr	r2, [r1, #12]
2ffdc6a0:	3118      	adds	r1, #24
2ffdc6a2:	b982      	cbnz	r2, 2ffdc6c6 <mmap_remove_dynamic_region_ctx+0xd6>
2ffdc6a4:	2000      	movs	r0, #0
2ffdc6a6:	e7be      	b.n	2ffdc626 <mmap_remove_dynamic_region_ctx+0x36>
2ffdc6a8:	68e2      	ldr	r2, [r4, #12]
2ffdc6aa:	2300      	movs	r3, #0
2ffdc6ac:	63a3      	str	r3, [r4, #56]	; 0x38
2ffdc6ae:	68d3      	ldr	r3, [r2, #12]
2ffdc6b0:	2b00      	cmp	r3, #0
2ffdc6b2:	d0e9      	beq.n	2ffdc688 <mmap_remove_dynamic_region_ctx+0x98>
2ffdc6b4:	6891      	ldr	r1, [r2, #8]
2ffdc6b6:	3218      	adds	r2, #24
2ffdc6b8:	440b      	add	r3, r1
2ffdc6ba:	6ba1      	ldr	r1, [r4, #56]	; 0x38
2ffdc6bc:	3b01      	subs	r3, #1
2ffdc6be:	428b      	cmp	r3, r1
2ffdc6c0:	bf88      	it	hi
2ffdc6c2:	63a3      	strhi	r3, [r4, #56]	; 0x38
2ffdc6c4:	e7f3      	b.n	2ffdc6ae <mmap_remove_dynamic_region_ctx+0xbe>
2ffdc6c6:	e951 3006 	ldrd	r3, r0, [r1, #-24]
2ffdc6ca:	f113 38ff 	adds.w	r8, r3, #4294967295	; 0xffffffff
2ffdc6ce:	f140 39ff 	adc.w	r9, r0, #4294967295	; 0xffffffff
2ffdc6d2:	eb18 0602 	adds.w	r6, r8, r2
2ffdc6d6:	e9d4 230c 	ldrd	r2, r3, [r4, #48]	; 0x30
2ffdc6da:	f149 0700 	adc.w	r7, r9, #0
2ffdc6de:	42bb      	cmp	r3, r7
2ffdc6e0:	bf08      	it	eq
2ffdc6e2:	42b2      	cmpeq	r2, r6
2ffdc6e4:	d2db      	bcs.n	2ffdc69e <mmap_remove_dynamic_region_ctx+0xae>
2ffdc6e6:	e9c4 670c 	strd	r6, r7, [r4, #48]	; 0x30
2ffdc6ea:	e7d8      	b.n	2ffdc69e <mmap_remove_dynamic_region_ctx+0xae>
2ffdc6ec:	692b      	ldr	r3, [r5, #16]
2ffdc6ee:	2b00      	cmp	r3, #0
2ffdc6f0:	db9c      	blt.n	2ffdc62c <mmap_remove_dynamic_region_ctx+0x3c>
2ffdc6f2:	f04f 30ff 	mov.w	r0, #4294967295	; 0xffffffff
2ffdc6f6:	e796      	b.n	2ffdc626 <mmap_remove_dynamic_region_ctx+0x36>
2ffdc6f8:	2ffe3cdf 	.word	0x2ffe3cdf

2ffdc6fc <init_xlat_tables_ctx>:
2ffdc6fc:	b5f7      	push	{r0, r1, r2, r4, r5, r6, r7, lr}
2ffdc6fe:	4604      	mov	r4, r0
2ffdc700:	b920      	cbnz	r0, 2ffdc70c <init_xlat_tables_ctx+0x10>
2ffdc702:	f240 4199 	movw	r1, #1177	; 0x499
2ffdc706:	484f      	ldr	r0, [pc, #316]	; (2ffdc844 <init_xlat_tables_ctx+0x148>)
2ffdc708:	f004 fe66 	bl	2ffe13d8 <__assert>
2ffdc70c:	f890 3040 	ldrb.w	r3, [r0, #64]	; 0x40
2ffdc710:	b113      	cbz	r3, 2ffdc718 <init_xlat_tables_ctx+0x1c>
2ffdc712:	f240 419a 	movw	r1, #1178	; 0x49a
2ffdc716:	e7f6      	b.n	2ffdc706 <init_xlat_tables_ctx+0xa>
2ffdc718:	6c43      	ldr	r3, [r0, #68]	; 0x44
2ffdc71a:	3b01      	subs	r3, #1
2ffdc71c:	2b02      	cmp	r3, #2
2ffdc71e:	d902      	bls.n	2ffdc726 <init_xlat_tables_ctx+0x2a>
2ffdc720:	f240 419b 	movw	r1, #1179	; 0x49b
2ffdc724:	e7ef      	b.n	2ffdc706 <init_xlat_tables_ctx+0xa>
2ffdc726:	f7ff fa99 	bl	2ffdbc5c <is_mmu_enabled_ctx>
2ffdc72a:	b110      	cbz	r0, 2ffdc732 <init_xlat_tables_ctx+0x36>
2ffdc72c:	f240 419e 	movw	r1, #1182	; 0x49e
2ffdc730:	e7e9      	b.n	2ffdc706 <init_xlat_tables_ctx+0xa>
2ffdc732:	e9d4 6502 	ldrd	r6, r5, [r4, #8]
2ffdc736:	f7ff fa2d 	bl	2ffdbb94 <xlat_get_min_virt_addr_space_size>
2ffdc73a:	3801      	subs	r0, #1
2ffdc73c:	4286      	cmp	r6, r0
2ffdc73e:	d202      	bcs.n	2ffdc746 <init_xlat_tables_ctx+0x4a>
2ffdc740:	f240 41a2 	movw	r1, #1186	; 0x4a2
2ffdc744:	e7df      	b.n	2ffdc706 <init_xlat_tables_ctx+0xa>
2ffdc746:	68a3      	ldr	r3, [r4, #8]
2ffdc748:	1c5e      	adds	r6, r3, #1
2ffdc74a:	401e      	ands	r6, r3
2ffdc74c:	d002      	beq.n	2ffdc754 <init_xlat_tables_ctx+0x58>
2ffdc74e:	f240 41a5 	movw	r1, #1189	; 0x4a5
2ffdc752:	e7d8      	b.n	2ffdc706 <init_xlat_tables_ctx+0xa>
2ffdc754:	4628      	mov	r0, r5
2ffdc756:	f000 f87b 	bl	2ffdc850 <xlat_mmap_print>
2ffdc75a:	483b      	ldr	r0, [pc, #236]	; (2ffdc848 <init_xlat_tables_ctx+0x14c>)
2ffdc75c:	f44f 41a0 	mov.w	r1, #20480	; 0x5000
2ffdc760:	f7f9 ee60 	blx	2ffd6424 <inv_dcache_range>
2ffdc764:	6aa2      	ldr	r2, [r4, #40]	; 0x28
2ffdc766:	2000      	movs	r0, #0
2ffdc768:	2100      	movs	r1, #0
2ffdc76a:	42b2      	cmp	r2, r6
2ffdc76c:	d113      	bne.n	2ffdc796 <init_xlat_tables_ctx+0x9a>
2ffdc76e:	2300      	movs	r3, #0
2ffdc770:	2000      	movs	r0, #0
2ffdc772:	461f      	mov	r7, r3
2ffdc774:	2100      	movs	r1, #0
2ffdc776:	69a2      	ldr	r2, [r4, #24]
2ffdc778:	429a      	cmp	r2, r3
2ffdc77a:	dc13      	bgt.n	2ffdc7a4 <init_xlat_tables_ctx+0xa8>
2ffdc77c:	68eb      	ldr	r3, [r5, #12]
2ffdc77e:	bb0b      	cbnz	r3, 2ffdc7c4 <init_xlat_tables_ctx+0xc8>
2ffdc780:	e9d4 6700 	ldrd	r6, r7, [r4]
2ffdc784:	f7ff fa02 	bl	2ffdbb8c <xlat_arch_get_max_supported_pa>
2ffdc788:	42b9      	cmp	r1, r7
2ffdc78a:	bf08      	it	eq
2ffdc78c:	42b0      	cmpeq	r0, r6
2ffdc78e:	d23d      	bcs.n	2ffdc80c <init_xlat_tables_ctx+0x110>
2ffdc790:	f240 41cd 	movw	r1, #1229	; 0x4cd
2ffdc794:	e7b7      	b.n	2ffdc706 <init_xlat_tables_ctx+0xa>
2ffdc796:	6a63      	ldr	r3, [r4, #36]	; 0x24
2ffdc798:	eb03 03c6 	add.w	r3, r3, r6, lsl #3
2ffdc79c:	3601      	adds	r6, #1
2ffdc79e:	e9c3 0100 	strd	r0, r1, [r3]
2ffdc7a2:	e7e2      	b.n	2ffdc76a <init_xlat_tables_ctx+0x6e>
2ffdc7a4:	69e2      	ldr	r2, [r4, #28]
2ffdc7a6:	f842 7023 	str.w	r7, [r2, r3, lsl #2]
2ffdc7aa:	6962      	ldr	r2, [r4, #20]
2ffdc7ac:	eb02 3203 	add.w	r2, r2, r3, lsl #12
2ffdc7b0:	f1a2 0608 	sub.w	r6, r2, #8
2ffdc7b4:	f602 72f8 	addw	r2, r2, #4088	; 0xff8
2ffdc7b8:	e9e6 0102 	strd	r0, r1, [r6, #8]!
2ffdc7bc:	42b2      	cmp	r2, r6
2ffdc7be:	d1fb      	bne.n	2ffdc7b8 <init_xlat_tables_ctx+0xbc>
2ffdc7c0:	3301      	adds	r3, #1
2ffdc7c2:	e7d8      	b.n	2ffdc776 <init_xlat_tables_ctx+0x7a>
2ffdc7c4:	6be3      	ldr	r3, [r4, #60]	; 0x3c
2ffdc7c6:	2200      	movs	r2, #0
2ffdc7c8:	4629      	mov	r1, r5
2ffdc7ca:	4620      	mov	r0, r4
2ffdc7cc:	9301      	str	r3, [sp, #4]
2ffdc7ce:	6aa3      	ldr	r3, [r4, #40]	; 0x28
2ffdc7d0:	9300      	str	r3, [sp, #0]
2ffdc7d2:	6a63      	ldr	r3, [r4, #36]	; 0x24
2ffdc7d4:	f7ff fcfa 	bl	2ffdc1cc <xlat_tables_map_region>
2ffdc7d8:	6aa1      	ldr	r1, [r4, #40]	; 0x28
2ffdc7da:	4606      	mov	r6, r0
2ffdc7dc:	6a60      	ldr	r0, [r4, #36]	; 0x24
2ffdc7de:	00c9      	lsls	r1, r1, #3
2ffdc7e0:	f7ff fbcc 	bl	2ffdbf7c <xlat_clean_dcache_range>
2ffdc7e4:	e9d5 1202 	ldrd	r1, r2, [r5, #8]
2ffdc7e8:	188b      	adds	r3, r1, r2
2ffdc7ea:	3b01      	subs	r3, #1
2ffdc7ec:	42b3      	cmp	r3, r6
2ffdc7ee:	d00b      	beq.n	2ffdc808 <init_xlat_tables_ctx+0x10c>
2ffdc7f0:	692b      	ldr	r3, [r5, #16]
2ffdc7f2:	4816      	ldr	r0, [pc, #88]	; (2ffdc84c <init_xlat_tables_ctx+0x150>)
2ffdc7f4:	e9cd 2300 	strd	r2, r3, [sp]
2ffdc7f8:	e9d5 2300 	ldrd	r2, r3, [r5]
2ffdc7fc:	f7fe fcea 	bl	2ffdb1d4 <tf_log>
2ffdc800:	f7fe fd86 	bl	2ffdb310 <console_flush>
2ffdc804:	f7f9 ed2c 	blx	2ffd6260 <do_panic>
2ffdc808:	3518      	adds	r5, #24
2ffdc80a:	e7b7      	b.n	2ffdc77c <init_xlat_tables_ctx+0x80>
2ffdc80c:	6ba2      	ldr	r2, [r4, #56]	; 0x38
2ffdc80e:	68a3      	ldr	r3, [r4, #8]
2ffdc810:	429a      	cmp	r2, r3
2ffdc812:	d902      	bls.n	2ffdc81a <init_xlat_tables_ctx+0x11e>
2ffdc814:	f240 41ce 	movw	r1, #1230	; 0x4ce
2ffdc818:	e775      	b.n	2ffdc706 <init_xlat_tables_ctx+0xa>
2ffdc81a:	e9d4 230c 	ldrd	r2, r3, [r4, #48]	; 0x30
2ffdc81e:	e9d4 0100 	ldrd	r0, r1, [r4]
2ffdc822:	4299      	cmp	r1, r3
2ffdc824:	bf08      	it	eq
2ffdc826:	4290      	cmpeq	r0, r2
2ffdc828:	d202      	bcs.n	2ffdc830 <init_xlat_tables_ctx+0x134>
2ffdc82a:	f240 41cf 	movw	r1, #1231	; 0x4cf
2ffdc82e:	e76a      	b.n	2ffdc706 <init_xlat_tables_ctx+0xa>
2ffdc830:	2301      	movs	r3, #1
2ffdc832:	4620      	mov	r0, r4
2ffdc834:	f884 3040 	strb.w	r3, [r4, #64]	; 0x40
2ffdc838:	b003      	add	sp, #12
2ffdc83a:	e8bd 40f0 	ldmia.w	sp!, {r4, r5, r6, r7, lr}
2ffdc83e:	f000 b808 	b.w	2ffdc852 <xlat_tables_print>
2ffdc842:	bf00      	nop
2ffdc844:	2ffe3cdf 	.word	0x2ffe3cdf
2ffdc848:	2ffd1000 	.word	0x2ffd1000
2ffdc84c:	2ffe3d30 	.word	0x2ffe3d30

2ffdc850 <xlat_mmap_print>:
2ffdc850:	4770      	bx	lr

2ffdc852 <xlat_tables_print>:
2ffdc852:	4770      	bx	lr

2ffdc854 <tzc400_set_action>:
2ffdc854:	b508      	push	{r3, lr}
2ffdc856:	4b06      	ldr	r3, [pc, #24]	; (2ffdc870 <tzc400_set_action+0x1c>)
2ffdc858:	681b      	ldr	r3, [r3, #0]
2ffdc85a:	b91b      	cbnz	r3, 2ffdc864 <tzc400_set_action+0x10>
2ffdc85c:	2194      	movs	r1, #148	; 0x94
2ffdc85e:	4805      	ldr	r0, [pc, #20]	; (2ffdc874 <tzc400_set_action+0x20>)
2ffdc860:	f004 fdba 	bl	2ffe13d8 <__assert>
2ffdc864:	2803      	cmp	r0, #3
2ffdc866:	d901      	bls.n	2ffdc86c <tzc400_set_action+0x18>
2ffdc868:	2195      	movs	r1, #149	; 0x95
2ffdc86a:	e7f8      	b.n	2ffdc85e <tzc400_set_action+0xa>
2ffdc86c:	6058      	str	r0, [r3, #4]
2ffdc86e:	bd08      	pop	{r3, pc}
2ffdc870:	2ffe7e94 	.word	0x2ffe7e94
2ffdc874:	2ffe3d7f 	.word	0x2ffe3d7f

2ffdc878 <tzc400_init>:
2ffdc878:	b508      	push	{r3, lr}
2ffdc87a:	b918      	cbnz	r0, 2ffdc884 <tzc400_init+0xc>
2ffdc87c:	4812      	ldr	r0, [pc, #72]	; (2ffdc8c8 <tzc400_init+0x50>)
2ffdc87e:	21a6      	movs	r1, #166	; 0xa6
2ffdc880:	f004 fdaa 	bl	2ffe13d8 <__assert>
2ffdc884:	f8d0 3fe0 	ldr.w	r3, [r0, #4064]	; 0xfe0
2ffdc888:	f8d0 1fe4 	ldr.w	r1, [r0, #4068]	; 0xfe4
2ffdc88c:	4a0f      	ldr	r2, [pc, #60]	; (2ffdc8cc <tzc400_init+0x54>)
2ffdc88e:	0209      	lsls	r1, r1, #8
2ffdc890:	6010      	str	r0, [r2, #0]
2ffdc892:	f401 6170 	and.w	r1, r1, #3840	; 0xf00
2ffdc896:	4319      	orrs	r1, r3
2ffdc898:	f5b1 6f8c 	cmp.w	r1, #1120	; 0x460
2ffdc89c:	d006      	beq.n	2ffdc8ac <tzc400_init+0x34>
2ffdc89e:	480c      	ldr	r0, [pc, #48]	; (2ffdc8d0 <tzc400_init+0x58>)
2ffdc8a0:	f7fe fc98 	bl	2ffdb1d4 <tf_log>
2ffdc8a4:	f7fe fd34 	bl	2ffdb310 <console_flush>
2ffdc8a8:	f7f9 ecda 	blx	2ffd6260 <do_panic>
2ffdc8ac:	6803      	ldr	r3, [r0, #0]
2ffdc8ae:	f3c3 6101 	ubfx	r1, r3, #24, #2
2ffdc8b2:	3101      	adds	r1, #1
2ffdc8b4:	7151      	strb	r1, [r2, #5]
2ffdc8b6:	f3c3 2105 	ubfx	r1, r3, #8, #6
2ffdc8ba:	f003 031f 	and.w	r3, r3, #31
2ffdc8be:	3101      	adds	r1, #1
2ffdc8c0:	3301      	adds	r3, #1
2ffdc8c2:	7111      	strb	r1, [r2, #4]
2ffdc8c4:	7193      	strb	r3, [r2, #6]
2ffdc8c6:	bd08      	pop	{r3, pc}
2ffdc8c8:	2ffe3d7f 	.word	0x2ffe3d7f
2ffdc8cc:	2ffe7e94 	.word	0x2ffe7e94
2ffdc8d0:	2ffe3d98 	.word	0x2ffe3d98

2ffdc8d4 <tzc400_configure_region>:
2ffdc8d4:	e92d 4ff8 	stmdb	sp!, {r3, r4, r5, r6, r7, r8, r9, sl, fp, lr}
2ffdc8d8:	4690      	mov	r8, r2
2ffdc8da:	4a2b      	ldr	r2, [pc, #172]	; (2ffdc988 <tzc400_configure_region+0xb4>)
2ffdc8dc:	4699      	mov	r9, r3
2ffdc8de:	e9dd 450a 	ldrd	r4, r5, [sp, #40]	; 0x28
2ffdc8e2:	6813      	ldr	r3, [r2, #0]
2ffdc8e4:	b91b      	cbnz	r3, 2ffdc8ee <tzc400_configure_region+0x1a>
2ffdc8e6:	21d9      	movs	r1, #217	; 0xd9
2ffdc8e8:	4828      	ldr	r0, [pc, #160]	; (2ffdc98c <tzc400_configure_region+0xb8>)
2ffdc8ea:	f004 fd75 	bl	2ffe13d8 <__assert>
2ffdc8ee:	f892 c005 	ldrb.w	ip, [r2, #5]
2ffdc8f2:	fa30 fc0c 	lsrs.w	ip, r0, ip
2ffdc8f6:	d102      	bne.n	2ffdc8fe <tzc400_configure_region+0x2a>
2ffdc8f8:	7996      	ldrb	r6, [r2, #6]
2ffdc8fa:	428e      	cmp	r6, r1
2ffdc8fc:	d801      	bhi.n	2ffdc902 <tzc400_configure_region+0x2e>
2ffdc8fe:	21dc      	movs	r1, #220	; 0xdc
2ffdc900:	e7f2      	b.n	2ffdc8e8 <tzc400_configure_region+0x14>
2ffdc902:	7912      	ldrb	r2, [r2, #4]
2ffdc904:	f04f 3eff 	mov.w	lr, #4294967295	; 0xffffffff
2ffdc908:	f1c2 0b40 	rsb	fp, r2, #64	; 0x40
2ffdc90c:	f1a2 0a20 	sub.w	sl, r2, #32
2ffdc910:	f1c2 0220 	rsb	r2, r2, #32
2ffdc914:	fa2e f60b 	lsr.w	r6, lr, fp
2ffdc918:	fa0e fa0a 	lsl.w	sl, lr, sl
2ffdc91c:	ea46 060a 	orr.w	r6, r6, sl
2ffdc920:	fa2e f202 	lsr.w	r2, lr, r2
2ffdc924:	fa2e f70b 	lsr.w	r7, lr, fp
2ffdc928:	4316      	orrs	r6, r2
2ffdc92a:	42af      	cmp	r7, r5
2ffdc92c:	bf08      	it	eq
2ffdc92e:	42a6      	cmpeq	r6, r4
2ffdc930:	d303      	bcc.n	2ffdc93a <tzc400_configure_region+0x66>
2ffdc932:	45a9      	cmp	r9, r5
2ffdc934:	bf08      	it	eq
2ffdc936:	45a0      	cmpeq	r8, r4
2ffdc938:	d301      	bcc.n	2ffdc93e <tzc400_configure_region+0x6a>
2ffdc93a:	21e3      	movs	r1, #227	; 0xe3
2ffdc93c:	e7d4      	b.n	2ffdc8e8 <tzc400_configure_region+0x14>
2ffdc93e:	1c62      	adds	r2, r4, #1
2ffdc940:	4667      	mov	r7, ip
2ffdc942:	ea42 0208 	orr.w	r2, r2, r8
2ffdc946:	f3c2 060b 	ubfx	r6, r2, #0, #12
2ffdc94a:	ea56 0207 	orrs.w	r2, r6, r7
2ffdc94e:	d001      	beq.n	2ffdc954 <tzc400_configure_region+0x80>
2ffdc950:	21e7      	movs	r1, #231	; 0xe7
2ffdc952:	e7c9      	b.n	2ffdc8e8 <tzc400_configure_region+0x14>
2ffdc954:	9a0c      	ldr	r2, [sp, #48]	; 0x30
2ffdc956:	2a03      	cmp	r2, #3
2ffdc958:	d901      	bls.n	2ffdc95e <tzc400_configure_region+0x8a>
2ffdc95a:	21e9      	movs	r1, #233	; 0xe9
2ffdc95c:	e7c4      	b.n	2ffdc8e8 <tzc400_configure_region+0x14>
2ffdc95e:	eb03 1141 	add.w	r1, r3, r1, lsl #5
2ffdc962:	9b0c      	ldr	r3, [sp, #48]	; 0x30
2ffdc964:	f8c1 8100 	str.w	r8, [r1, #256]	; 0x100
2ffdc968:	ea40 7083 	orr.w	r0, r0, r3, lsl #30
2ffdc96c:	9b0d      	ldr	r3, [sp, #52]	; 0x34
2ffdc96e:	f8c1 9104 	str.w	r9, [r1, #260]	; 0x104
2ffdc972:	f8c1 4108 	str.w	r4, [r1, #264]	; 0x108
2ffdc976:	f8c1 510c 	str.w	r5, [r1, #268]	; 0x10c
2ffdc97a:	f8c1 0110 	str.w	r0, [r1, #272]	; 0x110
2ffdc97e:	f8c1 3114 	str.w	r3, [r1, #276]	; 0x114
2ffdc982:	e8bd 8ff8 	ldmia.w	sp!, {r3, r4, r5, r6, r7, r8, r9, sl, fp, pc}
2ffdc986:	bf00      	nop
2ffdc988:	2ffe7e94 	.word	0x2ffe7e94
2ffdc98c:	2ffe3d7f 	.word	0x2ffe3d7f

2ffdc990 <tzc400_enable_filters>:
2ffdc990:	4a16      	ldr	r2, [pc, #88]	; (2ffdc9ec <tzc400_enable_filters+0x5c>)
2ffdc992:	b570      	push	{r4, r5, r6, lr}
2ffdc994:	6813      	ldr	r3, [r2, #0]
2ffdc996:	b12b      	cbz	r3, 2ffdc9a4 <tzc400_enable_filters+0x14>
2ffdc998:	7954      	ldrb	r4, [r2, #5]
2ffdc99a:	2100      	movs	r1, #0
2ffdc99c:	2501      	movs	r5, #1
2ffdc99e:	428c      	cmp	r4, r1
2ffdc9a0:	d804      	bhi.n	2ffdc9ac <tzc400_enable_filters+0x1c>
2ffdc9a2:	bd70      	pop	{r4, r5, r6, pc}
2ffdc9a4:	4812      	ldr	r0, [pc, #72]	; (2ffdc9f0 <tzc400_enable_filters+0x60>)
2ffdc9a6:	21f4      	movs	r1, #244	; 0xf4
2ffdc9a8:	f004 fd16 	bl	2ffe13d8 <__assert>
2ffdc9ac:	689a      	ldr	r2, [r3, #8]
2ffdc9ae:	f103 0608 	add.w	r6, r3, #8
2ffdc9b2:	f3c2 4203 	ubfx	r2, r2, #16, #4
2ffdc9b6:	40ca      	lsrs	r2, r1
2ffdc9b8:	07d2      	lsls	r2, r2, #31
2ffdc9ba:	d506      	bpl.n	2ffdc9ca <tzc400_enable_filters+0x3a>
2ffdc9bc:	480d      	ldr	r0, [pc, #52]	; (2ffdc9f4 <tzc400_enable_filters+0x64>)
2ffdc9be:	f7fe fc09 	bl	2ffdb1d4 <tf_log>
2ffdc9c2:	f7fe fca5 	bl	2ffdb310 <console_flush>
2ffdc9c6:	f7f9 ec4c 	blx	2ffd6260 <do_panic>
2ffdc9ca:	6898      	ldr	r0, [r3, #8]
2ffdc9cc:	fa05 f201 	lsl.w	r2, r5, r1
2ffdc9d0:	f3c0 4003 	ubfx	r0, r0, #16, #4
2ffdc9d4:	4302      	orrs	r2, r0
2ffdc9d6:	f002 000f 	and.w	r0, r2, #15
2ffdc9da:	6098      	str	r0, [r3, #8]
2ffdc9dc:	6830      	ldr	r0, [r6, #0]
2ffdc9de:	f3c0 4003 	ubfx	r0, r0, #16, #4
2ffdc9e2:	4282      	cmp	r2, r0
2ffdc9e4:	d1fa      	bne.n	2ffdc9dc <tzc400_enable_filters+0x4c>
2ffdc9e6:	3101      	adds	r1, #1
2ffdc9e8:	e7d9      	b.n	2ffdc99e <tzc400_enable_filters+0xe>
2ffdc9ea:	bf00      	nop
2ffdc9ec:	2ffe7e94 	.word	0x2ffe7e94
2ffdc9f0:	2ffe3d7f 	.word	0x2ffe3d7f
2ffdc9f4:	2ffe3dbc 	.word	0x2ffe3dbc

2ffdc9f8 <tzc400_disable_filters>:
2ffdc9f8:	4b10      	ldr	r3, [pc, #64]	; (2ffdca3c <tzc400_disable_filters+0x44>)
2ffdc9fa:	b570      	push	{r4, r5, r6, lr}
2ffdc9fc:	6818      	ldr	r0, [r3, #0]
2ffdc9fe:	b128      	cbz	r0, 2ffdca0c <tzc400_disable_filters+0x14>
2ffdca00:	795c      	ldrb	r4, [r3, #5]
2ffdca02:	2100      	movs	r1, #0
2ffdca04:	2501      	movs	r5, #1
2ffdca06:	428c      	cmp	r4, r1
2ffdca08:	d805      	bhi.n	2ffdca16 <tzc400_disable_filters+0x1e>
2ffdca0a:	bd70      	pop	{r4, r5, r6, pc}
2ffdca0c:	480c      	ldr	r0, [pc, #48]	; (2ffdca40 <tzc400_disable_filters+0x48>)
2ffdca0e:	f240 110f 	movw	r1, #271	; 0x10f
2ffdca12:	f004 fce1 	bl	2ffe13d8 <__assert>
2ffdca16:	6882      	ldr	r2, [r0, #8]
2ffdca18:	f100 0608 	add.w	r6, r0, #8
2ffdca1c:	fa05 f301 	lsl.w	r3, r5, r1
2ffdca20:	0c12      	lsrs	r2, r2, #16
2ffdca22:	ea22 0303 	bic.w	r3, r2, r3
2ffdca26:	f003 030f 	and.w	r3, r3, #15
2ffdca2a:	6083      	str	r3, [r0, #8]
2ffdca2c:	6832      	ldr	r2, [r6, #0]
2ffdca2e:	f3c2 4203 	ubfx	r2, r2, #16, #4
2ffdca32:	4293      	cmp	r3, r2
2ffdca34:	d1fa      	bne.n	2ffdca2c <tzc400_disable_filters+0x34>
2ffdca36:	3101      	adds	r1, #1
2ffdca38:	e7e5      	b.n	2ffdca06 <tzc400_disable_filters+0xe>
2ffdca3a:	bf00      	nop
2ffdca3c:	2ffe7e94 	.word	0x2ffe7e94
2ffdca40:	2ffe3d7f 	.word	0x2ffe3d7f

2ffdca44 <udelay>:
2ffdca44:	b570      	push	{r4, r5, r6, lr}
2ffdca46:	4604      	mov	r4, r0
2ffdca48:	4d13      	ldr	r5, [pc, #76]	; (2ffdca98 <udelay+0x54>)
2ffdca4a:	682b      	ldr	r3, [r5, #0]
2ffdca4c:	b12b      	cbz	r3, 2ffdca5a <udelay+0x16>
2ffdca4e:	685a      	ldr	r2, [r3, #4]
2ffdca50:	b11a      	cbz	r2, 2ffdca5a <udelay+0x16>
2ffdca52:	6899      	ldr	r1, [r3, #8]
2ffdca54:	b109      	cbz	r1, 2ffdca5a <udelay+0x16>
2ffdca56:	681a      	ldr	r2, [r3, #0]
2ffdca58:	b91a      	cbnz	r2, 2ffdca62 <udelay+0x1e>
2ffdca5a:	2119      	movs	r1, #25
2ffdca5c:	480f      	ldr	r0, [pc, #60]	; (2ffdca9c <udelay+0x58>)
2ffdca5e:	f004 fcbb 	bl	2ffe13d8 <__assert>
2ffdca62:	f04f 33ff 	mov.w	r3, #4294967295	; 0xffffffff
2ffdca66:	fbb3 f3f1 	udiv	r3, r3, r1
2ffdca6a:	4283      	cmp	r3, r0
2ffdca6c:	d801      	bhi.n	2ffdca72 <udelay+0x2e>
2ffdca6e:	2120      	movs	r1, #32
2ffdca70:	e7f4      	b.n	2ffdca5c <udelay+0x18>
2ffdca72:	4790      	blx	r2
2ffdca74:	682a      	ldr	r2, [r5, #0]
2ffdca76:	4606      	mov	r6, r0
2ffdca78:	6853      	ldr	r3, [r2, #4]
2ffdca7a:	6892      	ldr	r2, [r2, #8]
2ffdca7c:	1e58      	subs	r0, r3, #1
2ffdca7e:	fb02 0404 	mla	r4, r2, r4, r0
2ffdca82:	fbb4 f4f3 	udiv	r4, r4, r3
2ffdca86:	3401      	adds	r4, #1
2ffdca88:	682b      	ldr	r3, [r5, #0]
2ffdca8a:	681b      	ldr	r3, [r3, #0]
2ffdca8c:	4798      	blx	r3
2ffdca8e:	1a33      	subs	r3, r6, r0
2ffdca90:	429c      	cmp	r4, r3
2ffdca92:	d8f9      	bhi.n	2ffdca88 <udelay+0x44>
2ffdca94:	bd70      	pop	{r4, r5, r6, pc}
2ffdca96:	bf00      	nop
2ffdca98:	2ffe7e9c 	.word	0x2ffe7e9c
2ffdca9c:	2ffe3dec 	.word	0x2ffe3dec

2ffdcaa0 <mdelay>:
2ffdcaa0:	f44f 737a 	mov.w	r3, #1000	; 0x3e8
2ffdcaa4:	4358      	muls	r0, r3
2ffdcaa6:	f7ff bfcd 	b.w	2ffdca44 <udelay>
	...

2ffdcaac <timer_init>:
2ffdcaac:	b508      	push	{r3, lr}
2ffdcaae:	b128      	cbz	r0, 2ffdcabc <timer_init+0x10>
2ffdcab0:	6843      	ldr	r3, [r0, #4]
2ffdcab2:	b11b      	cbz	r3, 2ffdcabc <timer_init+0x10>
2ffdcab4:	6883      	ldr	r3, [r0, #8]
2ffdcab6:	b10b      	cbz	r3, 2ffdcabc <timer_init+0x10>
2ffdcab8:	6803      	ldr	r3, [r0, #0]
2ffdcaba:	b91b      	cbnz	r3, 2ffdcac4 <timer_init+0x18>
2ffdcabc:	4803      	ldr	r0, [pc, #12]	; (2ffdcacc <timer_init+0x20>)
2ffdcabe:	2142      	movs	r1, #66	; 0x42
2ffdcac0:	f004 fc8a 	bl	2ffe13d8 <__assert>
2ffdcac4:	4b02      	ldr	r3, [pc, #8]	; (2ffdcad0 <timer_init+0x24>)
2ffdcac6:	6018      	str	r0, [r3, #0]
2ffdcac8:	bd08      	pop	{r3, pc}
2ffdcaca:	bf00      	nop
2ffdcacc:	2ffe3dec 	.word	0x2ffe3dec
2ffdcad0:	2ffe7e9c 	.word	0x2ffe7e9c

2ffdcad4 <get_timer_value>:
2ffdcad4:	ec51 0f0e 	mrrc	15, 0, r0, r1, cr14
2ffdcad8:	43c0      	mvns	r0, r0
2ffdcada:	4770      	bx	lr

2ffdcadc <generic_delay_timer_init_args>:
2ffdcadc:	4b03      	ldr	r3, [pc, #12]	; (2ffdcaec <generic_delay_timer_init_args+0x10>)
2ffdcade:	4a04      	ldr	r2, [pc, #16]	; (2ffdcaf0 <generic_delay_timer_init_args+0x14>)
2ffdcae0:	6058      	str	r0, [r3, #4]
2ffdcae2:	4618      	mov	r0, r3
2ffdcae4:	601a      	str	r2, [r3, #0]
2ffdcae6:	6099      	str	r1, [r3, #8]
2ffdcae8:	f7ff bfe0 	b.w	2ffdcaac <timer_init>
2ffdcaec:	2ffe7ea0 	.word	0x2ffe7ea0
2ffdcaf0:	2ffdcad5 	.word	0x2ffdcad5

2ffdcaf4 <generic_delay_timer_init>:
2ffdcaf4:	b538      	push	{r3, r4, r5, lr}
2ffdcaf6:	ee10 3f31 	mrc	15, 0, r3, cr0, cr1, {1}
2ffdcafa:	f413 2f70 	tst.w	r3, #983040	; 0xf0000
2ffdcafe:	d103      	bne.n	2ffdcb08 <generic_delay_timer_init+0x14>
2ffdcb00:	480b      	ldr	r0, [pc, #44]	; (2ffdcb30 <generic_delay_timer_init+0x3c>)
2ffdcb02:	212f      	movs	r1, #47	; 0x2f
2ffdcb04:	f004 fc68 	bl	2ffe13d8 <__assert>
2ffdcb08:	f7fe fd19 	bl	2ffdb53e <plat_get_syscnt_freq2>
2ffdcb0c:	4601      	mov	r1, r0
2ffdcb0e:	2206      	movs	r2, #6
2ffdcb10:	4808      	ldr	r0, [pc, #32]	; (2ffdcb34 <generic_delay_timer_init+0x40>)
2ffdcb12:	230a      	movs	r3, #10
2ffdcb14:	fbb1 f4f3 	udiv	r4, r1, r3
2ffdcb18:	fb03 1514 	mls	r5, r3, r4, r1
2ffdcb1c:	b925      	cbnz	r5, 2ffdcb28 <generic_delay_timer_init+0x34>
2ffdcb1e:	3a01      	subs	r2, #1
2ffdcb20:	4621      	mov	r1, r4
2ffdcb22:	fbb0 f0f3 	udiv	r0, r0, r3
2ffdcb26:	d1f5      	bne.n	2ffdcb14 <generic_delay_timer_init+0x20>
2ffdcb28:	e8bd 4038 	ldmia.w	sp!, {r3, r4, r5, lr}
2ffdcb2c:	f7ff bfd6 	b.w	2ffdcadc <generic_delay_timer_init_args>
2ffdcb30:	2ffe3e0e 	.word	0x2ffe3e0e
2ffdcb34:	000f4240 	.word	0x000f4240

2ffdcb38 <bsec_lock>:
2ffdcb38:	b508      	push	{r3, lr}
2ffdcb3a:	f7fe fd1e 	bl	2ffdb57a <stm32mp_lock_available>
2ffdcb3e:	b120      	cbz	r0, 2ffdcb4a <bsec_lock+0x12>
2ffdcb40:	e8bd 4008 	ldmia.w	sp!, {r3, lr}
2ffdcb44:	4801      	ldr	r0, [pc, #4]	; (2ffdcb4c <bsec_lock+0x14>)
2ffdcb46:	f008 bbe7 	b.w	2ffe5318 <__spin_lock_from_thumb>
2ffdcb4a:	bd08      	pop	{r3, pc}
2ffdcb4c:	2ffe7eb0 	.word	0x2ffe7eb0

2ffdcb50 <bsec_unlock>:
2ffdcb50:	b508      	push	{r3, lr}
2ffdcb52:	f7fe fd12 	bl	2ffdb57a <stm32mp_lock_available>
2ffdcb56:	b120      	cbz	r0, 2ffdcb62 <bsec_unlock+0x12>
2ffdcb58:	e8bd 4008 	ldmia.w	sp!, {r3, lr}
2ffdcb5c:	4801      	ldr	r0, [pc, #4]	; (2ffdcb64 <bsec_unlock+0x14>)
2ffdcb5e:	f008 bbc3 	b.w	2ffe52e8 <__spin_unlock_from_thumb>
2ffdcb62:	bd08      	pop	{r3, pc}
2ffdcb64:	2ffe7eb0 	.word	0x2ffe7eb0

2ffdcb68 <otp_bank_offset>:
2ffdcb68:	285f      	cmp	r0, #95	; 0x5f
2ffdcb6a:	b508      	push	{r3, lr}
2ffdcb6c:	d903      	bls.n	2ffdcb76 <otp_bank_offset+0xe>
2ffdcb6e:	4803      	ldr	r0, [pc, #12]	; (2ffdcb7c <otp_bank_offset+0x14>)
2ffdcb70:	2191      	movs	r1, #145	; 0x91
2ffdcb72:	f004 fc31 	bl	2ffe13d8 <__assert>
2ffdcb76:	0940      	lsrs	r0, r0, #5
2ffdcb78:	0080      	lsls	r0, r0, #2
2ffdcb7a:	bd08      	pop	{r3, pc}
2ffdcb7c:	2ffe3e38 	.word	0x2ffe3e38

2ffdcb80 <bsec_check_error>:
2ffdcb80:	b538      	push	{r3, r4, r5, lr}
2ffdcb82:	f000 031f 	and.w	r3, r0, #31
2ffdcb86:	2401      	movs	r4, #1
2ffdcb88:	460d      	mov	r5, r1
2ffdcb8a:	409c      	lsls	r4, r3
2ffdcb8c:	f7ff ffec 	bl	2ffdcb68 <otp_bank_offset>
2ffdcb90:	4b07      	ldr	r3, [pc, #28]	; (2ffdcbb0 <bsec_check_error+0x30>)
2ffdcb92:	681b      	ldr	r3, [r3, #0]
2ffdcb94:	4403      	add	r3, r0
2ffdcb96:	6b58      	ldr	r0, [r3, #52]	; 0x34
2ffdcb98:	4020      	ands	r0, r4
2ffdcb9a:	d106      	bne.n	2ffdcbaa <bsec_check_error+0x2a>
2ffdcb9c:	b125      	cbz	r5, 2ffdcba8 <bsec_check_error+0x28>
2ffdcb9e:	69d8      	ldr	r0, [r3, #28]
2ffdcba0:	4020      	ands	r0, r4
2ffdcba2:	bf18      	it	ne
2ffdcba4:	f06f 0001 	mvnne.w	r0, #1
2ffdcba8:	bd38      	pop	{r3, r4, r5, pc}
2ffdcbaa:	f04f 30ff 	mov.w	r0, #4294967295	; 0xffffffff
2ffdcbae:	e7fb      	b.n	2ffdcba8 <bsec_check_error+0x28>
2ffdcbb0:	2ffe7eac 	.word	0x2ffe7eac

2ffdcbb4 <bsec_find_otp_name_in_dt>:
2ffdcbb4:	b5f7      	push	{r0, r1, r2, r4, r5, r6, r7, lr}
2ffdcbb6:	460e      	mov	r6, r1
2ffdcbb8:	4615      	mov	r5, r2
2ffdcbba:	4604      	mov	r4, r0
2ffdcbbc:	2800      	cmp	r0, #0
2ffdcbbe:	d06b      	beq.n	2ffdcc98 <bsec_find_otp_name_in_dt+0xe4>
2ffdcbc0:	2900      	cmp	r1, #0
2ffdcbc2:	d069      	beq.n	2ffdcc98 <bsec_find_otp_name_in_dt+0xe4>
2ffdcbc4:	4668      	mov	r0, sp
2ffdcbc6:	f003 fc4b 	bl	2ffe0460 <fdt_get_address>
2ffdcbca:	b918      	cbnz	r0, 2ffdcbd4 <bsec_find_otp_name_in_dt+0x20>
2ffdcbcc:	f7fe fba0 	bl	2ffdb310 <console_flush>
2ffdcbd0:	f7f9 eb46 	blx	2ffd6260 <do_panic>
2ffdcbd4:	4832      	ldr	r0, [pc, #200]	; (2ffdcca0 <bsec_find_otp_name_in_dt+0xec>)
2ffdcbd6:	f003 fd3f 	bl	2ffe0658 <dt_get_node_by_compatible>
2ffdcbda:	1e07      	subs	r7, r0, #0
2ffdcbdc:	da03      	bge.n	2ffdcbe6 <bsec_find_otp_name_in_dt+0x32>
2ffdcbde:	f04f 30ff 	mov.w	r0, #4294967295	; 0xffffffff
2ffdcbe2:	b003      	add	sp, #12
2ffdcbe4:	bdf0      	pop	{r4, r5, r6, r7, pc}
2ffdcbe6:	4a2f      	ldr	r2, [pc, #188]	; (2ffdcca4 <bsec_find_otp_name_in_dt+0xf0>)
2ffdcbe8:	4623      	mov	r3, r4
2ffdcbea:	9800      	ldr	r0, [sp, #0]
2ffdcbec:	4639      	mov	r1, r7
2ffdcbee:	f004 fb8c 	bl	2ffe130a <fdt_stringlist_search>
2ffdcbf2:	1e04      	subs	r4, r0, #0
2ffdcbf4:	dbf3      	blt.n	2ffdcbde <bsec_find_otp_name_in_dt+0x2a>
2ffdcbf6:	4a2c      	ldr	r2, [pc, #176]	; (2ffdcca8 <bsec_find_otp_name_in_dt+0xf4>)
2ffdcbf8:	ab01      	add	r3, sp, #4
2ffdcbfa:	9800      	ldr	r0, [sp, #0]
2ffdcbfc:	4639      	mov	r1, r7
2ffdcbfe:	f004 fa4e 	bl	2ffe109e <fdt_getprop>
2ffdcc02:	2800      	cmp	r0, #0
2ffdcc04:	d0eb      	beq.n	2ffdcbde <bsec_find_otp_name_in_dt+0x2a>
2ffdcc06:	9b01      	ldr	r3, [sp, #4]
2ffdcc08:	ebb3 0f84 	cmp.w	r3, r4, lsl #2
2ffdcc0c:	dbe7      	blt.n	2ffdcbde <bsec_find_otp_name_in_dt+0x2a>
2ffdcc0e:	f850 3024 	ldr.w	r3, [r0, r4, lsl #2]
2ffdcc12:	9800      	ldr	r0, [sp, #0]
2ffdcc14:	f3c3 2207 	ubfx	r2, r3, #8, #8
2ffdcc18:	0e19      	lsrs	r1, r3, #24
2ffdcc1a:	ea41 6103 	orr.w	r1, r1, r3, lsl #24
2ffdcc1e:	f3c3 4307 	ubfx	r3, r3, #16, #8
2ffdcc22:	ea41 4102 	orr.w	r1, r1, r2, lsl #16
2ffdcc26:	ea41 2103 	orr.w	r1, r1, r3, lsl #8
2ffdcc2a:	f004 fb2a 	bl	2ffe1282 <fdt_node_offset_by_phandle>
2ffdcc2e:	1e01      	subs	r1, r0, #0
2ffdcc30:	da03      	bge.n	2ffdcc3a <bsec_find_otp_name_in_dt+0x86>
2ffdcc32:	481e      	ldr	r0, [pc, #120]	; (2ffdccac <bsec_find_otp_name_in_dt+0xf8>)
2ffdcc34:	f7fe face 	bl	2ffdb1d4 <tf_log>
2ffdcc38:	e7d1      	b.n	2ffdcbde <bsec_find_otp_name_in_dt+0x2a>
2ffdcc3a:	4a1d      	ldr	r2, [pc, #116]	; (2ffdccb0 <bsec_find_otp_name_in_dt+0xfc>)
2ffdcc3c:	ab01      	add	r3, sp, #4
2ffdcc3e:	9800      	ldr	r0, [sp, #0]
2ffdcc40:	f004 fa2d 	bl	2ffe109e <fdt_getprop>
2ffdcc44:	4602      	mov	r2, r0
2ffdcc46:	2800      	cmp	r0, #0
2ffdcc48:	d0f3      	beq.n	2ffdcc32 <bsec_find_otp_name_in_dt+0x7e>
2ffdcc4a:	9b01      	ldr	r3, [sp, #4]
2ffdcc4c:	2b08      	cmp	r3, #8
2ffdcc4e:	d1f0      	bne.n	2ffdcc32 <bsec_find_otp_name_in_dt+0x7e>
2ffdcc50:	6804      	ldr	r4, [r0, #0]
2ffdcc52:	f3c4 2007 	ubfx	r0, r4, #8, #8
2ffdcc56:	0e23      	lsrs	r3, r4, #24
2ffdcc58:	ea43 6304 	orr.w	r3, r3, r4, lsl #24
2ffdcc5c:	ea43 4300 	orr.w	r3, r3, r0, lsl #16
2ffdcc60:	f3c4 4407 	ubfx	r4, r4, #16, #8
2ffdcc64:	f013 0003 	ands.w	r0, r3, #3
2ffdcc68:	ea43 2404 	orr.w	r4, r3, r4, lsl #8
2ffdcc6c:	d001      	beq.n	2ffdcc72 <bsec_find_otp_name_in_dt+0xbe>
2ffdcc6e:	4811      	ldr	r0, [pc, #68]	; (2ffdccb4 <bsec_find_otp_name_in_dt+0x100>)
2ffdcc70:	e7e0      	b.n	2ffdcc34 <bsec_find_otp_name_in_dt+0x80>
2ffdcc72:	08a4      	lsrs	r4, r4, #2
2ffdcc74:	6034      	str	r4, [r6, #0]
2ffdcc76:	2d00      	cmp	r5, #0
2ffdcc78:	d0b3      	beq.n	2ffdcbe2 <bsec_find_otp_name_in_dt+0x2e>
2ffdcc7a:	6852      	ldr	r2, [r2, #4]
2ffdcc7c:	0e13      	lsrs	r3, r2, #24
2ffdcc7e:	f3c2 2107 	ubfx	r1, r2, #8, #8
2ffdcc82:	ea43 6302 	orr.w	r3, r3, r2, lsl #24
2ffdcc86:	f3c2 4207 	ubfx	r2, r2, #16, #8
2ffdcc8a:	ea43 4301 	orr.w	r3, r3, r1, lsl #16
2ffdcc8e:	ea43 2302 	orr.w	r3, r3, r2, lsl #8
2ffdcc92:	00db      	lsls	r3, r3, #3
2ffdcc94:	602b      	str	r3, [r5, #0]
2ffdcc96:	e7a4      	b.n	2ffdcbe2 <bsec_find_otp_name_in_dt+0x2e>
2ffdcc98:	f06f 0003 	mvn.w	r0, #3
2ffdcc9c:	e7a1      	b.n	2ffdcbe2 <bsec_find_otp_name_in_dt+0x2e>
2ffdcc9e:	bf00      	nop
2ffdcca0:	2ffe3e50 	.word	0x2ffe3e50
2ffdcca4:	2ffe3e66 	.word	0x2ffe3e66
2ffdcca8:	2ffe3e77 	.word	0x2ffe3e77
2ffdccac:	2ffe3e83 	.word	0x2ffe3e83
2ffdccb0:	2ffe2e1b 	.word	0x2ffe2e1b
2ffdccb4:	2ffe3eaa 	.word	0x2ffe3eaa

2ffdccb8 <bsec_read_otp>:
2ffdccb8:	295f      	cmp	r1, #95	; 0x5f
2ffdccba:	bf9f      	itttt	ls
2ffdccbc:	4b05      	ldrls	r3, [pc, #20]	; (2ffdccd4 <bsec_read_otp+0x1c>)
2ffdccbe:	681b      	ldrls	r3, [r3, #0]
2ffdccc0:	f503 7300 	addls.w	r3, r3, #512	; 0x200
2ffdccc4:	f853 3021 	ldrls.w	r3, [r3, r1, lsl #2]
2ffdccc8:	bf9a      	itte	ls
2ffdccca:	6003      	strls	r3, [r0, #0]
2ffdcccc:	2000      	movls	r0, #0
2ffdccce:	f06f 0003 	mvnhi.w	r0, #3
2ffdccd2:	4770      	bx	lr
2ffdccd4:	2ffe7eac 	.word	0x2ffe7eac

2ffdccd8 <bsec_read_debug_conf>:
2ffdccd8:	4b01      	ldr	r3, [pc, #4]	; (2ffdcce0 <bsec_read_debug_conf+0x8>)
2ffdccda:	681b      	ldr	r3, [r3, #0]
2ffdccdc:	6958      	ldr	r0, [r3, #20]
2ffdccde:	4770      	bx	lr
2ffdcce0:	2ffe7eac 	.word	0x2ffe7eac

2ffdcce4 <bsec_get_status>:
2ffdcce4:	4b01      	ldr	r3, [pc, #4]	; (2ffdccec <bsec_get_status+0x8>)
2ffdcce6:	681b      	ldr	r3, [r3, #0]
2ffdcce8:	68d8      	ldr	r0, [r3, #12]
2ffdccea:	4770      	bx	lr
2ffdccec:	2ffe7eac 	.word	0x2ffe7eac

2ffdccf0 <bsec_power_safmem>:
2ffdccf0:	b510      	push	{r4, lr}
2ffdccf2:	4604      	mov	r4, r0
2ffdccf4:	f7ff ff20 	bl	2ffdcb38 <bsec_lock>
2ffdccf8:	4b15      	ldr	r3, [pc, #84]	; (2ffdcd50 <bsec_power_safmem+0x60>)
2ffdccfa:	681a      	ldr	r2, [r3, #0]
2ffdccfc:	6813      	ldr	r3, [r2, #0]
2ffdccfe:	b164      	cbz	r4, 2ffdcd1a <bsec_power_safmem+0x2a>
2ffdcd00:	f043 0301 	orr.w	r3, r3, #1
2ffdcd04:	6013      	str	r3, [r2, #0]
2ffdcd06:	b9bc      	cbnz	r4, 2ffdcd38 <bsec_power_safmem+0x48>
2ffdcd08:	f64f 74ff 	movw	r4, #65535	; 0xffff
2ffdcd0c:	f7ff ffea 	bl	2ffdcce4 <bsec_get_status>
2ffdcd10:	0683      	lsls	r3, r0, #26
2ffdcd12:	d514      	bpl.n	2ffdcd3e <bsec_power_safmem+0x4e>
2ffdcd14:	b15c      	cbz	r4, 2ffdcd2e <bsec_power_safmem+0x3e>
2ffdcd16:	3c01      	subs	r4, #1
2ffdcd18:	e7f8      	b.n	2ffdcd0c <bsec_power_safmem+0x1c>
2ffdcd1a:	f023 0301 	bic.w	r3, r3, #1
2ffdcd1e:	e7f1      	b.n	2ffdcd04 <bsec_power_safmem+0x14>
2ffdcd20:	3c01      	subs	r4, #1
2ffdcd22:	f7ff ffdf 	bl	2ffdcce4 <bsec_get_status>
2ffdcd26:	0682      	lsls	r2, r0, #26
2ffdcd28:	d409      	bmi.n	2ffdcd3e <bsec_power_safmem+0x4e>
2ffdcd2a:	2c00      	cmp	r4, #0
2ffdcd2c:	d1f8      	bne.n	2ffdcd20 <bsec_power_safmem+0x30>
2ffdcd2e:	f7ff ff0f 	bl	2ffdcb50 <bsec_unlock>
2ffdcd32:	f06f 0006 	mvn.w	r0, #6
2ffdcd36:	bd10      	pop	{r4, pc}
2ffdcd38:	f64f 74ff 	movw	r4, #65535	; 0xffff
2ffdcd3c:	e7f1      	b.n	2ffdcd22 <bsec_power_safmem+0x32>
2ffdcd3e:	f7ff ff07 	bl	2ffdcb50 <bsec_unlock>
2ffdcd42:	2c00      	cmp	r4, #0
2ffdcd44:	bf14      	ite	ne
2ffdcd46:	2000      	movne	r0, #0
2ffdcd48:	f06f 0006 	mvneq.w	r0, #6
2ffdcd4c:	e7f3      	b.n	2ffdcd36 <bsec_power_safmem+0x46>
2ffdcd4e:	bf00      	nop
2ffdcd50:	2ffe7eac 	.word	0x2ffe7eac

2ffdcd54 <bsec_get_version>:
2ffdcd54:	4b02      	ldr	r3, [pc, #8]	; (2ffdcd60 <bsec_get_version+0xc>)
2ffdcd56:	681b      	ldr	r3, [r3, #0]
2ffdcd58:	f8d3 0ff4 	ldr.w	r0, [r3, #4084]	; 0xff4
2ffdcd5c:	4770      	bx	lr
2ffdcd5e:	bf00      	nop
2ffdcd60:	2ffe7eac 	.word	0x2ffe7eac

2ffdcd64 <bsec_get_id>:
2ffdcd64:	4b02      	ldr	r3, [pc, #8]	; (2ffdcd70 <bsec_get_id+0xc>)
2ffdcd66:	681b      	ldr	r3, [r3, #0]
2ffdcd68:	f8d3 0ff8 	ldr.w	r0, [r3, #4088]	; 0xff8
2ffdcd6c:	4770      	bx	lr
2ffdcd6e:	bf00      	nop
2ffdcd70:	2ffe7eac 	.word	0x2ffe7eac

2ffdcd74 <bsec_probe>:
2ffdcd74:	b57f      	push	{r0, r1, r2, r3, r4, r5, r6, lr}
2ffdcd76:	a801      	add	r0, sp, #4
2ffdcd78:	f003 fb72 	bl	2ffe0460 <fdt_get_address>
2ffdcd7c:	b918      	cbnz	r0, 2ffdcd86 <bsec_probe+0x12>
2ffdcd7e:	f7fe fac7 	bl	2ffdb310 <console_flush>
2ffdcd82:	f7f9 ea6e 	blx	2ffd6260 <do_panic>
2ffdcd86:	4a0c      	ldr	r2, [pc, #48]	; (2ffdcdb8 <bsec_probe+0x44>)
2ffdcd88:	f04f 31ff 	mov.w	r1, #4294967295	; 0xffffffff
2ffdcd8c:	a802      	add	r0, sp, #8
2ffdcd8e:	f003 fc41 	bl	2ffe0614 <dt_get_node>
2ffdcd92:	2800      	cmp	r0, #0
2ffdcd94:	dbf3      	blt.n	2ffdcd7e <bsec_probe+0xa>
2ffdcd96:	4b09      	ldr	r3, [pc, #36]	; (2ffdcdbc <bsec_probe+0x48>)
2ffdcd98:	9a02      	ldr	r2, [sp, #8]
2ffdcd9a:	601a      	str	r2, [r3, #0]
2ffdcd9c:	f7ff ffda 	bl	2ffdcd54 <bsec_get_version>
2ffdcda0:	b2c0      	uxtb	r0, r0
2ffdcda2:	2811      	cmp	r0, #17
2ffdcda4:	d1eb      	bne.n	2ffdcd7e <bsec_probe+0xa>
2ffdcda6:	f7ff ffdd 	bl	2ffdcd64 <bsec_get_id>
2ffdcdaa:	4b05      	ldr	r3, [pc, #20]	; (2ffdcdc0 <bsec_probe+0x4c>)
2ffdcdac:	4298      	cmp	r0, r3
2ffdcdae:	d1e6      	bne.n	2ffdcd7e <bsec_probe+0xa>
2ffdcdb0:	2000      	movs	r0, #0
2ffdcdb2:	b007      	add	sp, #28
2ffdcdb4:	f85d fb04 	ldr.w	pc, [sp], #4
2ffdcdb8:	2ffe3ed5 	.word	0x2ffe3ed5
2ffdcdbc:	2ffe7eac 	.word	0x2ffe7eac
2ffdcdc0:	00100032 	.word	0x00100032

2ffdcdc4 <bsec_set_sr_lock>:
2ffdcdc4:	b538      	push	{r3, r4, r5, lr}
2ffdcdc6:	4604      	mov	r4, r0
2ffdcdc8:	f7ff fece 	bl	2ffdcb68 <otp_bank_offset>
2ffdcdcc:	2c5f      	cmp	r4, #95	; 0x5f
2ffdcdce:	4605      	mov	r5, r0
2ffdcdd0:	d80e      	bhi.n	2ffdcdf0 <bsec_set_sr_lock+0x2c>
2ffdcdd2:	f004 041f 	and.w	r4, r4, #31
2ffdcdd6:	f7ff feaf 	bl	2ffdcb38 <bsec_lock>
2ffdcdda:	4b07      	ldr	r3, [pc, #28]	; (2ffdcdf8 <bsec_set_sr_lock+0x34>)
2ffdcddc:	2001      	movs	r0, #1
2ffdcdde:	681b      	ldr	r3, [r3, #0]
2ffdcde0:	fa00 f404 	lsl.w	r4, r0, r4
2ffdcde4:	3394      	adds	r3, #148	; 0x94
2ffdcde6:	515c      	str	r4, [r3, r5]
2ffdcde8:	f7ff feb2 	bl	2ffdcb50 <bsec_unlock>
2ffdcdec:	2000      	movs	r0, #0
2ffdcdee:	bd38      	pop	{r3, r4, r5, pc}
2ffdcdf0:	f06f 0003 	mvn.w	r0, #3
2ffdcdf4:	e7fb      	b.n	2ffdcdee <bsec_set_sr_lock+0x2a>
2ffdcdf6:	bf00      	nop
2ffdcdf8:	2ffe7eac 	.word	0x2ffe7eac

2ffdcdfc <bsec_read_sr_lock>:
2ffdcdfc:	b538      	push	{r3, r4, r5, lr}
2ffdcdfe:	4604      	mov	r4, r0
2ffdce00:	460d      	mov	r5, r1
2ffdce02:	f7ff feb1 	bl	2ffdcb68 <otp_bank_offset>
2ffdce06:	f004 021f 	and.w	r2, r4, #31
2ffdce0a:	2301      	movs	r3, #1
2ffdce0c:	2c5f      	cmp	r4, #95	; 0x5f
2ffdce0e:	fa03 f302 	lsl.w	r3, r3, r2
2ffdce12:	d80a      	bhi.n	2ffdce2a <bsec_read_sr_lock+0x2e>
2ffdce14:	4a06      	ldr	r2, [pc, #24]	; (2ffdce30 <bsec_read_sr_lock+0x34>)
2ffdce16:	6812      	ldr	r2, [r2, #0]
2ffdce18:	3294      	adds	r2, #148	; 0x94
2ffdce1a:	5812      	ldr	r2, [r2, r0]
2ffdce1c:	2000      	movs	r0, #0
2ffdce1e:	4213      	tst	r3, r2
2ffdce20:	bf14      	ite	ne
2ffdce22:	2301      	movne	r3, #1
2ffdce24:	2300      	moveq	r3, #0
2ffdce26:	702b      	strb	r3, [r5, #0]
2ffdce28:	bd38      	pop	{r3, r4, r5, pc}
2ffdce2a:	f06f 0003 	mvn.w	r0, #3
2ffdce2e:	e7fb      	b.n	2ffdce28 <bsec_read_sr_lock+0x2c>
2ffdce30:	2ffe7eac 	.word	0x2ffe7eac

2ffdce34 <bsec_shadow_register>:
2ffdce34:	b5f7      	push	{r0, r1, r2, r4, r5, r6, r7, lr}
2ffdce36:	f10d 0107 	add.w	r1, sp, #7
2ffdce3a:	4605      	mov	r5, r0
2ffdce3c:	f7ff ffde 	bl	2ffdcdfc <bsec_read_sr_lock>
2ffdce40:	4604      	mov	r4, r0
2ffdce42:	b138      	cbz	r0, 2ffdce54 <bsec_shadow_register+0x20>
2ffdce44:	4602      	mov	r2, r0
2ffdce46:	4629      	mov	r1, r5
2ffdce48:	4817      	ldr	r0, [pc, #92]	; (2ffdcea8 <bsec_shadow_register+0x74>)
2ffdce4a:	f7fe f9c3 	bl	2ffdb1d4 <tf_log>
2ffdce4e:	4620      	mov	r0, r4
2ffdce50:	b003      	add	sp, #12
2ffdce52:	bdf0      	pop	{r4, r5, r6, r7, pc}
2ffdce54:	f7ff ff46 	bl	2ffdcce4 <bsec_get_status>
2ffdce58:	0683      	lsls	r3, r0, #26
2ffdce5a:	d422      	bmi.n	2ffdcea2 <bsec_shadow_register+0x6e>
2ffdce5c:	2001      	movs	r0, #1
2ffdce5e:	f7ff ff47 	bl	2ffdccf0 <bsec_power_safmem>
2ffdce62:	4604      	mov	r4, r0
2ffdce64:	2800      	cmp	r0, #0
2ffdce66:	d1f2      	bne.n	2ffdce4e <bsec_shadow_register+0x1a>
2ffdce68:	2701      	movs	r7, #1
2ffdce6a:	f7ff fe65 	bl	2ffdcb38 <bsec_lock>
2ffdce6e:	4b0f      	ldr	r3, [pc, #60]	; (2ffdceac <bsec_shadow_register+0x78>)
2ffdce70:	681b      	ldr	r3, [r3, #0]
2ffdce72:	605d      	str	r5, [r3, #4]
2ffdce74:	f7ff ff36 	bl	2ffdcce4 <bsec_get_status>
2ffdce78:	f010 0608 	ands.w	r6, r0, #8
2ffdce7c:	d1fa      	bne.n	2ffdce74 <bsec_shadow_register+0x40>
2ffdce7e:	2101      	movs	r1, #1
2ffdce80:	4628      	mov	r0, r5
2ffdce82:	f7ff fe7d 	bl	2ffdcb80 <bsec_check_error>
2ffdce86:	4604      	mov	r4, r0
2ffdce88:	f7ff fe62 	bl	2ffdcb50 <bsec_unlock>
2ffdce8c:	2f00      	cmp	r7, #0
2ffdce8e:	d0de      	beq.n	2ffdce4e <bsec_shadow_register+0x1a>
2ffdce90:	4630      	mov	r0, r6
2ffdce92:	f7ff ff2d 	bl	2ffdccf0 <bsec_power_safmem>
2ffdce96:	2800      	cmp	r0, #0
2ffdce98:	d0d9      	beq.n	2ffdce4e <bsec_shadow_register+0x1a>
2ffdce9a:	f7fe fa39 	bl	2ffdb310 <console_flush>
2ffdce9e:	f7f9 e9e0 	blx	2ffd6260 <do_panic>
2ffdcea2:	4627      	mov	r7, r4
2ffdcea4:	e7e1      	b.n	2ffdce6a <bsec_shadow_register+0x36>
2ffdcea6:	bf00      	nop
2ffdcea8:	2ffe3ee7 	.word	0x2ffe3ee7
2ffdceac:	2ffe7eac 	.word	0x2ffe7eac

2ffdceb0 <bsec_set_sw_lock>:
2ffdceb0:	b538      	push	{r3, r4, r5, lr}
2ffdceb2:	4604      	mov	r4, r0
2ffdceb4:	f7ff fe58 	bl	2ffdcb68 <otp_bank_offset>
2ffdceb8:	2c5f      	cmp	r4, #95	; 0x5f
2ffdceba:	4605      	mov	r5, r0
2ffdcebc:	d80e      	bhi.n	2ffdcedc <bsec_set_sw_lock+0x2c>
2ffdcebe:	f004 041f 	and.w	r4, r4, #31
2ffdcec2:	f7ff fe39 	bl	2ffdcb38 <bsec_lock>
2ffdcec6:	4b07      	ldr	r3, [pc, #28]	; (2ffdcee4 <bsec_set_sw_lock+0x34>)
2ffdcec8:	2001      	movs	r0, #1
2ffdceca:	681b      	ldr	r3, [r3, #0]
2ffdcecc:	fa00 f404 	lsl.w	r4, r0, r4
2ffdced0:	337c      	adds	r3, #124	; 0x7c
2ffdced2:	515c      	str	r4, [r3, r5]
2ffdced4:	f7ff fe3c 	bl	2ffdcb50 <bsec_unlock>
2ffdced8:	2000      	movs	r0, #0
2ffdceda:	bd38      	pop	{r3, r4, r5, pc}
2ffdcedc:	f06f 0003 	mvn.w	r0, #3
2ffdcee0:	e7fb      	b.n	2ffdceda <bsec_set_sw_lock+0x2a>
2ffdcee2:	bf00      	nop
2ffdcee4:	2ffe7eac 	.word	0x2ffe7eac

2ffdcee8 <bsec_read_sw_lock>:
2ffdcee8:	b538      	push	{r3, r4, r5, lr}
2ffdceea:	4604      	mov	r4, r0
2ffdceec:	460d      	mov	r5, r1
2ffdceee:	f7ff fe3b 	bl	2ffdcb68 <otp_bank_offset>
2ffdcef2:	f004 021f 	and.w	r2, r4, #31
2ffdcef6:	2301      	movs	r3, #1
2ffdcef8:	2c5f      	cmp	r4, #95	; 0x5f
2ffdcefa:	fa03 f302 	lsl.w	r3, r3, r2
2ffdcefe:	d80a      	bhi.n	2ffdcf16 <bsec_read_sw_lock+0x2e>
2ffdcf00:	4a06      	ldr	r2, [pc, #24]	; (2ffdcf1c <bsec_read_sw_lock+0x34>)
2ffdcf02:	6812      	ldr	r2, [r2, #0]
2ffdcf04:	327c      	adds	r2, #124	; 0x7c
2ffdcf06:	5812      	ldr	r2, [r2, r0]
2ffdcf08:	2000      	movs	r0, #0
2ffdcf0a:	4213      	tst	r3, r2
2ffdcf0c:	bf14      	ite	ne
2ffdcf0e:	2301      	movne	r3, #1
2ffdcf10:	2300      	moveq	r3, #0
2ffdcf12:	702b      	strb	r3, [r5, #0]
2ffdcf14:	bd38      	pop	{r3, r4, r5, pc}
2ffdcf16:	f06f 0003 	mvn.w	r0, #3
2ffdcf1a:	e7fb      	b.n	2ffdcf14 <bsec_read_sw_lock+0x2c>
2ffdcf1c:	2ffe7eac 	.word	0x2ffe7eac

2ffdcf20 <bsec_write_otp>:
2ffdcf20:	b573      	push	{r0, r1, r4, r5, r6, lr}
2ffdcf22:	460d      	mov	r5, r1
2ffdcf24:	4606      	mov	r6, r0
2ffdcf26:	f10d 0107 	add.w	r1, sp, #7
2ffdcf2a:	4628      	mov	r0, r5
2ffdcf2c:	f7ff ffdc 	bl	2ffdcee8 <bsec_read_sw_lock>
2ffdcf30:	4604      	mov	r4, r0
2ffdcf32:	b138      	cbz	r0, 2ffdcf44 <bsec_write_otp+0x24>
2ffdcf34:	4602      	mov	r2, r0
2ffdcf36:	4629      	mov	r1, r5
2ffdcf38:	4808      	ldr	r0, [pc, #32]	; (2ffdcf5c <bsec_write_otp+0x3c>)
2ffdcf3a:	f7fe f94b 	bl	2ffdb1d4 <tf_log>
2ffdcf3e:	4620      	mov	r0, r4
2ffdcf40:	b002      	add	sp, #8
2ffdcf42:	bd70      	pop	{r4, r5, r6, pc}
2ffdcf44:	f7ff fdf8 	bl	2ffdcb38 <bsec_lock>
2ffdcf48:	4b05      	ldr	r3, [pc, #20]	; (2ffdcf60 <bsec_write_otp+0x40>)
2ffdcf4a:	681b      	ldr	r3, [r3, #0]
2ffdcf4c:	f503 7300 	add.w	r3, r3, #512	; 0x200
2ffdcf50:	f843 6025 	str.w	r6, [r3, r5, lsl #2]
2ffdcf54:	f7ff fdfc 	bl	2ffdcb50 <bsec_unlock>
2ffdcf58:	e7f1      	b.n	2ffdcf3e <bsec_write_otp+0x1e>
2ffdcf5a:	bf00      	nop
2ffdcf5c:	2ffe3f10 	.word	0x2ffe3f10
2ffdcf60:	2ffe7eac 	.word	0x2ffe7eac

2ffdcf64 <bsec_read_sp_lock>:
2ffdcf64:	b538      	push	{r3, r4, r5, lr}
2ffdcf66:	4604      	mov	r4, r0
2ffdcf68:	460d      	mov	r5, r1
2ffdcf6a:	f7ff fdfd 	bl	2ffdcb68 <otp_bank_offset>
2ffdcf6e:	f004 021f 	and.w	r2, r4, #31
2ffdcf72:	2301      	movs	r3, #1
2ffdcf74:	2c5f      	cmp	r4, #95	; 0x5f
2ffdcf76:	fa03 f302 	lsl.w	r3, r3, r2
2ffdcf7a:	d80a      	bhi.n	2ffdcf92 <bsec_read_sp_lock+0x2e>
2ffdcf7c:	4a06      	ldr	r2, [pc, #24]	; (2ffdcf98 <bsec_read_sp_lock+0x34>)
2ffdcf7e:	6812      	ldr	r2, [r2, #0]
2ffdcf80:	3264      	adds	r2, #100	; 0x64
2ffdcf82:	5812      	ldr	r2, [r2, r0]
2ffdcf84:	2000      	movs	r0, #0
2ffdcf86:	4213      	tst	r3, r2
2ffdcf88:	bf14      	ite	ne
2ffdcf8a:	2301      	movne	r3, #1
2ffdcf8c:	2300      	moveq	r3, #0
2ffdcf8e:	702b      	strb	r3, [r5, #0]
2ffdcf90:	bd38      	pop	{r3, r4, r5, pc}
2ffdcf92:	f06f 0003 	mvn.w	r0, #3
2ffdcf96:	e7fb      	b.n	2ffdcf90 <bsec_read_sp_lock+0x2c>
2ffdcf98:	2ffe7eac 	.word	0x2ffe7eac

2ffdcf9c <bsec_read_permanent_lock>:
2ffdcf9c:	b538      	push	{r3, r4, r5, lr}
2ffdcf9e:	4604      	mov	r4, r0
2ffdcfa0:	460d      	mov	r5, r1
2ffdcfa2:	f7ff fde1 	bl	2ffdcb68 <otp_bank_offset>
2ffdcfa6:	f004 021f 	and.w	r2, r4, #31
2ffdcfaa:	2301      	movs	r3, #1
2ffdcfac:	2c5f      	cmp	r4, #95	; 0x5f
2ffdcfae:	fa03 f302 	lsl.w	r3, r3, r2
2ffdcfb2:	d80a      	bhi.n	2ffdcfca <bsec_read_permanent_lock+0x2e>
2ffdcfb4:	4a06      	ldr	r2, [pc, #24]	; (2ffdcfd0 <bsec_read_permanent_lock+0x34>)
2ffdcfb6:	6812      	ldr	r2, [r2, #0]
2ffdcfb8:	324c      	adds	r2, #76	; 0x4c
2ffdcfba:	5812      	ldr	r2, [r2, r0]
2ffdcfbc:	2000      	movs	r0, #0
2ffdcfbe:	4213      	tst	r3, r2
2ffdcfc0:	bf14      	ite	ne
2ffdcfc2:	2301      	movne	r3, #1
2ffdcfc4:	2300      	moveq	r3, #0
2ffdcfc6:	702b      	strb	r3, [r5, #0]
2ffdcfc8:	bd38      	pop	{r3, r4, r5, pc}
2ffdcfca:	f06f 0003 	mvn.w	r0, #3
2ffdcfce:	e7fb      	b.n	2ffdcfc8 <bsec_read_permanent_lock+0x2c>
2ffdcfd0:	2ffe7eac 	.word	0x2ffe7eac

2ffdcfd4 <bsec_program_otp>:
2ffdcfd4:	e92d 41f3 	stmdb	sp!, {r0, r1, r4, r5, r6, r7, r8, lr}
2ffdcfd8:	460d      	mov	r5, r1
2ffdcfda:	4607      	mov	r7, r0
2ffdcfdc:	f10d 0106 	add.w	r1, sp, #6
2ffdcfe0:	4628      	mov	r0, r5
2ffdcfe2:	f7ff ffbf 	bl	2ffdcf64 <bsec_read_sp_lock>
2ffdcfe6:	4604      	mov	r4, r0
2ffdcfe8:	b140      	cbz	r0, 2ffdcffc <bsec_program_otp+0x28>
2ffdcfea:	4602      	mov	r2, r0
2ffdcfec:	4629      	mov	r1, r5
2ffdcfee:	482c      	ldr	r0, [pc, #176]	; (2ffdd0a0 <bsec_program_otp+0xcc>)
2ffdcff0:	f7fe f8f0 	bl	2ffdb1d4 <tf_log>
2ffdcff4:	4620      	mov	r0, r4
2ffdcff6:	b002      	add	sp, #8
2ffdcff8:	e8bd 81f0 	ldmia.w	sp!, {r4, r5, r6, r7, r8, pc}
2ffdcffc:	f10d 0107 	add.w	r1, sp, #7
2ffdd000:	4628      	mov	r0, r5
2ffdd002:	f7ff ffcb 	bl	2ffdcf9c <bsec_read_permanent_lock>
2ffdd006:	4604      	mov	r4, r0
2ffdd008:	b118      	cbz	r0, 2ffdd012 <bsec_program_otp+0x3e>
2ffdd00a:	4602      	mov	r2, r0
2ffdd00c:	4629      	mov	r1, r5
2ffdd00e:	4825      	ldr	r0, [pc, #148]	; (2ffdd0a4 <bsec_program_otp+0xd0>)
2ffdd010:	e7ee      	b.n	2ffdcff0 <bsec_program_otp+0x1c>
2ffdd012:	f89d 3006 	ldrb.w	r3, [sp, #6]
2ffdd016:	b923      	cbnz	r3, 2ffdd022 <bsec_program_otp+0x4e>
2ffdd018:	f89d 8007 	ldrb.w	r8, [sp, #7]
2ffdd01c:	f1b8 0f00 	cmp.w	r8, #0
2ffdd020:	d005      	beq.n	2ffdd02e <bsec_program_otp+0x5a>
2ffdd022:	4821      	ldr	r0, [pc, #132]	; (2ffdd0a8 <bsec_program_otp+0xd4>)
2ffdd024:	f06f 0404 	mvn.w	r4, #4
2ffdd028:	f7fe f8d4 	bl	2ffdb1d4 <tf_log>
2ffdd02c:	e7e2      	b.n	2ffdcff4 <bsec_program_otp+0x20>
2ffdd02e:	4e1f      	ldr	r6, [pc, #124]	; (2ffdd0ac <bsec_program_otp+0xd8>)
2ffdd030:	6832      	ldr	r2, [r6, #0]
2ffdd032:	6912      	ldr	r2, [r2, #16]
2ffdd034:	0710      	lsls	r0, r2, #28
2ffdd036:	d502      	bpl.n	2ffdd03e <bsec_program_otp+0x6a>
2ffdd038:	481d      	ldr	r0, [pc, #116]	; (2ffdd0b0 <bsec_program_otp+0xdc>)
2ffdd03a:	f7fe f8cb 	bl	2ffdb1d4 <tf_log>
2ffdd03e:	f7ff fe51 	bl	2ffdcce4 <bsec_get_status>
2ffdd042:	0681      	lsls	r1, r0, #26
2ffdd044:	d407      	bmi.n	2ffdd056 <bsec_program_otp+0x82>
2ffdd046:	2001      	movs	r0, #1
2ffdd048:	f7ff fe52 	bl	2ffdccf0 <bsec_power_safmem>
2ffdd04c:	4604      	mov	r4, r0
2ffdd04e:	2800      	cmp	r0, #0
2ffdd050:	d1d0      	bne.n	2ffdcff4 <bsec_program_otp+0x20>
2ffdd052:	f04f 0801 	mov.w	r8, #1
2ffdd056:	f7ff fd6f 	bl	2ffdcb38 <bsec_lock>
2ffdd05a:	6833      	ldr	r3, [r6, #0]
2ffdd05c:	f445 7280 	orr.w	r2, r5, #256	; 0x100
2ffdd060:	609f      	str	r7, [r3, #8]
2ffdd062:	605a      	str	r2, [r3, #4]
2ffdd064:	f7ff fe3e 	bl	2ffdcce4 <bsec_get_status>
2ffdd068:	0702      	lsls	r2, r0, #28
2ffdd06a:	d4fb      	bmi.n	2ffdd064 <bsec_program_otp+0x90>
2ffdd06c:	f7ff fe3a 	bl	2ffdcce4 <bsec_get_status>
2ffdd070:	06c3      	lsls	r3, r0, #27
2ffdd072:	d412      	bmi.n	2ffdd09a <bsec_program_otp+0xc6>
2ffdd074:	2101      	movs	r1, #1
2ffdd076:	4628      	mov	r0, r5
2ffdd078:	f7ff fd82 	bl	2ffdcb80 <bsec_check_error>
2ffdd07c:	4604      	mov	r4, r0
2ffdd07e:	f7ff fd67 	bl	2ffdcb50 <bsec_unlock>
2ffdd082:	f1b8 0f00 	cmp.w	r8, #0
2ffdd086:	d0b5      	beq.n	2ffdcff4 <bsec_program_otp+0x20>
2ffdd088:	2000      	movs	r0, #0
2ffdd08a:	f7ff fe31 	bl	2ffdccf0 <bsec_power_safmem>
2ffdd08e:	2800      	cmp	r0, #0
2ffdd090:	d0b0      	beq.n	2ffdcff4 <bsec_program_otp+0x20>
2ffdd092:	f7fe f93d 	bl	2ffdb310 <console_flush>
2ffdd096:	f7f9 e8e4 	blx	2ffd6260 <do_panic>
2ffdd09a:	f06f 0404 	mvn.w	r4, #4
2ffdd09e:	e7ee      	b.n	2ffdd07e <bsec_program_otp+0xaa>
2ffdd0a0:	2ffe3f3a 	.word	0x2ffe3f3a
2ffdd0a4:	2ffe3f63 	.word	0x2ffe3f63
2ffdd0a8:	2ffe3f8a 	.word	0x2ffe3f8a
2ffdd0ac:	2ffe7eac 	.word	0x2ffe7eac
2ffdd0b0:	2ffe3fb3 	.word	0x2ffe3fb3

2ffdd0b4 <bsec_shadow_read_otp>:
2ffdd0b4:	b570      	push	{r4, r5, r6, lr}
2ffdd0b6:	4606      	mov	r6, r0
2ffdd0b8:	4608      	mov	r0, r1
2ffdd0ba:	460d      	mov	r5, r1
2ffdd0bc:	f7ff feba 	bl	2ffdce34 <bsec_shadow_register>
2ffdd0c0:	4604      	mov	r4, r0
2ffdd0c2:	b130      	cbz	r0, 2ffdd0d2 <bsec_shadow_read_otp+0x1e>
2ffdd0c4:	4602      	mov	r2, r0
2ffdd0c6:	4629      	mov	r1, r5
2ffdd0c8:	4807      	ldr	r0, [pc, #28]	; (2ffdd0e8 <bsec_shadow_read_otp+0x34>)
2ffdd0ca:	f7fe f883 	bl	2ffdb1d4 <tf_log>
2ffdd0ce:	4620      	mov	r0, r4
2ffdd0d0:	bd70      	pop	{r4, r5, r6, pc}
2ffdd0d2:	4629      	mov	r1, r5
2ffdd0d4:	4630      	mov	r0, r6
2ffdd0d6:	f7ff fdef 	bl	2ffdccb8 <bsec_read_otp>
2ffdd0da:	4604      	mov	r4, r0
2ffdd0dc:	2800      	cmp	r0, #0
2ffdd0de:	d0f6      	beq.n	2ffdd0ce <bsec_shadow_read_otp+0x1a>
2ffdd0e0:	4602      	mov	r2, r0
2ffdd0e2:	4802      	ldr	r0, [pc, #8]	; (2ffdd0ec <bsec_shadow_read_otp+0x38>)
2ffdd0e4:	e7f1      	b.n	2ffdd0ca <bsec_shadow_read_otp+0x16>
2ffdd0e6:	bf00      	nop
2ffdd0e8:	2ffe3fe2 	.word	0x2ffe3fe2
2ffdd0ec:	2ffe4000 	.word	0x2ffe4000

2ffdd0f0 <fdt_osc_read_freq>:
2ffdd0f0:	b5f7      	push	{r0, r1, r2, r4, r5, r6, r7, lr}
2ffdd0f2:	4607      	mov	r7, r0
2ffdd0f4:	4668      	mov	r0, sp
2ffdd0f6:	460e      	mov	r6, r1
2ffdd0f8:	f003 f9b2 	bl	2ffe0460 <fdt_get_address>
2ffdd0fc:	2800      	cmp	r0, #0
2ffdd0fe:	d03d      	beq.n	2ffdd17c <fdt_osc_read_freq+0x8c>
2ffdd100:	4921      	ldr	r1, [pc, #132]	; (2ffdd188 <fdt_osc_read_freq+0x98>)
2ffdd102:	9800      	ldr	r0, [sp, #0]
2ffdd104:	f004 f85d 	bl	2ffe11c2 <fdt_path_offset>
2ffdd108:	1e01      	subs	r1, r0, #0
2ffdd10a:	db3a      	blt.n	2ffdd182 <fdt_osc_read_freq+0x92>
2ffdd10c:	9800      	ldr	r0, [sp, #0]
2ffdd10e:	f003 fe4a 	bl	2ffe0da6 <fdt_first_subnode>
2ffdd112:	2800      	cmp	r0, #0
2ffdd114:	4605      	mov	r5, r0
2ffdd116:	da02      	bge.n	2ffdd11e <fdt_osc_read_freq+0x2e>
2ffdd118:	2400      	movs	r4, #0
2ffdd11a:	6034      	str	r4, [r6, #0]
2ffdd11c:	e006      	b.n	2ffdd12c <fdt_osc_read_freq+0x3c>
2ffdd11e:	9800      	ldr	r0, [sp, #0]
2ffdd120:	aa01      	add	r2, sp, #4
2ffdd122:	4629      	mov	r1, r5
2ffdd124:	f003 feca 	bl	2ffe0ebc <fdt_get_name>
2ffdd128:	b918      	cbnz	r0, 2ffdd132 <fdt_osc_read_freq+0x42>
2ffdd12a:	9c01      	ldr	r4, [sp, #4]
2ffdd12c:	4620      	mov	r0, r4
2ffdd12e:	b003      	add	sp, #12
2ffdd130:	bdf0      	pop	{r4, r5, r6, r7, pc}
2ffdd132:	9a01      	ldr	r2, [sp, #4]
2ffdd134:	4639      	mov	r1, r7
2ffdd136:	f004 fb7e 	bl	2ffe1836 <strncmp>
2ffdd13a:	4604      	mov	r4, r0
2ffdd13c:	b9c8      	cbnz	r0, 2ffdd172 <fdt_osc_read_freq+0x82>
2ffdd13e:	4628      	mov	r0, r5
2ffdd140:	f003 f9aa 	bl	2ffe0498 <fdt_get_status>
2ffdd144:	b1a8      	cbz	r0, 2ffdd172 <fdt_osc_read_freq+0x82>
2ffdd146:	4a11      	ldr	r2, [pc, #68]	; (2ffdd18c <fdt_osc_read_freq+0x9c>)
2ffdd148:	ab01      	add	r3, sp, #4
2ffdd14a:	9800      	ldr	r0, [sp, #0]
2ffdd14c:	4629      	mov	r1, r5
2ffdd14e:	f003 ffa6 	bl	2ffe109e <fdt_getprop>
2ffdd152:	2800      	cmp	r0, #0
2ffdd154:	d0e9      	beq.n	2ffdd12a <fdt_osc_read_freq+0x3a>
2ffdd156:	6802      	ldr	r2, [r0, #0]
2ffdd158:	0e13      	lsrs	r3, r2, #24
2ffdd15a:	f3c2 2107 	ubfx	r1, r2, #8, #8
2ffdd15e:	ea43 6302 	orr.w	r3, r3, r2, lsl #24
2ffdd162:	f3c2 4207 	ubfx	r2, r2, #16, #8
2ffdd166:	ea43 4301 	orr.w	r3, r3, r1, lsl #16
2ffdd16a:	ea43 2302 	orr.w	r3, r3, r2, lsl #8
2ffdd16e:	6033      	str	r3, [r6, #0]
2ffdd170:	e7dc      	b.n	2ffdd12c <fdt_osc_read_freq+0x3c>
2ffdd172:	9800      	ldr	r0, [sp, #0]
2ffdd174:	4629      	mov	r1, r5
2ffdd176:	f003 fe29 	bl	2ffe0dcc <fdt_next_subnode>
2ffdd17a:	e7ca      	b.n	2ffdd112 <fdt_osc_read_freq+0x22>
2ffdd17c:	f06f 0401 	mvn.w	r4, #1
2ffdd180:	e7d4      	b.n	2ffdd12c <fdt_osc_read_freq+0x3c>
2ffdd182:	f04f 34ff 	mov.w	r4, #4294967295	; 0xffffffff
2ffdd186:	e7d1      	b.n	2ffdd12c <fdt_osc_read_freq+0x3c>
2ffdd188:	2ffe4019 	.word	0x2ffe4019
2ffdd18c:	2ffe4021 	.word	0x2ffe4021

2ffdd190 <fdt_osc_read_bool>:
2ffdd190:	b5f7      	push	{r0, r1, r2, r4, r5, r6, r7, lr}
2ffdd192:	4605      	mov	r5, r0
2ffdd194:	4668      	mov	r0, sp
2ffdd196:	460e      	mov	r6, r1
2ffdd198:	f003 f962 	bl	2ffe0460 <fdt_get_address>
2ffdd19c:	b910      	cbnz	r0, 2ffdd1a4 <fdt_osc_read_bool+0x14>
2ffdd19e:	2000      	movs	r0, #0
2ffdd1a0:	b003      	add	sp, #12
2ffdd1a2:	bdf0      	pop	{r4, r5, r6, r7, pc}
2ffdd1a4:	2d05      	cmp	r5, #5
2ffdd1a6:	d8fa      	bhi.n	2ffdd19e <fdt_osc_read_bool+0xe>
2ffdd1a8:	4914      	ldr	r1, [pc, #80]	; (2ffdd1fc <fdt_osc_read_bool+0x6c>)
2ffdd1aa:	9800      	ldr	r0, [sp, #0]
2ffdd1ac:	f004 f809 	bl	2ffe11c2 <fdt_path_offset>
2ffdd1b0:	1e01      	subs	r1, r0, #0
2ffdd1b2:	dbf4      	blt.n	2ffdd19e <fdt_osc_read_bool+0xe>
2ffdd1b4:	9800      	ldr	r0, [sp, #0]
2ffdd1b6:	4f12      	ldr	r7, [pc, #72]	; (2ffdd200 <fdt_osc_read_bool+0x70>)
2ffdd1b8:	f003 fdf5 	bl	2ffe0da6 <fdt_first_subnode>
2ffdd1bc:	4604      	mov	r4, r0
2ffdd1be:	2c00      	cmp	r4, #0
2ffdd1c0:	dbed      	blt.n	2ffdd19e <fdt_osc_read_bool+0xe>
2ffdd1c2:	9800      	ldr	r0, [sp, #0]
2ffdd1c4:	aa01      	add	r2, sp, #4
2ffdd1c6:	4621      	mov	r1, r4
2ffdd1c8:	f003 fe78 	bl	2ffe0ebc <fdt_get_name>
2ffdd1cc:	2800      	cmp	r0, #0
2ffdd1ce:	d0e6      	beq.n	2ffdd19e <fdt_osc_read_bool+0xe>
2ffdd1d0:	9a01      	ldr	r2, [sp, #4]
2ffdd1d2:	f857 1025 	ldr.w	r1, [r7, r5, lsl #2]
2ffdd1d6:	f004 fb2e 	bl	2ffe1836 <strncmp>
2ffdd1da:	4603      	mov	r3, r0
2ffdd1dc:	b128      	cbz	r0, 2ffdd1ea <fdt_osc_read_bool+0x5a>
2ffdd1de:	9800      	ldr	r0, [sp, #0]
2ffdd1e0:	4621      	mov	r1, r4
2ffdd1e2:	f003 fdf3 	bl	2ffe0dcc <fdt_next_subnode>
2ffdd1e6:	4604      	mov	r4, r0
2ffdd1e8:	e7e9      	b.n	2ffdd1be <fdt_osc_read_bool+0x2e>
2ffdd1ea:	9800      	ldr	r0, [sp, #0]
2ffdd1ec:	4632      	mov	r2, r6
2ffdd1ee:	4621      	mov	r1, r4
2ffdd1f0:	f003 ff55 	bl	2ffe109e <fdt_getprop>
2ffdd1f4:	2800      	cmp	r0, #0
2ffdd1f6:	d0f2      	beq.n	2ffdd1de <fdt_osc_read_bool+0x4e>
2ffdd1f8:	2001      	movs	r0, #1
2ffdd1fa:	e7d1      	b.n	2ffdd1a0 <fdt_osc_read_bool+0x10>
2ffdd1fc:	2ffe4019 	.word	0x2ffe4019
2ffdd200:	2ffe62a8 	.word	0x2ffe62a8

2ffdd204 <fdt_osc_read_uint32_default>:
2ffdd204:	e92d 41f3 	stmdb	sp!, {r0, r1, r4, r5, r6, r7, r8, lr}
2ffdd208:	4606      	mov	r6, r0
2ffdd20a:	4668      	mov	r0, sp
2ffdd20c:	460f      	mov	r7, r1
2ffdd20e:	4615      	mov	r5, r2
2ffdd210:	f003 f926 	bl	2ffe0460 <fdt_get_address>
2ffdd214:	b338      	cbz	r0, 2ffdd266 <fdt_osc_read_uint32_default+0x62>
2ffdd216:	2e05      	cmp	r6, #5
2ffdd218:	d825      	bhi.n	2ffdd266 <fdt_osc_read_uint32_default+0x62>
2ffdd21a:	4915      	ldr	r1, [pc, #84]	; (2ffdd270 <fdt_osc_read_uint32_default+0x6c>)
2ffdd21c:	9800      	ldr	r0, [sp, #0]
2ffdd21e:	f003 ffd0 	bl	2ffe11c2 <fdt_path_offset>
2ffdd222:	1e01      	subs	r1, r0, #0
2ffdd224:	db1f      	blt.n	2ffdd266 <fdt_osc_read_uint32_default+0x62>
2ffdd226:	9800      	ldr	r0, [sp, #0]
2ffdd228:	f8df 8048 	ldr.w	r8, [pc, #72]	; 2ffdd274 <fdt_osc_read_uint32_default+0x70>
2ffdd22c:	f003 fdbb 	bl	2ffe0da6 <fdt_first_subnode>
2ffdd230:	4604      	mov	r4, r0
2ffdd232:	2c00      	cmp	r4, #0
2ffdd234:	db17      	blt.n	2ffdd266 <fdt_osc_read_uint32_default+0x62>
2ffdd236:	9800      	ldr	r0, [sp, #0]
2ffdd238:	aa01      	add	r2, sp, #4
2ffdd23a:	4621      	mov	r1, r4
2ffdd23c:	f003 fe3e 	bl	2ffe0ebc <fdt_get_name>
2ffdd240:	b188      	cbz	r0, 2ffdd266 <fdt_osc_read_uint32_default+0x62>
2ffdd242:	9a01      	ldr	r2, [sp, #4]
2ffdd244:	f858 1026 	ldr.w	r1, [r8, r6, lsl #2]
2ffdd248:	f004 faf5 	bl	2ffe1836 <strncmp>
2ffdd24c:	b128      	cbz	r0, 2ffdd25a <fdt_osc_read_uint32_default+0x56>
2ffdd24e:	9800      	ldr	r0, [sp, #0]
2ffdd250:	4621      	mov	r1, r4
2ffdd252:	f003 fdbb 	bl	2ffe0dcc <fdt_next_subnode>
2ffdd256:	4604      	mov	r4, r0
2ffdd258:	e7eb      	b.n	2ffdd232 <fdt_osc_read_uint32_default+0x2e>
2ffdd25a:	462a      	mov	r2, r5
2ffdd25c:	4639      	mov	r1, r7
2ffdd25e:	4620      	mov	r0, r4
2ffdd260:	f003 f94c 	bl	2ffe04fc <fdt_read_uint32_default>
2ffdd264:	4605      	mov	r5, r0
2ffdd266:	4628      	mov	r0, r5
2ffdd268:	b002      	add	sp, #8
2ffdd26a:	e8bd 81f0 	ldmia.w	sp!, {r4, r5, r6, r7, r8, pc}
2ffdd26e:	bf00      	nop
2ffdd270:	2ffe4019 	.word	0x2ffe4019
2ffdd274:	2ffe62a8 	.word	0x2ffe62a8

2ffdd278 <fdt_get_rcc_node>:
2ffdd278:	4801      	ldr	r0, [pc, #4]	; (2ffdd280 <fdt_get_rcc_node+0x8>)
2ffdd27a:	f003 b9ed 	b.w	2ffe0658 <dt_get_node_by_compatible>
2ffdd27e:	bf00      	nop
2ffdd280:	2ffe4031 	.word	0x2ffe4031

2ffdd284 <fdt_rcc_read_uint32_array>:
2ffdd284:	b570      	push	{r4, r5, r6, lr}
2ffdd286:	4604      	mov	r4, r0
2ffdd288:	460d      	mov	r5, r1
2ffdd28a:	4616      	mov	r6, r2
2ffdd28c:	f7ff fff4 	bl	2ffdd278 <fdt_get_rcc_node>
2ffdd290:	2800      	cmp	r0, #0
2ffdd292:	db06      	blt.n	2ffdd2a2 <fdt_rcc_read_uint32_array+0x1e>
2ffdd294:	4633      	mov	r3, r6
2ffdd296:	462a      	mov	r2, r5
2ffdd298:	4621      	mov	r1, r4
2ffdd29a:	e8bd 4070 	ldmia.w	sp!, {r4, r5, r6, lr}
2ffdd29e:	f003 b941 	b.w	2ffe0524 <fdt_read_uint32_array>
2ffdd2a2:	f04f 30ff 	mov.w	r0, #4294967295	; 0xffffffff
2ffdd2a6:	bd70      	pop	{r4, r5, r6, pc}

2ffdd2a8 <fdt_rcc_subnode_offset>:
2ffdd2a8:	b513      	push	{r0, r1, r4, lr}
2ffdd2aa:	4604      	mov	r4, r0
2ffdd2ac:	a801      	add	r0, sp, #4
2ffdd2ae:	f003 f8d7 	bl	2ffe0460 <fdt_get_address>
2ffdd2b2:	b170      	cbz	r0, 2ffdd2d2 <fdt_rcc_subnode_offset+0x2a>
2ffdd2b4:	f7ff ffe0 	bl	2ffdd278 <fdt_get_rcc_node>
2ffdd2b8:	1e01      	subs	r1, r0, #0
2ffdd2ba:	da03      	bge.n	2ffdd2c4 <fdt_rcc_subnode_offset+0x1c>
2ffdd2bc:	f04f 30ff 	mov.w	r0, #4294967295	; 0xffffffff
2ffdd2c0:	b002      	add	sp, #8
2ffdd2c2:	bd10      	pop	{r4, pc}
2ffdd2c4:	9801      	ldr	r0, [sp, #4]
2ffdd2c6:	4622      	mov	r2, r4
2ffdd2c8:	f003 fe67 	bl	2ffe0f9a <fdt_subnode_offset>
2ffdd2cc:	2800      	cmp	r0, #0
2ffdd2ce:	dcf7      	bgt.n	2ffdd2c0 <fdt_rcc_subnode_offset+0x18>
2ffdd2d0:	e7f4      	b.n	2ffdd2bc <fdt_rcc_subnode_offset+0x14>
2ffdd2d2:	f06f 0001 	mvn.w	r0, #1
2ffdd2d6:	e7f3      	b.n	2ffdd2c0 <fdt_rcc_subnode_offset+0x18>

2ffdd2d8 <fdt_rcc_read_prop>:
2ffdd2d8:	b537      	push	{r0, r1, r2, r4, r5, lr}
2ffdd2da:	4605      	mov	r5, r0
2ffdd2dc:	a801      	add	r0, sp, #4
2ffdd2de:	460c      	mov	r4, r1
2ffdd2e0:	f003 f8be 	bl	2ffe0460 <fdt_get_address>
2ffdd2e4:	b910      	cbnz	r0, 2ffdd2ec <fdt_rcc_read_prop+0x14>
2ffdd2e6:	2000      	movs	r0, #0
2ffdd2e8:	b003      	add	sp, #12
2ffdd2ea:	bd30      	pop	{r4, r5, pc}
2ffdd2ec:	f7ff ffc4 	bl	2ffdd278 <fdt_get_rcc_node>
2ffdd2f0:	1e01      	subs	r1, r0, #0
2ffdd2f2:	dbf8      	blt.n	2ffdd2e6 <fdt_rcc_read_prop+0xe>
2ffdd2f4:	9801      	ldr	r0, [sp, #4]
2ffdd2f6:	466b      	mov	r3, sp
2ffdd2f8:	462a      	mov	r2, r5
2ffdd2fa:	f003 fed0 	bl	2ffe109e <fdt_getprop>
2ffdd2fe:	2800      	cmp	r0, #0
2ffdd300:	d0f2      	beq.n	2ffdd2e8 <fdt_rcc_read_prop+0x10>
2ffdd302:	9b00      	ldr	r3, [sp, #0]
2ffdd304:	6023      	str	r3, [r4, #0]
2ffdd306:	e7ef      	b.n	2ffdd2e8 <fdt_rcc_read_prop+0x10>

2ffdd308 <fdt_get_rcc_secure_status>:
2ffdd308:	b508      	push	{r3, lr}
2ffdd30a:	f7ff ffb5 	bl	2ffdd278 <fdt_get_rcc_node>
2ffdd30e:	2800      	cmp	r0, #0
2ffdd310:	db04      	blt.n	2ffdd31c <fdt_get_rcc_secure_status+0x14>
2ffdd312:	f003 f8c1 	bl	2ffe0498 <fdt_get_status>
2ffdd316:	f3c0 0040 	ubfx	r0, r0, #1, #1
2ffdd31a:	bd08      	pop	{r3, pc}
2ffdd31c:	2000      	movs	r0, #0
2ffdd31e:	e7fc      	b.n	2ffdd31a <fdt_get_rcc_secure_status+0x12>

2ffdd320 <fdt_get_clock_id>:
2ffdd320:	b513      	push	{r0, r1, r4, lr}
2ffdd322:	4604      	mov	r4, r0
2ffdd324:	a801      	add	r0, sp, #4
2ffdd326:	f003 f89b 	bl	2ffe0460 <fdt_get_address>
2ffdd32a:	b1a0      	cbz	r0, 2ffdd356 <fdt_get_clock_id+0x36>
2ffdd32c:	4a0d      	ldr	r2, [pc, #52]	; (2ffdd364 <fdt_get_clock_id+0x44>)
2ffdd32e:	2300      	movs	r3, #0
2ffdd330:	9801      	ldr	r0, [sp, #4]
2ffdd332:	4621      	mov	r1, r4
2ffdd334:	f003 feb3 	bl	2ffe109e <fdt_getprop>
2ffdd338:	b180      	cbz	r0, 2ffdd35c <fdt_get_clock_id+0x3c>
2ffdd33a:	6843      	ldr	r3, [r0, #4]
2ffdd33c:	0e18      	lsrs	r0, r3, #24
2ffdd33e:	f3c3 2207 	ubfx	r2, r3, #8, #8
2ffdd342:	ea40 6003 	orr.w	r0, r0, r3, lsl #24
2ffdd346:	f3c3 4307 	ubfx	r3, r3, #16, #8
2ffdd34a:	ea40 4002 	orr.w	r0, r0, r2, lsl #16
2ffdd34e:	ea40 2003 	orr.w	r0, r0, r3, lsl #8
2ffdd352:	b002      	add	sp, #8
2ffdd354:	bd10      	pop	{r4, pc}
2ffdd356:	f06f 0001 	mvn.w	r0, #1
2ffdd35a:	e7fa      	b.n	2ffdd352 <fdt_get_clock_id+0x32>
2ffdd35c:	f04f 30ff 	mov.w	r0, #4294967295	; 0xffffffff
2ffdd360:	e7f7      	b.n	2ffdd352 <fdt_get_clock_id+0x32>
2ffdd362:	bf00      	nop
2ffdd364:	2ffe401a 	.word	0x2ffe401a

2ffdd368 <fdt_get_uart_clock_freq>:
2ffdd368:	b513      	push	{r0, r1, r4, lr}
2ffdd36a:	4604      	mov	r4, r0
2ffdd36c:	a801      	add	r0, sp, #4
2ffdd36e:	f003 f877 	bl	2ffe0460 <fdt_get_address>
2ffdd372:	b910      	cbnz	r0, 2ffdd37a <fdt_get_uart_clock_freq+0x12>
2ffdd374:	2000      	movs	r0, #0
2ffdd376:	b002      	add	sp, #8
2ffdd378:	bd10      	pop	{r4, pc}
2ffdd37a:	4806      	ldr	r0, [pc, #24]	; (2ffdd394 <fdt_get_uart_clock_freq+0x2c>)
2ffdd37c:	4621      	mov	r1, r4
2ffdd37e:	f003 f97f 	bl	2ffe0680 <dt_match_instance_by_compatible>
2ffdd382:	2800      	cmp	r0, #0
2ffdd384:	dbf6      	blt.n	2ffdd374 <fdt_get_uart_clock_freq+0xc>
2ffdd386:	f7ff ffcb 	bl	2ffdd320 <fdt_get_clock_id>
2ffdd38a:	2800      	cmp	r0, #0
2ffdd38c:	dbf2      	blt.n	2ffdd374 <fdt_get_uart_clock_freq+0xc>
2ffdd38e:	f000 fd22 	bl	2ffdddd6 <stm32mp_clk_get_rate>
2ffdd392:	e7f0      	b.n	2ffdd376 <fdt_get_uart_clock_freq+0xe>
2ffdd394:	2ffe4041 	.word	0x2ffe4041

2ffdd398 <fdt_is_pll1_predefined>:
2ffdd398:	b508      	push	{r3, lr}
2ffdd39a:	4803      	ldr	r0, [pc, #12]	; (2ffdd3a8 <fdt_is_pll1_predefined+0x10>)
2ffdd39c:	f7ff ff84 	bl	2ffdd2a8 <fdt_rcc_subnode_offset>
2ffdd3a0:	e8bd 4008 	ldmia.w	sp!, {r3, lr}
2ffdd3a4:	f003 b868 	b.w	2ffe0478 <fdt_check_node>
2ffdd3a8:	2ffe4051 	.word	0x2ffe4051

2ffdd3ac <stm32mp_stgen_get_counter>:
2ffdd3ac:	4b02      	ldr	r3, [pc, #8]	; (2ffdd3b8 <stm32mp_stgen_get_counter+0xc>)
2ffdd3ae:	6819      	ldr	r1, [r3, #0]
2ffdd3b0:	f853 0c04 	ldr.w	r0, [r3, #-4]
2ffdd3b4:	4770      	bx	lr
2ffdd3b6:	bf00      	nop
2ffdd3b8:	5c00800c 	.word	0x5c00800c

2ffdd3bc <stm32mp_stgen_config>:
2ffdd3bc:	b570      	push	{r4, r5, r6, lr}
2ffdd3be:	4604      	mov	r4, r0
2ffdd3c0:	4e10      	ldr	r6, [pc, #64]	; (2ffdd404 <stm32mp_stgen_config+0x48>)
2ffdd3c2:	6832      	ldr	r2, [r6, #0]
2ffdd3c4:	4290      	cmp	r0, r2
2ffdd3c6:	d01c      	beq.n	2ffdd402 <stm32mp_stgen_config+0x46>
2ffdd3c8:	4d0f      	ldr	r5, [pc, #60]	; (2ffdd408 <stm32mp_stgen_config+0x4c>)
2ffdd3ca:	682b      	ldr	r3, [r5, #0]
2ffdd3cc:	f023 0301 	bic.w	r3, r3, #1
2ffdd3d0:	602b      	str	r3, [r5, #0]
2ffdd3d2:	f7ff ffeb 	bl	2ffdd3ac <stm32mp_stgen_get_counter>
2ffdd3d6:	460b      	mov	r3, r1
2ffdd3d8:	fba4 0100 	umull	r0, r1, r4, r0
2ffdd3dc:	fb04 1103 	mla	r1, r4, r3, r1
2ffdd3e0:	2300      	movs	r3, #0
2ffdd3e2:	f003 ebc4 	blx	2ffe0b6c <__aeabi_uldivmod>
2ffdd3e6:	4b09      	ldr	r3, [pc, #36]	; (2ffdd40c <stm32mp_stgen_config+0x50>)
2ffdd3e8:	6018      	str	r0, [r3, #0]
2ffdd3ea:	6059      	str	r1, [r3, #4]
2ffdd3ec:	6034      	str	r4, [r6, #0]
2ffdd3ee:	682b      	ldr	r3, [r5, #0]
2ffdd3f0:	f043 0301 	orr.w	r3, r3, #1
2ffdd3f4:	602b      	str	r3, [r5, #0]
2ffdd3f6:	ee0e 4f10 	mcr	15, 0, r4, cr14, cr0, {0}
2ffdd3fa:	e8bd 4070 	ldmia.w	sp!, {r4, r5, r6, lr}
2ffdd3fe:	f7ff bb79 	b.w	2ffdcaf4 <generic_delay_timer_init>
2ffdd402:	bd70      	pop	{r4, r5, r6, pc}
2ffdd404:	5c008020 	.word	0x5c008020
2ffdd408:	5c008000 	.word	0x5c008000
2ffdd40c:	5c008008 	.word	0x5c008008

2ffdd410 <clock_is_always_on>:
2ffdd410:	2805      	cmp	r0, #5
2ffdd412:	d909      	bls.n	2ffdd428 <clock_is_always_on+0x18>
2ffdd414:	f1a0 03b4 	sub.w	r3, r0, #180	; 0xb4
2ffdd418:	2b08      	cmp	r3, #8
2ffdd41a:	d905      	bls.n	2ffdd428 <clock_is_always_on+0x18>
2ffdd41c:	38c2      	subs	r0, #194	; 0xc2
2ffdd41e:	2802      	cmp	r0, #2
2ffdd420:	bf8c      	ite	hi
2ffdd422:	2000      	movhi	r0, #0
2ffdd424:	2001      	movls	r0, #1
2ffdd426:	4770      	bx	lr
2ffdd428:	2001      	movs	r0, #1
2ffdd42a:	4770      	bx	lr

2ffdd42c <stm32mp1_read_pll_freq>:
2ffdd42c:	e92d 43f8 	stmdb	sp!, {r3, r4, r5, r6, r7, r8, r9, lr}
2ffdd430:	4606      	mov	r6, r0
2ffdd432:	f8df 90ac 	ldr.w	r9, [pc, #172]	; 2ffdd4e0 <stm32mp1_read_pll_freq+0xb4>
2ffdd436:	460c      	mov	r4, r1
2ffdd438:	f7fe f89c 	bl	2ffdb574 <stm32mp_rcc_base>
2ffdd43c:	eb09 1746 	add.w	r7, r9, r6, lsl #5
2ffdd440:	893b      	ldrh	r3, [r7, #8]
2ffdd442:	581d      	ldr	r5, [r3, r0]
2ffdd444:	4b24      	ldr	r3, [pc, #144]	; (2ffdd4d8 <stm32mp1_read_pll_freq+0xac>)
2ffdd446:	5d18      	ldrb	r0, [r3, r4]
2ffdd448:	40c5      	lsrs	r5, r0
2ffdd44a:	f7fe f893 	bl	2ffdb574 <stm32mp_rcc_base>
2ffdd44e:	88fb      	ldrh	r3, [r7, #6]
2ffdd450:	f005 057f 	and.w	r5, r5, #127	; 0x7f
2ffdd454:	581c      	ldr	r4, [r3, r0]
2ffdd456:	897b      	ldrh	r3, [r7, #10]
2ffdd458:	f853 8000 	ldr.w	r8, [r3, r0]
2ffdd45c:	f7fe f88a 	bl	2ffdb574 <stm32mp_rcc_base>
2ffdd460:	88bb      	ldrh	r3, [r7, #4]
2ffdd462:	581b      	ldr	r3, [r3, r0]
2ffdd464:	f003 0303 	and.w	r3, r3, #3
2ffdd468:	eb03 00c6 	add.w	r0, r3, r6, lsl #3
2ffdd46c:	3004      	adds	r0, #4
2ffdd46e:	f859 3020 	ldr.w	r3, [r9, r0, lsl #2]
2ffdd472:	f3c4 0008 	ubfx	r0, r4, #0, #9
2ffdd476:	2b05      	cmp	r3, #5
2ffdd478:	bf8e      	itee	hi
2ffdd47a:	2300      	movhi	r3, #0
2ffdd47c:	4a17      	ldrls	r2, [pc, #92]	; (2ffdd4dc <stm32mp1_read_pll_freq+0xb0>)
2ffdd47e:	f852 3023 	ldrls.w	r3, [r2, r3, lsl #2]
2ffdd482:	f418 3f80 	tst.w	r8, #65536	; 0x10000
2ffdd486:	f3c4 4205 	ubfx	r2, r4, #16, #6
2ffdd48a:	d01e      	beq.n	2ffdd4ca <stm32mp1_read_pll_freq+0x9e>
2ffdd48c:	f3c8 08cc 	ubfx	r8, r8, #3, #13
2ffdd490:	3001      	adds	r0, #1
2ffdd492:	bf2c      	ite	cs
2ffdd494:	2101      	movcs	r1, #1
2ffdd496:	2100      	movcc	r1, #0
2ffdd498:	0346      	lsls	r6, r0, #13
2ffdd49a:	034f      	lsls	r7, r1, #13
2ffdd49c:	eb16 0608 	adds.w	r6, r6, r8
2ffdd4a0:	ea47 47d0 	orr.w	r7, r7, r0, lsr #19
2ffdd4a4:	f147 0700 	adc.w	r7, r7, #0
2ffdd4a8:	3201      	adds	r2, #1
2ffdd4aa:	fba3 0106 	umull	r0, r1, r3, r6
2ffdd4ae:	fb03 1107 	mla	r1, r3, r7, r1
2ffdd4b2:	bf2c      	ite	cs
2ffdd4b4:	2301      	movcs	r3, #1
2ffdd4b6:	2300      	movcc	r3, #0
2ffdd4b8:	0352      	lsls	r2, r2, #13
2ffdd4ba:	035b      	lsls	r3, r3, #13
2ffdd4bc:	f003 eb56 	blx	2ffe0b6c <__aeabi_uldivmod>
2ffdd4c0:	3501      	adds	r5, #1
2ffdd4c2:	fbb0 f0f5 	udiv	r0, r0, r5
2ffdd4c6:	e8bd 83f8 	ldmia.w	sp!, {r3, r4, r5, r6, r7, r8, r9, pc}
2ffdd4ca:	fb00 3303 	mla	r3, r0, r3, r3
2ffdd4ce:	1c50      	adds	r0, r2, #1
2ffdd4d0:	fbb3 f0f0 	udiv	r0, r3, r0
2ffdd4d4:	e7f4      	b.n	2ffdd4c0 <stm32mp1_read_pll_freq+0x94>
2ffdd4d6:	bf00      	nop
2ffdd4d8:	2ffe42a5 	.word	0x2ffe42a5
2ffdd4dc:	2ffe7fe8 	.word	0x2ffe7fe8
2ffdd4e0:	2ffe4484 	.word	0x2ffe4484

2ffdd4e4 <get_clock_rate>:
2ffdd4e4:	b538      	push	{r3, r4, r5, lr}
2ffdd4e6:	4605      	mov	r5, r0
2ffdd4e8:	f7fe f844 	bl	2ffdb574 <stm32mp_rcc_base>
2ffdd4ec:	4604      	mov	r4, r0
2ffdd4ee:	2d21      	cmp	r5, #33	; 0x21
2ffdd4f0:	f200 8091 	bhi.w	2ffdd616 <get_clock_rate+0x132>
2ffdd4f4:	e8df f005 	tbb	[pc, r5]
2ffdd4f8:	98911f1c 	.word	0x98911f1c
2ffdd4fc:	1f1c8f9b 	.word	0x1f1c8f9b
2ffdd500:	9e229194 	.word	0x9e229194
2ffdd504:	a8a5a2a0 	.word	0xa8a5a2a0
2ffdd508:	b1afadaa 	.word	0xb1afadaa
2ffdd50c:	5633b6b4 	.word	0x5633b6b4
2ffdd510:	33335656 	.word	0x33335656
2ffdd514:	13853333 	.word	0x13853333
2ffdd518:	1156      	.short	0x1156
2ffdd51a:	4853      	ldr	r0, [pc, #332]	; (2ffdd668 <get_clock_rate+0x184>)
2ffdd51c:	bd38      	pop	{r3, r4, r5, pc}
2ffdd51e:	6a03      	ldr	r3, [r0, #32]
2ffdd520:	f003 0307 	and.w	r3, r3, #7
2ffdd524:	2b03      	cmp	r3, #3
2ffdd526:	d876      	bhi.n	2ffdd616 <get_clock_rate+0x132>
2ffdd528:	e8df f003 	tbb	[pc, r3]
2ffdd52c:	0e080502 	.word	0x0e080502
2ffdd530:	4b4e      	ldr	r3, [pc, #312]	; (2ffdd66c <get_clock_rate+0x188>)
2ffdd532:	6818      	ldr	r0, [r3, #0]
2ffdd534:	e7f2      	b.n	2ffdd51c <get_clock_rate+0x38>
2ffdd536:	4b4d      	ldr	r3, [pc, #308]	; (2ffdd66c <get_clock_rate+0x188>)
2ffdd538:	6858      	ldr	r0, [r3, #4]
2ffdd53a:	e7ef      	b.n	2ffdd51c <get_clock_rate+0x38>
2ffdd53c:	2100      	movs	r1, #0
2ffdd53e:	2000      	movs	r0, #0
2ffdd540:	e8bd 4038 	ldmia.w	sp!, {r3, r4, r5, lr}
2ffdd544:	f7ff bf72 	b.w	2ffdd42c <stm32mp1_read_pll_freq>
2ffdd548:	2100      	movs	r1, #0
2ffdd54a:	4608      	mov	r0, r1
2ffdd54c:	f7ff ff6e 	bl	2ffdd42c <stm32mp1_read_pll_freq>
2ffdd550:	6ae3      	ldr	r3, [r4, #44]	; 0x2c
2ffdd552:	4a47      	ldr	r2, [pc, #284]	; (2ffdd670 <get_clock_rate+0x18c>)
2ffdd554:	f003 0307 	and.w	r3, r3, #7
2ffdd558:	5cd3      	ldrb	r3, [r2, r3]
2ffdd55a:	40d8      	lsrs	r0, r3
2ffdd55c:	e7de      	b.n	2ffdd51c <get_clock_rate+0x38>
2ffdd55e:	6a43      	ldr	r3, [r0, #36]	; 0x24
2ffdd560:	f003 0307 	and.w	r3, r3, #7
2ffdd564:	2b01      	cmp	r3, #1
2ffdd566:	d011      	beq.n	2ffdd58c <get_clock_rate+0xa8>
2ffdd568:	2b02      	cmp	r3, #2
2ffdd56a:	d012      	beq.n	2ffdd592 <get_clock_rate+0xae>
2ffdd56c:	b9b3      	cbnz	r3, 2ffdd59c <get_clock_rate+0xb8>
2ffdd56e:	4b3f      	ldr	r3, [pc, #252]	; (2ffdd66c <get_clock_rate+0x188>)
2ffdd570:	6818      	ldr	r0, [r3, #0]
2ffdd572:	6b23      	ldr	r3, [r4, #48]	; 0x30
2ffdd574:	2d1a      	cmp	r5, #26
2ffdd576:	4a3f      	ldr	r2, [pc, #252]	; (2ffdd674 <get_clock_rate+0x190>)
2ffdd578:	f003 0307 	and.w	r3, r3, #7
2ffdd57c:	5cd3      	ldrb	r3, [r2, r3]
2ffdd57e:	fbb0 f0f3 	udiv	r0, r0, r3
2ffdd582:	d00d      	beq.n	2ffdd5a0 <get_clock_rate+0xbc>
2ffdd584:	2d1b      	cmp	r5, #27
2ffdd586:	d1c9      	bne.n	2ffdd51c <get_clock_rate+0x38>
2ffdd588:	6c23      	ldr	r3, [r4, #64]	; 0x40
2ffdd58a:	e7e2      	b.n	2ffdd552 <get_clock_rate+0x6e>
2ffdd58c:	4b37      	ldr	r3, [pc, #220]	; (2ffdd66c <get_clock_rate+0x188>)
2ffdd58e:	6858      	ldr	r0, [r3, #4]
2ffdd590:	e7ef      	b.n	2ffdd572 <get_clock_rate+0x8e>
2ffdd592:	2100      	movs	r1, #0
2ffdd594:	2001      	movs	r0, #1
2ffdd596:	f7ff ff49 	bl	2ffdd42c <stm32mp1_read_pll_freq>
2ffdd59a:	e7ea      	b.n	2ffdd572 <get_clock_rate+0x8e>
2ffdd59c:	2000      	movs	r0, #0
2ffdd59e:	e7e8      	b.n	2ffdd572 <get_clock_rate+0x8e>
2ffdd5a0:	6be3      	ldr	r3, [r4, #60]	; 0x3c
2ffdd5a2:	e7d6      	b.n	2ffdd552 <get_clock_rate+0x6e>
2ffdd5a4:	6c83      	ldr	r3, [r0, #72]	; 0x48
2ffdd5a6:	f003 0307 	and.w	r3, r3, #7
2ffdd5aa:	2b03      	cmp	r3, #3
2ffdd5ac:	d821      	bhi.n	2ffdd5f2 <get_clock_rate+0x10e>
2ffdd5ae:	e8df f003 	tbb	[pc, r3]
2ffdd5b2:	1502      	.short	0x1502
2ffdd5b4:	1b18      	.short	0x1b18
2ffdd5b6:	4b2d      	ldr	r3, [pc, #180]	; (2ffdd66c <get_clock_rate+0x188>)
2ffdd5b8:	6818      	ldr	r0, [r3, #0]
2ffdd5ba:	f8d4 3830 	ldr.w	r3, [r4, #2096]	; 0x830
2ffdd5be:	2d18      	cmp	r5, #24
2ffdd5c0:	4a2d      	ldr	r2, [pc, #180]	; (2ffdd678 <get_clock_rate+0x194>)
2ffdd5c2:	f003 030f 	and.w	r3, r3, #15
2ffdd5c6:	5cd3      	ldrb	r3, [r2, r3]
2ffdd5c8:	fa20 f003 	lsr.w	r0, r0, r3
2ffdd5cc:	d013      	beq.n	2ffdd5f6 <get_clock_rate+0x112>
2ffdd5ce:	2d19      	cmp	r5, #25
2ffdd5d0:	d014      	beq.n	2ffdd5fc <get_clock_rate+0x118>
2ffdd5d2:	2d17      	cmp	r5, #23
2ffdd5d4:	d1a2      	bne.n	2ffdd51c <get_clock_rate+0x38>
2ffdd5d6:	f8d4 3834 	ldr.w	r3, [r4, #2100]	; 0x834
2ffdd5da:	e7ba      	b.n	2ffdd552 <get_clock_rate+0x6e>
2ffdd5dc:	4b23      	ldr	r3, [pc, #140]	; (2ffdd66c <get_clock_rate+0x188>)
2ffdd5de:	6858      	ldr	r0, [r3, #4]
2ffdd5e0:	e7eb      	b.n	2ffdd5ba <get_clock_rate+0xd6>
2ffdd5e2:	4b22      	ldr	r3, [pc, #136]	; (2ffdd66c <get_clock_rate+0x188>)
2ffdd5e4:	6898      	ldr	r0, [r3, #8]
2ffdd5e6:	e7e8      	b.n	2ffdd5ba <get_clock_rate+0xd6>
2ffdd5e8:	2100      	movs	r1, #0
2ffdd5ea:	2002      	movs	r0, #2
2ffdd5ec:	f7ff ff1e 	bl	2ffdd42c <stm32mp1_read_pll_freq>
2ffdd5f0:	e7e3      	b.n	2ffdd5ba <get_clock_rate+0xd6>
2ffdd5f2:	2000      	movs	r0, #0
2ffdd5f4:	e7e1      	b.n	2ffdd5ba <get_clock_rate+0xd6>
2ffdd5f6:	f8d4 3838 	ldr.w	r3, [r4, #2104]	; 0x838
2ffdd5fa:	e7aa      	b.n	2ffdd552 <get_clock_rate+0x6e>
2ffdd5fc:	f8d4 383c 	ldr.w	r3, [r4, #2108]	; 0x83c
2ffdd600:	e7a7      	b.n	2ffdd552 <get_clock_rate+0x6e>
2ffdd602:	f8d0 30d0 	ldr.w	r3, [r0, #208]	; 0xd0
2ffdd606:	f003 0307 	and.w	r3, r3, #7
2ffdd60a:	2b01      	cmp	r3, #1
2ffdd60c:	d005      	beq.n	2ffdd61a <get_clock_rate+0x136>
2ffdd60e:	2b02      	cmp	r3, #2
2ffdd610:	d091      	beq.n	2ffdd536 <get_clock_rate+0x52>
2ffdd612:	2b00      	cmp	r3, #0
2ffdd614:	d08c      	beq.n	2ffdd530 <get_clock_rate+0x4c>
2ffdd616:	2000      	movs	r0, #0
2ffdd618:	e780      	b.n	2ffdd51c <get_clock_rate+0x38>
2ffdd61a:	4b14      	ldr	r3, [pc, #80]	; (2ffdd66c <get_clock_rate+0x188>)
2ffdd61c:	6898      	ldr	r0, [r3, #8]
2ffdd61e:	e77d      	b.n	2ffdd51c <get_clock_rate+0x38>
2ffdd620:	4b12      	ldr	r3, [pc, #72]	; (2ffdd66c <get_clock_rate+0x188>)
2ffdd622:	6858      	ldr	r0, [r3, #4]
2ffdd624:	0840      	lsrs	r0, r0, #1
2ffdd626:	e779      	b.n	2ffdd51c <get_clock_rate+0x38>
2ffdd628:	4b10      	ldr	r3, [pc, #64]	; (2ffdd66c <get_clock_rate+0x188>)
2ffdd62a:	68d8      	ldr	r0, [r3, #12]
2ffdd62c:	e776      	b.n	2ffdd51c <get_clock_rate+0x38>
2ffdd62e:	4b0f      	ldr	r3, [pc, #60]	; (2ffdd66c <get_clock_rate+0x188>)
2ffdd630:	6918      	ldr	r0, [r3, #16]
2ffdd632:	e773      	b.n	2ffdd51c <get_clock_rate+0x38>
2ffdd634:	2101      	movs	r1, #1
2ffdd636:	e782      	b.n	2ffdd53e <get_clock_rate+0x5a>
2ffdd638:	2102      	movs	r1, #2
2ffdd63a:	e780      	b.n	2ffdd53e <get_clock_rate+0x5a>
2ffdd63c:	2100      	movs	r1, #0
2ffdd63e:	2001      	movs	r0, #1
2ffdd640:	e77e      	b.n	2ffdd540 <get_clock_rate+0x5c>
2ffdd642:	2101      	movs	r1, #1
2ffdd644:	4608      	mov	r0, r1
2ffdd646:	e77b      	b.n	2ffdd540 <get_clock_rate+0x5c>
2ffdd648:	2102      	movs	r1, #2
2ffdd64a:	e7f8      	b.n	2ffdd63e <get_clock_rate+0x15a>
2ffdd64c:	2100      	movs	r1, #0
2ffdd64e:	2002      	movs	r0, #2
2ffdd650:	e776      	b.n	2ffdd540 <get_clock_rate+0x5c>
2ffdd652:	2101      	movs	r1, #1
2ffdd654:	e7fb      	b.n	2ffdd64e <get_clock_rate+0x16a>
2ffdd656:	2102      	movs	r1, #2
2ffdd658:	e7f4      	b.n	2ffdd644 <get_clock_rate+0x160>
2ffdd65a:	2100      	movs	r1, #0
2ffdd65c:	2003      	movs	r0, #3
2ffdd65e:	e76f      	b.n	2ffdd540 <get_clock_rate+0x5c>
2ffdd660:	2101      	movs	r1, #1
2ffdd662:	e7fb      	b.n	2ffdd65c <get_clock_rate+0x178>
2ffdd664:	2102      	movs	r1, #2
2ffdd666:	e7f9      	b.n	2ffdd65c <get_clock_rate+0x178>
2ffdd668:	02dc6c00 	.word	0x02dc6c00
2ffdd66c:	2ffe7fe8 	.word	0x2ffe7fe8
2ffdd670:	2ffe461c 	.word	0x2ffe461c
2ffdd674:	2ffe42c4 	.word	0x2ffe42c4
2ffdd678:	2ffe460c 	.word	0x2ffe460c

2ffdd67c <stm32mp1_pll_compute_pllxcfgr1>:
2ffdd67c:	b570      	push	{r4, r5, r6, lr}
2ffdd67e:	4605      	mov	r5, r0
2ffdd680:	460c      	mov	r4, r1
2ffdd682:	4616      	mov	r6, r2
2ffdd684:	f7fd ff76 	bl	2ffdb574 <stm32mp_rcc_base>
2ffdd688:	88ab      	ldrh	r3, [r5, #4]
2ffdd68a:	6829      	ldr	r1, [r5, #0]
2ffdd68c:	581b      	ldr	r3, [r3, r0]
2ffdd68e:	481a      	ldr	r0, [pc, #104]	; (2ffdd6f8 <stm32mp1_pll_compute_pllxcfgr1+0x7c>)
2ffdd690:	f003 0303 	and.w	r3, r3, #3
2ffdd694:	3304      	adds	r3, #4
2ffdd696:	f855 3023 	ldr.w	r3, [r5, r3, lsl #2]
2ffdd69a:	2b05      	cmp	r3, #5
2ffdd69c:	bf8e      	itee	hi
2ffdd69e:	2300      	movhi	r3, #0
2ffdd6a0:	4a16      	ldrls	r2, [pc, #88]	; (2ffdd6fc <stm32mp1_pll_compute_pllxcfgr1+0x80>)
2ffdd6a2:	f852 3023 	ldrls.w	r3, [r2, r3, lsl #2]
2ffdd6a6:	6822      	ldr	r2, [r4, #0]
2ffdd6a8:	3201      	adds	r2, #1
2ffdd6aa:	fbb3 f3f2 	udiv	r3, r3, r2
2ffdd6ae:	eb01 0241 	add.w	r2, r1, r1, lsl #1
2ffdd6b2:	1885      	adds	r5, r0, r2
2ffdd6b4:	5c80      	ldrb	r0, [r0, r2]
2ffdd6b6:	4a12      	ldr	r2, [pc, #72]	; (2ffdd700 <stm32mp1_pll_compute_pllxcfgr1+0x84>)
2ffdd6b8:	4350      	muls	r0, r2
2ffdd6ba:	4298      	cmp	r0, r3
2ffdd6bc:	d819      	bhi.n	2ffdd6f2 <stm32mp1_pll_compute_pllxcfgr1+0x76>
2ffdd6be:	7868      	ldrb	r0, [r5, #1]
2ffdd6c0:	4342      	muls	r2, r0
2ffdd6c2:	429a      	cmp	r2, r3
2ffdd6c4:	d315      	bcc.n	2ffdd6f2 <stm32mp1_pll_compute_pllxcfgr1+0x76>
2ffdd6c6:	b991      	cbnz	r1, 2ffdd6ee <stm32mp1_pll_compute_pllxcfgr1+0x72>
2ffdd6c8:	480e      	ldr	r0, [pc, #56]	; (2ffdd704 <stm32mp1_pll_compute_pllxcfgr1+0x88>)
2ffdd6ca:	4283      	cmp	r3, r0
2ffdd6cc:	bf34      	ite	cc
2ffdd6ce:	2000      	movcc	r0, #0
2ffdd6d0:	2001      	movcs	r0, #1
2ffdd6d2:	6863      	ldr	r3, [r4, #4]
2ffdd6d4:	f3c3 0208 	ubfx	r2, r3, #0, #9
2ffdd6d8:	6032      	str	r2, [r6, #0]
2ffdd6da:	6823      	ldr	r3, [r4, #0]
2ffdd6dc:	041b      	lsls	r3, r3, #16
2ffdd6de:	f403 137c 	and.w	r3, r3, #4128768	; 0x3f0000
2ffdd6e2:	4313      	orrs	r3, r2
2ffdd6e4:	ea43 6300 	orr.w	r3, r3, r0, lsl #24
2ffdd6e8:	2000      	movs	r0, #0
2ffdd6ea:	6033      	str	r3, [r6, #0]
2ffdd6ec:	bd70      	pop	{r4, r5, r6, pc}
2ffdd6ee:	2000      	movs	r0, #0
2ffdd6f0:	e7ef      	b.n	2ffdd6d2 <stm32mp1_pll_compute_pllxcfgr1+0x56>
2ffdd6f2:	f06f 0015 	mvn.w	r0, #21
2ffdd6f6:	e7f9      	b.n	2ffdd6ec <stm32mp1_pll_compute_pllxcfgr1+0x70>
2ffdd6f8:	2ffe4624 	.word	0x2ffe4624
2ffdd6fc:	2ffe7fe8 	.word	0x2ffe7fe8
2ffdd700:	000f4240 	.word	0x000f4240
2ffdd704:	007a1200 	.word	0x007a1200

2ffdd708 <stm32mp1_pll_start>:
2ffdd708:	b510      	push	{r4, lr}
2ffdd70a:	4604      	mov	r4, r0
2ffdd70c:	f7fd ff32 	bl	2ffdb574 <stm32mp_rcc_base>
2ffdd710:	4b05      	ldr	r3, [pc, #20]	; (2ffdd728 <stm32mp1_pll_start+0x20>)
2ffdd712:	eb03 1344 	add.w	r3, r3, r4, lsl #5
2ffdd716:	899a      	ldrh	r2, [r3, #12]
2ffdd718:	5813      	ldr	r3, [r2, r0]
2ffdd71a:	f023 0370 	bic.w	r3, r3, #112	; 0x70
2ffdd71e:	f043 0301 	orr.w	r3, r3, #1
2ffdd722:	5013      	str	r3, [r2, r0]
2ffdd724:	bd10      	pop	{r4, pc}
2ffdd726:	bf00      	nop
2ffdd728:	2ffe4484 	.word	0x2ffe4484

2ffdd72c <stm32mp1_mco_csg>:
2ffdd72c:	b538      	push	{r3, r4, r5, lr}
2ffdd72e:	4604      	mov	r4, r0
2ffdd730:	460d      	mov	r5, r1
2ffdd732:	f7fd ff1f 	bl	2ffdb574 <stm32mp_rcc_base>
2ffdd736:	0923      	lsrs	r3, r4, #4
2ffdd738:	0721      	lsls	r1, r4, #28
2ffdd73a:	581a      	ldr	r2, [r3, r0]
2ffdd73c:	d503      	bpl.n	2ffdd746 <stm32mp1_mco_csg+0x1a>
2ffdd73e:	f422 5280 	bic.w	r2, r2, #4096	; 0x1000
2ffdd742:	501a      	str	r2, [r3, r0]
2ffdd744:	bd38      	pop	{r3, r4, r5, pc}
2ffdd746:	f022 0207 	bic.w	r2, r2, #7
2ffdd74a:	f004 0407 	and.w	r4, r4, #7
2ffdd74e:	4314      	orrs	r4, r2
2ffdd750:	501c      	str	r4, [r3, r0]
2ffdd752:	581a      	ldr	r2, [r3, r0]
2ffdd754:	f022 02f0 	bic.w	r2, r2, #240	; 0xf0
2ffdd758:	ea42 1205 	orr.w	r2, r2, r5, lsl #4
2ffdd75c:	501a      	str	r2, [r3, r0]
2ffdd75e:	581a      	ldr	r2, [r3, r0]
2ffdd760:	f442 5280 	orr.w	r2, r2, #4096	; 0x1000
2ffdd764:	e7ed      	b.n	2ffdd742 <stm32mp1_mco_csg+0x16>

2ffdd766 <stm32mp1_clk_lock>:
2ffdd766:	b510      	push	{r4, lr}
2ffdd768:	4604      	mov	r4, r0
2ffdd76a:	f7fd ff06 	bl	2ffdb57a <stm32mp_lock_available>
2ffdd76e:	b120      	cbz	r0, 2ffdd77a <stm32mp1_clk_lock+0x14>
2ffdd770:	4620      	mov	r0, r4
2ffdd772:	e8bd 4010 	ldmia.w	sp!, {r4, lr}
2ffdd776:	f007 bdcf 	b.w	2ffe5318 <__spin_lock_from_thumb>
2ffdd77a:	bd10      	pop	{r4, pc}

2ffdd77c <stm32mp1_clk_unlock>:
2ffdd77c:	b510      	push	{r4, lr}
2ffdd77e:	4604      	mov	r4, r0
2ffdd780:	f7fd fefb 	bl	2ffdb57a <stm32mp_lock_available>
2ffdd784:	b120      	cbz	r0, 2ffdd790 <stm32mp1_clk_unlock+0x14>
2ffdd786:	4620      	mov	r0, r4
2ffdd788:	e8bd 4010 	ldmia.w	sp!, {r4, lr}
2ffdd78c:	f007 bdac 	b.w	2ffe52e8 <__spin_unlock_from_thumb>
2ffdd790:	bd10      	pop	{r4, pc}
	...

2ffdd794 <stm32mp1_pll_stop>:
2ffdd794:	e92d 4ff8 	stmdb	sp!, {r3, r4, r5, r6, r7, r8, r9, sl, fp, lr}
2ffdd798:	4682      	mov	sl, r0
2ffdd79a:	f7fd feeb 	bl	2ffdb574 <stm32mp_rcc_base>
2ffdd79e:	4b19      	ldr	r3, [pc, #100]	; (2ffdd804 <stm32mp1_pll_stop+0x70>)
2ffdd7a0:	4604      	mov	r4, r0
2ffdd7a2:	eb03 134a 	add.w	r3, r3, sl, lsl #5
2ffdd7a6:	899d      	ldrh	r5, [r3, #12]
2ffdd7a8:	582b      	ldr	r3, [r5, r0]
2ffdd7aa:	eb05 0b00 	add.w	fp, r5, r0
2ffdd7ae:	f023 0370 	bic.w	r3, r3, #112	; 0x70
2ffdd7b2:	502b      	str	r3, [r5, r0]
2ffdd7b4:	582b      	ldr	r3, [r5, r0]
2ffdd7b6:	f023 0301 	bic.w	r3, r3, #1
2ffdd7ba:	502b      	str	r3, [r5, r0]
2ffdd7bc:	ee1e 0f10 	mrc	15, 0, r0, cr14, cr0, {0}
2ffdd7c0:	ec57 6f0e 	mrrc	15, 0, r6, r7, cr14
2ffdd7c4:	4910      	ldr	r1, [pc, #64]	; (2ffdd808 <stm32mp1_pll_stop+0x74>)
2ffdd7c6:	2300      	movs	r3, #0
2ffdd7c8:	4a10      	ldr	r2, [pc, #64]	; (2ffdd80c <stm32mp1_pll_stop+0x78>)
2ffdd7ca:	fba0 0101 	umull	r0, r1, r0, r1
2ffdd7ce:	f003 e9ce 	blx	2ffe0b6c <__aeabi_uldivmod>
2ffdd7d2:	eb10 0806 	adds.w	r8, r0, r6
2ffdd7d6:	eb41 0907 	adc.w	r9, r1, r7
2ffdd7da:	f8db 0000 	ldr.w	r0, [fp]
2ffdd7de:	f010 0002 	ands.w	r0, r0, #2
2ffdd7e2:	d00d      	beq.n	2ffdd800 <stm32mp1_pll_stop+0x6c>
2ffdd7e4:	ec53 2f0e 	mrrc	15, 0, r2, r3, cr14
2ffdd7e8:	4599      	cmp	r9, r3
2ffdd7ea:	bf08      	it	eq
2ffdd7ec:	4590      	cmpeq	r8, r2
2ffdd7ee:	d2f4      	bcs.n	2ffdd7da <stm32mp1_pll_stop+0x46>
2ffdd7f0:	4807      	ldr	r0, [pc, #28]	; (2ffdd810 <stm32mp1_pll_stop+0x7c>)
2ffdd7f2:	465a      	mov	r2, fp
2ffdd7f4:	592b      	ldr	r3, [r5, r4]
2ffdd7f6:	4651      	mov	r1, sl
2ffdd7f8:	f7fd fcec 	bl	2ffdb1d4 <tf_log>
2ffdd7fc:	f06f 003b 	mvn.w	r0, #59	; 0x3b
2ffdd800:	e8bd 8ff8 	ldmia.w	sp!, {r3, r4, r5, r6, r7, r8, r9, sl, fp, pc}
2ffdd804:	2ffe4484 	.word	0x2ffe4484
2ffdd808:	00030d40 	.word	0x00030d40
2ffdd80c:	000f4240 	.word	0x000f4240
2ffdd810:	2ffe405a 	.word	0x2ffe405a

2ffdd814 <__clk_enable>:
2ffdd814:	b538      	push	{r3, r4, r5, lr}
2ffdd816:	4604      	mov	r4, r0
2ffdd818:	f7fd feac 	bl	2ffdb574 <stm32mp_rcc_base>
2ffdd81c:	78a2      	ldrb	r2, [r4, #2]
2ffdd81e:	2101      	movs	r1, #1
2ffdd820:	7925      	ldrb	r5, [r4, #4]
2ffdd822:	8823      	ldrh	r3, [r4, #0]
2ffdd824:	4091      	lsls	r1, r2
2ffdd826:	b10d      	cbz	r5, 2ffdd82c <__clk_enable+0x18>
2ffdd828:	5019      	str	r1, [r3, r0]
2ffdd82a:	bd38      	pop	{r3, r4, r5, pc}
2ffdd82c:	4418      	add	r0, r3
2ffdd82e:	e8bd 4038 	ldmia.w	sp!, {r3, r4, r5, lr}
2ffdd832:	f003 b83e 	b.w	2ffe08b2 <stm32mp_mmio_setbits_32_shregs>

2ffdd836 <__clk_disable>:
2ffdd836:	b538      	push	{r3, r4, r5, lr}
2ffdd838:	4604      	mov	r4, r0
2ffdd83a:	f7fd fe9b 	bl	2ffdb574 <stm32mp_rcc_base>
2ffdd83e:	78a2      	ldrb	r2, [r4, #2]
2ffdd840:	2101      	movs	r1, #1
2ffdd842:	7925      	ldrb	r5, [r4, #4]
2ffdd844:	8823      	ldrh	r3, [r4, #0]
2ffdd846:	4091      	lsls	r1, r2
2ffdd848:	b115      	cbz	r5, 2ffdd850 <__clk_disable+0x1a>
2ffdd84a:	3304      	adds	r3, #4
2ffdd84c:	5019      	str	r1, [r3, r0]
2ffdd84e:	bd38      	pop	{r3, r4, r5, pc}
2ffdd850:	4418      	add	r0, r3
2ffdd852:	e8bd 4038 	ldmia.w	sp!, {r3, r4, r5, lr}
2ffdd856:	f003 b81f 	b.w	2ffe0898 <stm32mp_mmio_clrbits_32_shregs>
	...

2ffdd85c <stm32mp1_check_pll_conf>:
2ffdd85c:	e92d 43f8 	stmdb	sp!, {r3, r4, r5, r6, r7, r8, r9, lr}
2ffdd860:	4680      	mov	r8, r0
2ffdd862:	4c3d      	ldr	r4, [pc, #244]	; (2ffdd958 <stm32mp1_check_pll_conf+0xfc>)
2ffdd864:	4615      	mov	r5, r2
2ffdd866:	461f      	mov	r7, r3
2ffdd868:	4689      	mov	r9, r1
2ffdd86a:	f7fd fe83 	bl	2ffdb574 <stm32mp_rcc_base>
2ffdd86e:	ea4f 1248 	mov.w	r2, r8, lsl #5
2ffdd872:	4606      	mov	r6, r0
2ffdd874:	eb04 1048 	add.w	r0, r4, r8, lsl #5
2ffdd878:	8983      	ldrh	r3, [r0, #12]
2ffdd87a:	599b      	ldr	r3, [r3, r6]
2ffdd87c:	2b01      	cmp	r3, #1
2ffdd87e:	d002      	beq.n	2ffdd886 <stm32mp1_check_pll_conf+0x2a>
2ffdd880:	2000      	movs	r0, #0
2ffdd882:	e8bd 83f8 	ldmia.w	sp!, {r3, r4, r5, r6, r7, r8, r9, pc}
2ffdd886:	ea4f 1319 	mov.w	r3, r9, lsr #4
2ffdd88a:	f009 0107 	and.w	r1, r9, #7
2ffdd88e:	599b      	ldr	r3, [r3, r6]
2ffdd890:	f003 0307 	and.w	r3, r3, #7
2ffdd894:	4299      	cmp	r1, r3
2ffdd896:	d1f3      	bne.n	2ffdd880 <stm32mp1_check_pll_conf+0x24>
2ffdd898:	8883      	ldrh	r3, [r0, #4]
2ffdd89a:	f854 c002 	ldr.w	ip, [r4, r2]
2ffdd89e:	599b      	ldr	r3, [r3, r6]
2ffdd8a0:	f8df e0c8 	ldr.w	lr, [pc, #200]	; 2ffdd96c <stm32mp1_check_pll_conf+0x110>
2ffdd8a4:	f003 0303 	and.w	r3, r3, #3
2ffdd8a8:	eb03 00c8 	add.w	r0, r3, r8, lsl #3
2ffdd8ac:	3004      	adds	r0, #4
2ffdd8ae:	f854 3020 	ldr.w	r3, [r4, r0, lsl #2]
2ffdd8b2:	2b05      	cmp	r3, #5
2ffdd8b4:	bf8e      	itee	hi
2ffdd8b6:	2300      	movhi	r3, #0
2ffdd8b8:	4928      	ldrls	r1, [pc, #160]	; (2ffdd95c <stm32mp1_check_pll_conf+0x100>)
2ffdd8ba:	f851 3023 	ldrls.w	r3, [r1, r3, lsl #2]
2ffdd8be:	6829      	ldr	r1, [r5, #0]
2ffdd8c0:	1c48      	adds	r0, r1, #1
2ffdd8c2:	fbb3 f3f0 	udiv	r3, r3, r0
2ffdd8c6:	eb0c 004c 	add.w	r0, ip, ip, lsl #1
2ffdd8ca:	eb0e 0800 	add.w	r8, lr, r0
2ffdd8ce:	f81e e000 	ldrb.w	lr, [lr, r0]
2ffdd8d2:	4823      	ldr	r0, [pc, #140]	; (2ffdd960 <stm32mp1_check_pll_conf+0x104>)
2ffdd8d4:	fb00 fe0e 	mul.w	lr, r0, lr
2ffdd8d8:	459e      	cmp	lr, r3
2ffdd8da:	d8d1      	bhi.n	2ffdd880 <stm32mp1_check_pll_conf+0x24>
2ffdd8dc:	f898 e001 	ldrb.w	lr, [r8, #1]
2ffdd8e0:	fb00 f00e 	mul.w	r0, r0, lr
2ffdd8e4:	4298      	cmp	r0, r3
2ffdd8e6:	d3cb      	bcc.n	2ffdd880 <stm32mp1_check_pll_conf+0x24>
2ffdd8e8:	f1bc 0f00 	cmp.w	ip, #0
2ffdd8ec:	d131      	bne.n	2ffdd952 <stm32mp1_check_pll_conf+0xf6>
2ffdd8ee:	481d      	ldr	r0, [pc, #116]	; (2ffdd964 <stm32mp1_check_pll_conf+0x108>)
2ffdd8f0:	4283      	cmp	r3, r0
2ffdd8f2:	bf34      	ite	cc
2ffdd8f4:	2300      	movcc	r3, #0
2ffdd8f6:	2301      	movcs	r3, #1
2ffdd8f8:	4414      	add	r4, r2
2ffdd8fa:	6868      	ldr	r0, [r5, #4]
2ffdd8fc:	0409      	lsls	r1, r1, #16
2ffdd8fe:	88e2      	ldrh	r2, [r4, #6]
2ffdd900:	f401 117c 	and.w	r1, r1, #4128768	; 0x3f0000
2ffdd904:	f3c0 0008 	ubfx	r0, r0, #0, #9
2ffdd908:	4301      	orrs	r1, r0
2ffdd90a:	5992      	ldr	r2, [r2, r6]
2ffdd90c:	ea41 6103 	orr.w	r1, r1, r3, lsl #24
2ffdd910:	4291      	cmp	r1, r2
2ffdd912:	d1b5      	bne.n	2ffdd880 <stm32mp1_check_pll_conf+0x24>
2ffdd914:	4914      	ldr	r1, [pc, #80]	; (2ffdd968 <stm32mp1_check_pll_conf+0x10c>)
2ffdd916:	2200      	movs	r2, #0
2ffdd918:	4638      	mov	r0, r7
2ffdd91a:	f002 fdef 	bl	2ffe04fc <fdt_read_uint32_default>
2ffdd91e:	8963      	ldrh	r3, [r4, #10]
2ffdd920:	00c0      	lsls	r0, r0, #3
2ffdd922:	599b      	ldr	r3, [r3, r6]
2ffdd924:	f440 3080 	orr.w	r0, r0, #65536	; 0x10000
2ffdd928:	4298      	cmp	r0, r3
2ffdd92a:	d1a9      	bne.n	2ffdd880 <stm32mp1_check_pll_conf+0x24>
2ffdd92c:	8923      	ldrh	r3, [r4, #8]
2ffdd92e:	68a8      	ldr	r0, [r5, #8]
2ffdd930:	5999      	ldr	r1, [r3, r6]
2ffdd932:	68eb      	ldr	r3, [r5, #12]
2ffdd934:	f000 027f 	and.w	r2, r0, #127	; 0x7f
2ffdd938:	0218      	lsls	r0, r3, #8
2ffdd93a:	692b      	ldr	r3, [r5, #16]
2ffdd93c:	f400 40fe 	and.w	r0, r0, #32512	; 0x7f00
2ffdd940:	041b      	lsls	r3, r3, #16
2ffdd942:	f403 03fe 	and.w	r3, r3, #8323072	; 0x7f0000
2ffdd946:	4318      	orrs	r0, r3
2ffdd948:	4310      	orrs	r0, r2
2ffdd94a:	1a43      	subs	r3, r0, r1
2ffdd94c:	4258      	negs	r0, r3
2ffdd94e:	4158      	adcs	r0, r3
2ffdd950:	e797      	b.n	2ffdd882 <stm32mp1_check_pll_conf+0x26>
2ffdd952:	2300      	movs	r3, #0
2ffdd954:	e7d0      	b.n	2ffdd8f8 <stm32mp1_check_pll_conf+0x9c>
2ffdd956:	bf00      	nop
2ffdd958:	2ffe4484 	.word	0x2ffe4484
2ffdd95c:	2ffe7fe8 	.word	0x2ffe7fe8
2ffdd960:	000f4240 	.word	0x000f4240
2ffdd964:	007a1200 	.word	0x007a1200
2ffdd968:	2ffe407c 	.word	0x2ffe407c
2ffdd96c:	2ffe4624 	.word	0x2ffe4624

2ffdd970 <stm32mp1_clk_get_gated_id>:
2ffdd970:	4602      	mov	r2, r0
2ffdd972:	2000      	movs	r0, #0
2ffdd974:	b508      	push	{r3, lr}
2ffdd976:	4b08      	ldr	r3, [pc, #32]	; (2ffdd998 <stm32mp1_clk_get_gated_id+0x28>)
2ffdd978:	eb03 01c0 	add.w	r1, r3, r0, lsl #3
2ffdd97c:	78c9      	ldrb	r1, [r1, #3]
2ffdd97e:	4291      	cmp	r1, r2
2ffdd980:	d008      	beq.n	2ffdd994 <stm32mp1_clk_get_gated_id+0x24>
2ffdd982:	3001      	adds	r0, #1
2ffdd984:	2837      	cmp	r0, #55	; 0x37
2ffdd986:	d1f7      	bne.n	2ffdd978 <stm32mp1_clk_get_gated_id+0x8>
2ffdd988:	4804      	ldr	r0, [pc, #16]	; (2ffdd99c <stm32mp1_clk_get_gated_id+0x2c>)
2ffdd98a:	4905      	ldr	r1, [pc, #20]	; (2ffdd9a0 <stm32mp1_clk_get_gated_id+0x30>)
2ffdd98c:	f7fd fc22 	bl	2ffdb1d4 <tf_log>
2ffdd990:	f06f 0015 	mvn.w	r0, #21
2ffdd994:	bd08      	pop	{r3, pc}
2ffdd996:	bf00      	nop
2ffdd998:	2ffe42cc 	.word	0x2ffe42cc
2ffdd99c:	2ffe4081 	.word	0x2ffe4081
2ffdd9a0:	2ffe424b 	.word	0x2ffe424b

2ffdd9a4 <stm32mp1_clk_get_parent>:
2ffdd9a4:	b538      	push	{r3, r4, r5, lr}
2ffdd9a6:	4604      	mov	r4, r0
2ffdd9a8:	f7fd fde4 	bl	2ffdb574 <stm32mp_rcc_base>
2ffdd9ac:	4b18      	ldr	r3, [pc, #96]	; (2ffdda10 <stm32mp1_clk_get_parent+0x6c>)
2ffdd9ae:	4605      	mov	r5, r0
2ffdd9b0:	2000      	movs	r0, #0
2ffdd9b2:	f813 2b01 	ldrb.w	r2, [r3], #1
2ffdd9b6:	4294      	cmp	r4, r2
2ffdd9b8:	d026      	beq.n	2ffdda08 <stm32mp1_clk_get_parent+0x64>
2ffdd9ba:	3001      	adds	r0, #1
2ffdd9bc:	2822      	cmp	r0, #34	; 0x22
2ffdd9be:	d1f8      	bne.n	2ffdd9b2 <stm32mp1_clk_get_parent+0xe>
2ffdd9c0:	4620      	mov	r0, r4
2ffdd9c2:	f7ff ffd5 	bl	2ffdd970 <stm32mp1_clk_get_gated_id>
2ffdd9c6:	1e03      	subs	r3, r0, #0
2ffdd9c8:	da03      	bge.n	2ffdd9d2 <stm32mp1_clk_get_parent+0x2e>
2ffdd9ca:	f7fd fca1 	bl	2ffdb310 <console_flush>
2ffdd9ce:	f7f8 ec48 	blx	2ffd6260 <do_panic>
2ffdd9d2:	4a10      	ldr	r2, [pc, #64]	; (2ffdda14 <stm32mp1_clk_get_parent+0x70>)
2ffdd9d4:	eb02 03c3 	add.w	r3, r2, r3, lsl #3
2ffdd9d8:	79d8      	ldrb	r0, [r3, #7]
2ffdd9da:	2821      	cmp	r0, #33	; 0x21
2ffdd9dc:	d914      	bls.n	2ffdda08 <stm32mp1_clk_get_parent+0x64>
2ffdd9de:	799a      	ldrb	r2, [r3, #6]
2ffdd9e0:	2aff      	cmp	r2, #255	; 0xff
2ffdd9e2:	d012      	beq.n	2ffdda0a <stm32mp1_clk_get_parent+0x66>
2ffdd9e4:	2a15      	cmp	r2, #21
2ffdd9e6:	d8f0      	bhi.n	2ffdd9ca <stm32mp1_clk_get_parent+0x26>
2ffdd9e8:	490b      	ldr	r1, [pc, #44]	; (2ffdda18 <stm32mp1_clk_get_parent+0x74>)
2ffdd9ea:	230c      	movs	r3, #12
2ffdd9ec:	4353      	muls	r3, r2
2ffdd9ee:	18ca      	adds	r2, r1, r3
2ffdd9f0:	5acb      	ldrh	r3, [r1, r3]
2ffdd9f2:	7891      	ldrb	r1, [r2, #2]
2ffdd9f4:	5958      	ldr	r0, [r3, r5]
2ffdd9f6:	78d3      	ldrb	r3, [r2, #3]
2ffdd9f8:	408b      	lsls	r3, r1
2ffdd9fa:	4003      	ands	r3, r0
2ffdd9fc:	40cb      	lsrs	r3, r1
2ffdd9fe:	7911      	ldrb	r1, [r2, #4]
2ffdda00:	4299      	cmp	r1, r3
2ffdda02:	d902      	bls.n	2ffdda0a <stm32mp1_clk_get_parent+0x66>
2ffdda04:	6892      	ldr	r2, [r2, #8]
2ffdda06:	5cd0      	ldrb	r0, [r2, r3]
2ffdda08:	bd38      	pop	{r3, r4, r5, pc}
2ffdda0a:	f06f 0015 	mvn.w	r0, #21
2ffdda0e:	e7fb      	b.n	2ffdda08 <stm32mp1_clk_get_parent+0x64>
2ffdda10:	2ffe4280 	.word	0x2ffe4280
2ffdda14:	2ffe42cc 	.word	0x2ffe42cc
2ffdda18:	2ffe4504 	.word	0x2ffe4504

2ffdda1c <__stm32mp1_clk_enable>:
2ffdda1c:	b5f8      	push	{r3, r4, r5, r6, r7, lr}
2ffdda1e:	4605      	mov	r5, r0
2ffdda20:	460f      	mov	r7, r1
2ffdda22:	f7ff fcf5 	bl	2ffdd410 <clock_is_always_on>
2ffdda26:	bb58      	cbnz	r0, 2ffdda80 <__stm32mp1_clk_enable+0x64>
2ffdda28:	4628      	mov	r0, r5
2ffdda2a:	f7ff ffa1 	bl	2ffdd970 <stm32mp1_clk_get_gated_id>
2ffdda2e:	1e04      	subs	r4, r0, #0
2ffdda30:	da07      	bge.n	2ffdda42 <__stm32mp1_clk_enable+0x26>
2ffdda32:	4814      	ldr	r0, [pc, #80]	; (2ffdda84 <__stm32mp1_clk_enable+0x68>)
2ffdda34:	4629      	mov	r1, r5
2ffdda36:	f7fd fbcd 	bl	2ffdb1d4 <tf_log>
2ffdda3a:	f7fd fc69 	bl	2ffdb310 <console_flush>
2ffdda3e:	f7f8 ec10 	blx	2ffd6260 <do_panic>
2ffdda42:	4e11      	ldr	r6, [pc, #68]	; (2ffdda88 <__stm32mp1_clk_enable+0x6c>)
2ffdda44:	eb06 06c4 	add.w	r6, r6, r4, lsl #3
2ffdda48:	b927      	cbnz	r7, 2ffdda54 <__stm32mp1_clk_enable+0x38>
2ffdda4a:	4630      	mov	r0, r6
2ffdda4c:	e8bd 40f8 	ldmia.w	sp!, {r3, r4, r5, r6, r7, lr}
2ffdda50:	f7ff bee0 	b.w	2ffdd814 <__clk_enable>
2ffdda54:	4d0d      	ldr	r5, [pc, #52]	; (2ffdda8c <__stm32mp1_clk_enable+0x70>)
2ffdda56:	480e      	ldr	r0, [pc, #56]	; (2ffdda90 <__stm32mp1_clk_enable+0x74>)
2ffdda58:	f7ff fe85 	bl	2ffdd766 <stm32mp1_clk_lock>
2ffdda5c:	f855 3024 	ldr.w	r3, [r5, r4, lsl #2]
2ffdda60:	b913      	cbnz	r3, 2ffdda68 <__stm32mp1_clk_enable+0x4c>
2ffdda62:	4630      	mov	r0, r6
2ffdda64:	f7ff fed6 	bl	2ffdd814 <__clk_enable>
2ffdda68:	f855 3024 	ldr.w	r3, [r5, r4, lsl #2]
2ffdda6c:	3301      	adds	r3, #1
2ffdda6e:	f845 3024 	str.w	r3, [r5, r4, lsl #2]
2ffdda72:	3301      	adds	r3, #1
2ffdda74:	d0e1      	beq.n	2ffdda3a <__stm32mp1_clk_enable+0x1e>
2ffdda76:	e8bd 40f8 	ldmia.w	sp!, {r3, r4, r5, r6, r7, lr}
2ffdda7a:	4805      	ldr	r0, [pc, #20]	; (2ffdda90 <__stm32mp1_clk_enable+0x74>)
2ffdda7c:	f7ff be7e 	b.w	2ffdd77c <stm32mp1_clk_unlock>
2ffdda80:	bdf8      	pop	{r3, r4, r5, r6, r7, pc}
2ffdda82:	bf00      	nop
2ffdda84:	2ffe409b 	.word	0x2ffe409b
2ffdda88:	2ffe42cc 	.word	0x2ffe42cc
2ffdda8c:	2ffe7eb8 	.word	0x2ffe7eb8
2ffdda90:	2ffe7fe0 	.word	0x2ffe7fe0

2ffdda94 <__stm32mp1_clk_disable>:
2ffdda94:	b570      	push	{r4, r5, r6, lr}
2ffdda96:	4605      	mov	r5, r0
2ffdda98:	460e      	mov	r6, r1
2ffdda9a:	f7ff fcb9 	bl	2ffdd410 <clock_is_always_on>
2ffdda9e:	bb48      	cbnz	r0, 2ffddaf4 <__stm32mp1_clk_disable+0x60>
2ffddaa0:	4628      	mov	r0, r5
2ffddaa2:	f7ff ff65 	bl	2ffdd970 <stm32mp1_clk_get_gated_id>
2ffddaa6:	1e04      	subs	r4, r0, #0
2ffddaa8:	da07      	bge.n	2ffddaba <__stm32mp1_clk_disable+0x26>
2ffddaaa:	4813      	ldr	r0, [pc, #76]	; (2ffddaf8 <__stm32mp1_clk_disable+0x64>)
2ffddaac:	4629      	mov	r1, r5
2ffddaae:	f7fd fb91 	bl	2ffdb1d4 <tf_log>
2ffddab2:	f7fd fc2d 	bl	2ffdb310 <console_flush>
2ffddab6:	f7f8 ebd4 	blx	2ffd6260 <do_panic>
2ffddaba:	4d10      	ldr	r5, [pc, #64]	; (2ffddafc <__stm32mp1_clk_disable+0x68>)
2ffddabc:	eb05 05c4 	add.w	r5, r5, r4, lsl #3
2ffddac0:	b926      	cbnz	r6, 2ffddacc <__stm32mp1_clk_disable+0x38>
2ffddac2:	4628      	mov	r0, r5
2ffddac4:	e8bd 4070 	ldmia.w	sp!, {r4, r5, r6, lr}
2ffddac8:	f7ff beb5 	b.w	2ffdd836 <__clk_disable>
2ffddacc:	480c      	ldr	r0, [pc, #48]	; (2ffddb00 <__stm32mp1_clk_disable+0x6c>)
2ffddace:	f7ff fe4a 	bl	2ffdd766 <stm32mp1_clk_lock>
2ffddad2:	4a0c      	ldr	r2, [pc, #48]	; (2ffddb04 <__stm32mp1_clk_disable+0x70>)
2ffddad4:	f852 3024 	ldr.w	r3, [r2, r4, lsl #2]
2ffddad8:	2b00      	cmp	r3, #0
2ffddada:	d0ea      	beq.n	2ffddab2 <__stm32mp1_clk_disable+0x1e>
2ffddadc:	3b01      	subs	r3, #1
2ffddade:	f842 3024 	str.w	r3, [r2, r4, lsl #2]
2ffddae2:	b913      	cbnz	r3, 2ffddaea <__stm32mp1_clk_disable+0x56>
2ffddae4:	4628      	mov	r0, r5
2ffddae6:	f7ff fea6 	bl	2ffdd836 <__clk_disable>
2ffddaea:	e8bd 4070 	ldmia.w	sp!, {r4, r5, r6, lr}
2ffddaee:	4804      	ldr	r0, [pc, #16]	; (2ffddb00 <__stm32mp1_clk_disable+0x6c>)
2ffddaf0:	f7ff be44 	b.w	2ffdd77c <stm32mp1_clk_unlock>
2ffddaf4:	bd70      	pop	{r4, r5, r6, pc}
2ffddaf6:	bf00      	nop
2ffddaf8:	2ffe40b7 	.word	0x2ffe40b7
2ffddafc:	2ffe42cc 	.word	0x2ffe42cc
2ffddb00:	2ffe7fe0 	.word	0x2ffe7fe0
2ffddb04:	2ffe7eb8 	.word	0x2ffe7eb8

2ffddb08 <stm32mp1_pkcs_config>:
2ffddb08:	b510      	push	{r4, lr}
2ffddb0a:	4604      	mov	r4, r0
2ffddb0c:	f7fd fd32 	bl	2ffdb574 <stm32mp_rcc_base>
2ffddb10:	f3c4 110b 	ubfx	r1, r4, #4, #12
2ffddb14:	f004 020f 	and.w	r2, r4, #15
2ffddb18:	2c00      	cmp	r4, #0
2ffddb1a:	580b      	ldr	r3, [r1, r0]
2ffddb1c:	bfba      	itte	lt
2ffddb1e:	24f0      	movlt	r4, #240	; 0xf0
2ffddb20:	0112      	lsllt	r2, r2, #4
2ffddb22:	240f      	movge	r4, #15
2ffddb24:	ea23 0304 	bic.w	r3, r3, r4
2ffddb28:	4313      	orrs	r3, r2
2ffddb2a:	500b      	str	r3, [r1, r0]
2ffddb2c:	bd10      	pop	{r4, pc}
	...

2ffddb30 <stm32mp1_set_clkdiv>:
2ffddb30:	680a      	ldr	r2, [r1, #0]
2ffddb32:	e92d 43f8 	stmdb	sp!, {r3, r4, r5, r6, r7, r8, r9, lr}
2ffddb36:	f000 033f 	and.w	r3, r0, #63	; 0x3f
2ffddb3a:	f022 023f 	bic.w	r2, r2, #63	; 0x3f
2ffddb3e:	4605      	mov	r5, r0
2ffddb40:	4313      	orrs	r3, r2
2ffddb42:	460c      	mov	r4, r1
2ffddb44:	600b      	str	r3, [r1, #0]
2ffddb46:	ee1e 0f10 	mrc	15, 0, r0, cr14, cr0, {0}
2ffddb4a:	ec57 6f0e 	mrrc	15, 0, r6, r7, cr14
2ffddb4e:	4910      	ldr	r1, [pc, #64]	; (2ffddb90 <stm32mp1_set_clkdiv+0x60>)
2ffddb50:	2300      	movs	r3, #0
2ffddb52:	4a10      	ldr	r2, [pc, #64]	; (2ffddb94 <stm32mp1_set_clkdiv+0x64>)
2ffddb54:	fba0 0101 	umull	r0, r1, r0, r1
2ffddb58:	f003 e808 	blx	2ffe0b6c <__aeabi_uldivmod>
2ffddb5c:	eb10 0806 	adds.w	r8, r0, r6
2ffddb60:	eb41 0907 	adc.w	r9, r1, r7
2ffddb64:	6823      	ldr	r3, [r4, #0]
2ffddb66:	2b00      	cmp	r3, #0
2ffddb68:	da01      	bge.n	2ffddb6e <stm32mp1_set_clkdiv+0x3e>
2ffddb6a:	2000      	movs	r0, #0
2ffddb6c:	e00d      	b.n	2ffddb8a <stm32mp1_set_clkdiv+0x5a>
2ffddb6e:	ec53 2f0e 	mrrc	15, 0, r2, r3, cr14
2ffddb72:	4599      	cmp	r9, r3
2ffddb74:	bf08      	it	eq
2ffddb76:	4590      	cmpeq	r8, r2
2ffddb78:	d2f4      	bcs.n	2ffddb64 <stm32mp1_set_clkdiv+0x34>
2ffddb7a:	4807      	ldr	r0, [pc, #28]	; (2ffddb98 <stm32mp1_set_clkdiv+0x68>)
2ffddb7c:	4622      	mov	r2, r4
2ffddb7e:	6823      	ldr	r3, [r4, #0]
2ffddb80:	4629      	mov	r1, r5
2ffddb82:	f7fd fb27 	bl	2ffdb1d4 <tf_log>
2ffddb86:	f06f 003b 	mvn.w	r0, #59	; 0x3b
2ffddb8a:	e8bd 83f8 	ldmia.w	sp!, {r3, r4, r5, r6, r7, r8, r9, pc}
2ffddb8e:	bf00      	nop
2ffddb90:	00030d40 	.word	0x00030d40
2ffddb94:	000f4240 	.word	0x000f4240
2ffddb98:	2ffe40d4 	.word	0x2ffe40d4

2ffddb9c <stm32mp1_osc_wait>:
2ffddb9c:	e92d 4ff0 	stmdb	sp!, {r4, r5, r6, r7, r8, r9, sl, fp, lr}
2ffddba0:	4606      	mov	r6, r0
2ffddba2:	b085      	sub	sp, #20
2ffddba4:	460f      	mov	r7, r1
2ffddba6:	4614      	mov	r4, r2
2ffddba8:	f7fd fce4 	bl	2ffdb574 <stm32mp_rcc_base>
2ffddbac:	eb00 0a07 	add.w	sl, r0, r7
2ffddbb0:	2e00      	cmp	r6, #0
2ffddbb2:	4605      	mov	r5, r0
2ffddbb4:	bf14      	ite	ne
2ffddbb6:	46a3      	movne	fp, r4
2ffddbb8:	f04f 0b00 	moveq.w	fp, #0
2ffddbbc:	ee1e 0f10 	mrc	15, 0, r0, cr14, cr0, {0}
2ffddbc0:	ec59 8f0e 	mrrc	15, 0, r8, r9, cr14
2ffddbc4:	4914      	ldr	r1, [pc, #80]	; (2ffddc18 <stm32mp1_osc_wait+0x7c>)
2ffddbc6:	2300      	movs	r3, #0
2ffddbc8:	4a13      	ldr	r2, [pc, #76]	; (2ffddc18 <stm32mp1_osc_wait+0x7c>)
2ffddbca:	fba0 0101 	umull	r0, r1, r0, r1
2ffddbce:	f002 efce 	blx	2ffe0b6c <__aeabi_uldivmod>
2ffddbd2:	eb10 0308 	adds.w	r3, r0, r8
2ffddbd6:	9302      	str	r3, [sp, #8]
2ffddbd8:	eb41 0309 	adc.w	r3, r1, r9
2ffddbdc:	9303      	str	r3, [sp, #12]
2ffddbde:	f8da 3000 	ldr.w	r3, [sl]
2ffddbe2:	4023      	ands	r3, r4
2ffddbe4:	455b      	cmp	r3, fp
2ffddbe6:	d101      	bne.n	2ffddbec <stm32mp1_osc_wait+0x50>
2ffddbe8:	2000      	movs	r0, #0
2ffddbea:	e011      	b.n	2ffddc10 <stm32mp1_osc_wait+0x74>
2ffddbec:	ec53 2f0e 	mrrc	15, 0, r2, r3, cr14
2ffddbf0:	e9dd 0102 	ldrd	r0, r1, [sp, #8]
2ffddbf4:	4299      	cmp	r1, r3
2ffddbf6:	bf08      	it	eq
2ffddbf8:	4290      	cmpeq	r0, r2
2ffddbfa:	d2f0      	bcs.n	2ffddbde <stm32mp1_osc_wait+0x42>
2ffddbfc:	59eb      	ldr	r3, [r5, r7]
2ffddbfe:	4652      	mov	r2, sl
2ffddc00:	4806      	ldr	r0, [pc, #24]	; (2ffddc1c <stm32mp1_osc_wait+0x80>)
2ffddc02:	4621      	mov	r1, r4
2ffddc04:	9300      	str	r3, [sp, #0]
2ffddc06:	4633      	mov	r3, r6
2ffddc08:	f7fd fae4 	bl	2ffdb1d4 <tf_log>
2ffddc0c:	f06f 003b 	mvn.w	r0, #59	; 0x3b
2ffddc10:	b005      	add	sp, #20
2ffddc12:	e8bd 8ff0 	ldmia.w	sp!, {r4, r5, r6, r7, r8, r9, sl, fp, pc}
2ffddc16:	bf00      	nop
2ffddc18:	000f4240 	.word	0x000f4240
2ffddc1c:	2ffe40fb 	.word	0x2ffe40fb

2ffddc20 <stm32mp1_set_clksrc>:
2ffddc20:	e92d 4ff8 	stmdb	sp!, {r3, r4, r5, r6, r7, r8, r9, sl, fp, lr}
2ffddc24:	4605      	mov	r5, r0
2ffddc26:	f7fd fca5 	bl	2ffdb574 <stm32mp_rcc_base>
2ffddc2a:	ea4f 1a15 	mov.w	sl, r5, lsr #4
2ffddc2e:	f005 0307 	and.w	r3, r5, #7
2ffddc32:	eb00 1b15 	add.w	fp, r0, r5, lsr #4
2ffddc36:	4604      	mov	r4, r0
2ffddc38:	f85a 2000 	ldr.w	r2, [sl, r0]
2ffddc3c:	f022 0207 	bic.w	r2, r2, #7
2ffddc40:	4313      	orrs	r3, r2
2ffddc42:	f84a 3000 	str.w	r3, [sl, r0]
2ffddc46:	ee1e 0f10 	mrc	15, 0, r0, cr14, cr0, {0}
2ffddc4a:	ec57 6f0e 	mrrc	15, 0, r6, r7, cr14
2ffddc4e:	4911      	ldr	r1, [pc, #68]	; (2ffddc94 <stm32mp1_set_clksrc+0x74>)
2ffddc50:	2300      	movs	r3, #0
2ffddc52:	4a11      	ldr	r2, [pc, #68]	; (2ffddc98 <stm32mp1_set_clksrc+0x78>)
2ffddc54:	fba0 0101 	umull	r0, r1, r0, r1
2ffddc58:	f002 ef88 	blx	2ffe0b6c <__aeabi_uldivmod>
2ffddc5c:	eb10 0806 	adds.w	r8, r0, r6
2ffddc60:	eb41 0907 	adc.w	r9, r1, r7
2ffddc64:	f8db 3000 	ldr.w	r3, [fp]
2ffddc68:	2b00      	cmp	r3, #0
2ffddc6a:	da01      	bge.n	2ffddc70 <stm32mp1_set_clksrc+0x50>
2ffddc6c:	2000      	movs	r0, #0
2ffddc6e:	e00e      	b.n	2ffddc8e <stm32mp1_set_clksrc+0x6e>
2ffddc70:	ec53 2f0e 	mrrc	15, 0, r2, r3, cr14
2ffddc74:	4599      	cmp	r9, r3
2ffddc76:	bf08      	it	eq
2ffddc78:	4590      	cmpeq	r8, r2
2ffddc7a:	d2f3      	bcs.n	2ffddc64 <stm32mp1_set_clksrc+0x44>
2ffddc7c:	4807      	ldr	r0, [pc, #28]	; (2ffddc9c <stm32mp1_set_clksrc+0x7c>)
2ffddc7e:	465a      	mov	r2, fp
2ffddc80:	f85a 3004 	ldr.w	r3, [sl, r4]
2ffddc84:	4629      	mov	r1, r5
2ffddc86:	f7fd faa5 	bl	2ffdb1d4 <tf_log>
2ffddc8a:	f06f 003b 	mvn.w	r0, #59	; 0x3b
2ffddc8e:	e8bd 8ff8 	ldmia.w	sp!, {r3, r4, r5, r6, r7, r8, r9, sl, fp, pc}
2ffddc92:	bf00      	nop
2ffddc94:	00030d40 	.word	0x00030d40
2ffddc98:	000f4240 	.word	0x000f4240
2ffddc9c:	2ffe4127 	.word	0x2ffe4127

2ffddca0 <stm32mp1_pll_output>:
2ffddca0:	e92d 47f3 	stmdb	sp!, {r0, r1, r4, r5, r6, r7, r8, r9, sl, lr}
2ffddca4:	4606      	mov	r6, r0
2ffddca6:	460f      	mov	r7, r1
2ffddca8:	f7fd fc64 	bl	2ffdb574 <stm32mp_rcc_base>
2ffddcac:	4b1a      	ldr	r3, [pc, #104]	; (2ffddd18 <stm32mp1_pll_output+0x78>)
2ffddcae:	4604      	mov	r4, r0
2ffddcb0:	eb03 1346 	add.w	r3, r3, r6, lsl #5
2ffddcb4:	899d      	ldrh	r5, [r3, #12]
2ffddcb6:	eb05 0a00 	add.w	sl, r5, r0
2ffddcba:	ee1e 0f10 	mrc	15, 0, r0, cr14, cr0, {0}
2ffddcbe:	ec59 8f0e 	mrrc	15, 0, r8, r9, cr14
2ffddcc2:	4916      	ldr	r1, [pc, #88]	; (2ffddd1c <stm32mp1_pll_output+0x7c>)
2ffddcc4:	2300      	movs	r3, #0
2ffddcc6:	4a16      	ldr	r2, [pc, #88]	; (2ffddd20 <stm32mp1_pll_output+0x80>)
2ffddcc8:	fba0 0101 	umull	r0, r1, r0, r1
2ffddccc:	f002 ef4e 	blx	2ffe0b6c <__aeabi_uldivmod>
2ffddcd0:	eb10 0308 	adds.w	r3, r0, r8
2ffddcd4:	9300      	str	r3, [sp, #0]
2ffddcd6:	eb41 0309 	adc.w	r3, r1, r9
2ffddcda:	9301      	str	r3, [sp, #4]
2ffddcdc:	f8da 3000 	ldr.w	r3, [sl]
2ffddce0:	079b      	lsls	r3, r3, #30
2ffddce2:	d505      	bpl.n	2ffddcf0 <stm32mp1_pll_output+0x50>
2ffddce4:	5929      	ldr	r1, [r5, r4]
2ffddce6:	2000      	movs	r0, #0
2ffddce8:	ea41 1707 	orr.w	r7, r1, r7, lsl #4
2ffddcec:	512f      	str	r7, [r5, r4]
2ffddcee:	e00f      	b.n	2ffddd10 <stm32mp1_pll_output+0x70>
2ffddcf0:	ec53 2f0e 	mrrc	15, 0, r2, r3, cr14
2ffddcf4:	e9dd 0100 	ldrd	r0, r1, [sp]
2ffddcf8:	4299      	cmp	r1, r3
2ffddcfa:	bf08      	it	eq
2ffddcfc:	4290      	cmpeq	r0, r2
2ffddcfe:	d2ed      	bcs.n	2ffddcdc <stm32mp1_pll_output+0x3c>
2ffddd00:	4808      	ldr	r0, [pc, #32]	; (2ffddd24 <stm32mp1_pll_output+0x84>)
2ffddd02:	4652      	mov	r2, sl
2ffddd04:	592b      	ldr	r3, [r5, r4]
2ffddd06:	4631      	mov	r1, r6
2ffddd08:	f7fd fa64 	bl	2ffdb1d4 <tf_log>
2ffddd0c:	f06f 003b 	mvn.w	r0, #59	; 0x3b
2ffddd10:	b002      	add	sp, #8
2ffddd12:	e8bd 87f0 	ldmia.w	sp!, {r4, r5, r6, r7, r8, r9, sl, pc}
2ffddd16:	bf00      	nop
2ffddd18:	2ffe4484 	.word	0x2ffe4484
2ffddd1c:	00030d40 	.word	0x00030d40
2ffddd20:	000f4240 	.word	0x000f4240
2ffddd24:	2ffe414e 	.word	0x2ffe414e

2ffddd28 <stm32mp1_pll_config_output>:
2ffddd28:	b538      	push	{r3, r4, r5, lr}
2ffddd2a:	460c      	mov	r4, r1
2ffddd2c:	4605      	mov	r5, r0
2ffddd2e:	f7fd fc21 	bl	2ffdb574 <stm32mp_rcc_base>
2ffddd32:	68a3      	ldr	r3, [r4, #8]
2ffddd34:	6922      	ldr	r2, [r4, #16]
2ffddd36:	f003 017f 	and.w	r1, r3, #127	; 0x7f
2ffddd3a:	68e3      	ldr	r3, [r4, #12]
2ffddd3c:	0412      	lsls	r2, r2, #16
2ffddd3e:	021b      	lsls	r3, r3, #8
2ffddd40:	f402 02fe 	and.w	r2, r2, #8323072	; 0x7f0000
2ffddd44:	f403 43fe 	and.w	r3, r3, #32512	; 0x7f00
2ffddd48:	4313      	orrs	r3, r2
2ffddd4a:	4a03      	ldr	r2, [pc, #12]	; (2ffddd58 <stm32mp1_pll_config_output+0x30>)
2ffddd4c:	430b      	orrs	r3, r1
2ffddd4e:	eb02 1545 	add.w	r5, r2, r5, lsl #5
2ffddd52:	892a      	ldrh	r2, [r5, #8]
2ffddd54:	5013      	str	r3, [r2, r0]
2ffddd56:	bd38      	pop	{r3, r4, r5, pc}
2ffddd58:	2ffe4484 	.word	0x2ffe4484

2ffddd5c <stm32mp1_pll_config>:
2ffddd5c:	e92d 43f7 	stmdb	sp!, {r0, r1, r2, r4, r5, r6, r7, r8, r9, lr}
2ffddd60:	4680      	mov	r8, r0
2ffddd62:	4d11      	ldr	r5, [pc, #68]	; (2ffddda8 <stm32mp1_pll_config+0x4c>)
2ffddd64:	4689      	mov	r9, r1
2ffddd66:	4616      	mov	r6, r2
2ffddd68:	f7fd fc04 	bl	2ffdb574 <stm32mp_rcc_base>
2ffddd6c:	eb05 1548 	add.w	r5, r5, r8, lsl #5
2ffddd70:	4604      	mov	r4, r0
2ffddd72:	aa01      	add	r2, sp, #4
2ffddd74:	4649      	mov	r1, r9
2ffddd76:	4628      	mov	r0, r5
2ffddd78:	f7ff fc80 	bl	2ffdd67c <stm32mp1_pll_compute_pllxcfgr1>
2ffddd7c:	4607      	mov	r7, r0
2ffddd7e:	b978      	cbnz	r0, 2ffddda0 <stm32mp1_pll_config+0x44>
2ffddd80:	9a01      	ldr	r2, [sp, #4]
2ffddd82:	4649      	mov	r1, r9
2ffddd84:	88eb      	ldrh	r3, [r5, #6]
2ffddd86:	00f6      	lsls	r6, r6, #3
2ffddd88:	511a      	str	r2, [r3, r4]
2ffddd8a:	896b      	ldrh	r3, [r5, #10]
2ffddd8c:	5118      	str	r0, [r3, r4]
2ffddd8e:	4640      	mov	r0, r8
2ffddd90:	9601      	str	r6, [sp, #4]
2ffddd92:	511e      	str	r6, [r3, r4]
2ffddd94:	591a      	ldr	r2, [r3, r4]
2ffddd96:	f442 3280 	orr.w	r2, r2, #65536	; 0x10000
2ffddd9a:	511a      	str	r2, [r3, r4]
2ffddd9c:	f7ff ffc4 	bl	2ffddd28 <stm32mp1_pll_config_output>
2ffddda0:	4638      	mov	r0, r7
2ffddda2:	b003      	add	sp, #12
2ffddda4:	e8bd 83f0 	ldmia.w	sp!, {r4, r5, r6, r7, r8, r9, pc}
2ffddda8:	2ffe4484 	.word	0x2ffe4484

2ffdddac <stm32mp1_clk_rcc_regs_lock>:
2ffdddac:	4801      	ldr	r0, [pc, #4]	; (2ffdddb4 <stm32mp1_clk_rcc_regs_lock+0x8>)
2ffdddae:	f7ff bcda 	b.w	2ffdd766 <stm32mp1_clk_lock>
2ffdddb2:	bf00      	nop
2ffdddb4:	2ffe7fe4 	.word	0x2ffe7fe4

2ffdddb8 <stm32mp1_clk_rcc_regs_unlock>:
2ffdddb8:	4801      	ldr	r0, [pc, #4]	; (2ffdddc0 <stm32mp1_clk_rcc_regs_unlock+0x8>)
2ffdddba:	f7ff bcdf 	b.w	2ffdd77c <stm32mp1_clk_unlock>
2ffdddbe:	bf00      	nop
2ffdddc0:	2ffe7fe4 	.word	0x2ffe7fe4

2ffdddc4 <stm32mp_clk_enable>:
2ffdddc4:	2101      	movs	r1, #1
2ffdddc6:	f7ff be29 	b.w	2ffdda1c <__stm32mp1_clk_enable>

2ffdddca <stm32mp_clk_disable>:
2ffdddca:	2101      	movs	r1, #1
2ffdddcc:	f7ff be62 	b.w	2ffdda94 <__stm32mp1_clk_disable>

2ffdddd0 <stm32mp1_clk_force_enable>:
2ffdddd0:	2100      	movs	r1, #0
2ffdddd2:	f7ff be23 	b.w	2ffdda1c <__stm32mp1_clk_enable>

2ffdddd6 <stm32mp_clk_get_rate>:
2ffdddd6:	b508      	push	{r3, lr}
2ffdddd8:	f7ff fde4 	bl	2ffdd9a4 <stm32mp1_clk_get_parent>
2ffddddc:	2800      	cmp	r0, #0
2ffdddde:	db03      	blt.n	2ffddde8 <stm32mp_clk_get_rate+0x12>
2ffddde0:	e8bd 4008 	ldmia.w	sp!, {r3, lr}
2ffddde4:	f7ff bb7e 	b.w	2ffdd4e4 <get_clock_rate>
2ffddde8:	2000      	movs	r0, #0
2ffdddea:	bd08      	pop	{r3, pc}
2ffdddec:	0000      	movs	r0, r0
	...

2ffdddf0 <clk_get_pll1_settings.part.0>:
2ffdddf0:	e92d 4ff0 	stmdb	sp!, {r4, r5, r6, r7, r8, r9, sl, fp, lr}
2ffdddf4:	4615      	mov	r5, r2
2ffdddf6:	4a82      	ldr	r2, [pc, #520]	; (2ffde000 <clk_get_pll1_settings.part.0+0x210>)
2ffdddf8:	b093      	sub	sp, #76	; 0x4c
2ffdddfa:	460f      	mov	r7, r1
2ffdddfc:	930c      	str	r3, [sp, #48]	; 0x30
2ffdddfe:	4616      	mov	r6, r2
2ffdde00:	6853      	ldr	r3, [r2, #4]
2ffdde02:	4299      	cmp	r1, r3
2ffdde04:	f000 80df 	beq.w	2ffddfc6 <clk_get_pll1_settings.part.0+0x1d6>
2ffdde08:	6893      	ldr	r3, [r2, #8]
2ffdde0a:	4299      	cmp	r1, r3
2ffdde0c:	f000 80f1 	beq.w	2ffddff2 <clk_get_pll1_settings.part.0+0x202>
2ffdde10:	6813      	ldr	r3, [r2, #0]
2ffdde12:	2b00      	cmp	r3, #0
2ffdde14:	f040 80d4 	bne.w	2ffddfc0 <clk_get_pll1_settings.part.0+0x1d0>
2ffdde18:	f5b0 7f20 	cmp.w	r0, #640	; 0x280
2ffdde1c:	d008      	beq.n	2ffdde30 <clk_get_pll1_settings.part.0+0x40>
2ffdde1e:	f240 2381 	movw	r3, #641	; 0x281
2ffdde22:	4298      	cmp	r0, r3
2ffdde24:	f000 8097 	beq.w	2ffddf56 <clk_get_pll1_settings.part.0+0x166>
2ffdde28:	f7fd fa72 	bl	2ffdb310 <console_flush>
2ffdde2c:	f7f8 ea18 	blx	2ffd6260 <do_panic>
2ffdde30:	2004      	movs	r0, #4
2ffdde32:	f7ff ffd0 	bl	2ffdddd6 <stm32mp_clk_get_rate>
2ffdde36:	9004      	str	r0, [sp, #16]
2ffdde38:	f44f 717a 	mov.w	r1, #1000	; 0x3e8
2ffdde3c:	fb01 f307 	mul.w	r3, r1, r7
2ffdde40:	2200      	movs	r2, #0
2ffdde42:	9302      	str	r3, [sp, #8]
2ffdde44:	4619      	mov	r1, r3
2ffdde46:	2300      	movs	r3, #0
2ffdde48:	60eb      	str	r3, [r5, #12]
2ffdde4a:	612b      	str	r3, [r5, #16]
2ffdde4c:	9b02      	ldr	r3, [sp, #8]
2ffdde4e:	e9cd 1208 	strd	r1, r2, [sp, #32]
2ffdde52:	ea4f 6a93 	mov.w	sl, r3, lsr #26
2ffdde56:	2201      	movs	r2, #1
2ffdde58:	019b      	lsls	r3, r3, #6
2ffdde5a:	9307      	str	r3, [sp, #28]
2ffdde5c:	f04f 33ff 	mov.w	r3, #4294967295	; 0xffffffff
2ffdde60:	9305      	str	r3, [sp, #20]
2ffdde62:	233f      	movs	r3, #63	; 0x3f
2ffdde64:	616a      	str	r2, [r5, #20]
2ffdde66:	9303      	str	r3, [sp, #12]
2ffdde68:	9b03      	ldr	r3, [sp, #12]
2ffdde6a:	4a66      	ldr	r2, [pc, #408]	; (2ffde004 <clk_get_pll1_settings.part.0+0x214>)
2ffdde6c:	f103 0901 	add.w	r9, r3, #1
2ffdde70:	9b04      	ldr	r3, [sp, #16]
2ffdde72:	fbb3 f9f9 	udiv	r9, r3, r9
2ffdde76:	f5a9 03f4 	sub.w	r3, r9, #7995392	; 0x7a0000
2ffdde7a:	f5a3 5390 	sub.w	r3, r3, #4608	; 0x1200
2ffdde7e:	4293      	cmp	r3, r2
2ffdde80:	f200 8089 	bhi.w	2ffddf96 <clk_get_pll1_settings.part.0+0x1a6>
2ffdde84:	f8dd 801c 	ldr.w	r8, [sp, #28]
2ffdde88:	2301      	movs	r3, #1
2ffdde8a:	f8cd a018 	str.w	sl, [sp, #24]
2ffdde8e:	2400      	movs	r4, #0
2ffdde90:	e9cd 3400 	strd	r3, r4, [sp]
2ffdde94:	f8cd 9044 	str.w	r9, [sp, #68]	; 0x44
2ffdde98:	9a04      	ldr	r2, [sp, #16]
2ffdde9a:	2300      	movs	r3, #0
2ffdde9c:	9906      	ldr	r1, [sp, #24]
2ffdde9e:	4640      	mov	r0, r8
2ffddea0:	f002 ee64 	blx	2ffe0b6c <__aeabi_uldivmod>
2ffddea4:	f1a0 0319 	sub.w	r3, r0, #25
2ffddea8:	4607      	mov	r7, r0
2ffddeaa:	2b4b      	cmp	r3, #75	; 0x4b
2ffddeac:	d85f      	bhi.n	2ffddf6e <clk_get_pll1_settings.part.0+0x17e>
2ffddeae:	9a04      	ldr	r2, [sp, #16]
2ffddeb0:	1e43      	subs	r3, r0, #1
2ffddeb2:	930d      	str	r3, [sp, #52]	; 0x34
2ffddeb4:	9b06      	ldr	r3, [sp, #24]
2ffddeb6:	ea4f 3048 	mov.w	r0, r8, lsl #13
2ffddeba:	0359      	lsls	r1, r3, #13
2ffddebc:	2300      	movs	r3, #0
2ffddebe:	ea41 41d8 	orr.w	r1, r1, r8, lsr #19
2ffddec2:	f002 ee54 	blx	2ffe0b6c <__aeabi_uldivmod>
2ffddec6:	eba0 3447 	sub.w	r4, r0, r7, lsl #13
2ffddeca:	fb09 f707 	mul.w	r7, r9, r7
2ffddece:	17e3      	asrs	r3, r4, #31
2ffdded0:	9710      	str	r7, [sp, #64]	; 0x40
2ffdded2:	fba4 6709 	umull	r6, r7, r4, r9
2ffdded6:	fb09 7703 	mla	r7, r9, r3, r7
2ffddeda:	1ca3      	adds	r3, r4, #2
2ffddedc:	930e      	str	r3, [sp, #56]	; 0x38
2ffddede:	9b00      	ldr	r3, [sp, #0]
2ffddee0:	3b01      	subs	r3, #1
2ffddee2:	930f      	str	r3, [sp, #60]	; 0x3c
2ffddee4:	f5b4 5f00 	cmp.w	r4, #8192	; 0x2000
2ffddee8:	dc41      	bgt.n	2ffddf6e <clk_get_pll1_settings.part.0+0x17e>
2ffddeea:	9b10      	ldr	r3, [sp, #64]	; 0x40
2ffddeec:	0b70      	lsrs	r0, r6, #13
2ffddeee:	ea40 40c7 	orr.w	r0, r0, r7, lsl #19
2ffddef2:	18c0      	adds	r0, r0, r3
2ffddef4:	4b44      	ldr	r3, [pc, #272]	; (2ffde008 <clk_get_pll1_settings.part.0+0x218>)
2ffddef6:	ea4f 3157 	mov.w	r1, r7, lsr #13
2ffddefa:	f141 0100 	adc.w	r1, r1, #0
2ffddefe:	18c3      	adds	r3, r0, r3
2ffddf00:	930a      	str	r3, [sp, #40]	; 0x28
2ffddf02:	f141 33ff 	adc.w	r3, r1, #4294967295	; 0xffffffff
2ffddf06:	930b      	str	r3, [sp, #44]	; 0x2c
2ffddf08:	e9dd bc0a 	ldrd	fp, ip, [sp, #40]	; 0x28
2ffddf0c:	a33a      	add	r3, pc, #232	; (adr r3, 2ffddff8 <clk_get_pll1_settings.part.0+0x208>)
2ffddf0e:	e9d3 2300 	ldrd	r2, r3, [r3]
2ffddf12:	4563      	cmp	r3, ip
2ffddf14:	bf08      	it	eq
2ffddf16:	455a      	cmpeq	r2, fp
2ffddf18:	d321      	bcc.n	2ffddf5e <clk_get_pll1_settings.part.0+0x16e>
2ffddf1a:	e9dd 2300 	ldrd	r2, r3, [sp]
2ffddf1e:	f002 ee26 	blx	2ffe0b6c <__aeabi_uldivmod>
2ffddf22:	4602      	mov	r2, r0
2ffddf24:	460b      	mov	r3, r1
2ffddf26:	e9dd 0108 	ldrd	r0, r1, [sp, #32]
2ffddf2a:	4299      	cmp	r1, r3
2ffddf2c:	9902      	ldr	r1, [sp, #8]
2ffddf2e:	bf08      	it	eq
2ffddf30:	4290      	cmpeq	r0, r2
2ffddf32:	9b05      	ldr	r3, [sp, #20]
2ffddf34:	bf34      	ite	cc
2ffddf36:	1a50      	subcc	r0, r2, r1
2ffddf38:	1a88      	subcs	r0, r1, r2
2ffddf3a:	4298      	cmp	r0, r3
2ffddf3c:	d20d      	bcs.n	2ffddf5a <clk_get_pll1_settings.part.0+0x16a>
2ffddf3e:	9b03      	ldr	r3, [sp, #12]
2ffddf40:	602b      	str	r3, [r5, #0]
2ffddf42:	9b0d      	ldr	r3, [sp, #52]	; 0x34
2ffddf44:	606b      	str	r3, [r5, #4]
2ffddf46:	9b0f      	ldr	r3, [sp, #60]	; 0x3c
2ffddf48:	60ab      	str	r3, [r5, #8]
2ffddf4a:	9b0c      	ldr	r3, [sp, #48]	; 0x30
2ffddf4c:	601c      	str	r4, [r3, #0]
2ffddf4e:	b928      	cbnz	r0, 2ffddf5c <clk_get_pll1_settings.part.0+0x16c>
2ffddf50:	b013      	add	sp, #76	; 0x4c
2ffddf52:	e8bd 8ff0 	ldmia.w	sp!, {r4, r5, r6, r7, r8, r9, sl, fp, pc}
2ffddf56:	2000      	movs	r0, #0
2ffddf58:	e76b      	b.n	2ffdde32 <clk_get_pll1_settings.part.0+0x42>
2ffddf5a:	9805      	ldr	r0, [sp, #20]
2ffddf5c:	9005      	str	r0, [sp, #20]
2ffddf5e:	9b11      	ldr	r3, [sp, #68]	; 0x44
2ffddf60:	3401      	adds	r4, #1
2ffddf62:	18f6      	adds	r6, r6, r3
2ffddf64:	9b0e      	ldr	r3, [sp, #56]	; 0x38
2ffddf66:	f147 0700 	adc.w	r7, r7, #0
2ffddf6a:	42a3      	cmp	r3, r4
2ffddf6c:	d1ba      	bne.n	2ffddee4 <clk_get_pll1_settings.part.0+0xf4>
2ffddf6e:	9b07      	ldr	r3, [sp, #28]
2ffddf70:	eb18 0803 	adds.w	r8, r8, r3
2ffddf74:	9b06      	ldr	r3, [sp, #24]
2ffddf76:	eb43 030a 	adc.w	r3, r3, sl
2ffddf7a:	9306      	str	r3, [sp, #24]
2ffddf7c:	9b00      	ldr	r3, [sp, #0]
2ffddf7e:	3301      	adds	r3, #1
2ffddf80:	9300      	str	r3, [sp, #0]
2ffddf82:	9b01      	ldr	r3, [sp, #4]
2ffddf84:	f143 0300 	adc.w	r3, r3, #0
2ffddf88:	9301      	str	r3, [sp, #4]
2ffddf8a:	e9dd 3400 	ldrd	r3, r4, [sp]
2ffddf8e:	2c00      	cmp	r4, #0
2ffddf90:	bf08      	it	eq
2ffddf92:	2b81      	cmpeq	r3, #129	; 0x81
2ffddf94:	d180      	bne.n	2ffdde98 <clk_get_pll1_settings.part.0+0xa8>
2ffddf96:	9b03      	ldr	r3, [sp, #12]
2ffddf98:	9a07      	ldr	r2, [sp, #28]
2ffddf9a:	3b01      	subs	r3, #1
2ffddf9c:	9303      	str	r3, [sp, #12]
2ffddf9e:	9b08      	ldr	r3, [sp, #32]
2ffddfa0:	1ad3      	subs	r3, r2, r3
2ffddfa2:	9307      	str	r3, [sp, #28]
2ffddfa4:	9b09      	ldr	r3, [sp, #36]	; 0x24
2ffddfa6:	eb6a 0a03 	sbc.w	sl, sl, r3
2ffddfaa:	9b03      	ldr	r3, [sp, #12]
2ffddfac:	3301      	adds	r3, #1
2ffddfae:	f47f af5b 	bne.w	2ffdde68 <clk_get_pll1_settings.part.0+0x78>
2ffddfb2:	9b05      	ldr	r3, [sp, #20]
2ffddfb4:	f04f 30ff 	mov.w	r0, #4294967295	; 0xffffffff
2ffddfb8:	3301      	adds	r3, #1
2ffddfba:	bf18      	it	ne
2ffddfbc:	2000      	movne	r0, #0
2ffddfbe:	e7c7      	b.n	2ffddf50 <clk_get_pll1_settings.part.0+0x160>
2ffddfc0:	f04f 30ff 	mov.w	r0, #4294967295	; 0xffffffff
2ffddfc4:	e7c4      	b.n	2ffddf50 <clk_get_pll1_settings.part.0+0x160>
2ffddfc6:	2400      	movs	r4, #0
2ffddfc8:	2218      	movs	r2, #24
2ffddfca:	fb02 f104 	mul.w	r1, r2, r4
2ffddfce:	1873      	adds	r3, r6, r1
2ffddfd0:	6a9b      	ldr	r3, [r3, #40]	; 0x28
2ffddfd2:	2b00      	cmp	r3, #0
2ffddfd4:	f43f af20 	beq.w	2ffdde18 <clk_get_pll1_settings.part.0+0x28>
2ffddfd8:	3410      	adds	r4, #16
2ffddfda:	3114      	adds	r1, #20
2ffddfdc:	4431      	add	r1, r6
2ffddfde:	4628      	mov	r0, r5
2ffddfe0:	eb06 0684 	add.w	r6, r6, r4, lsl #2
2ffddfe4:	f003 fa20 	bl	2ffe1428 <memcpy>
2ffddfe8:	9a0c      	ldr	r2, [sp, #48]	; 0x30
2ffddfea:	2000      	movs	r0, #0
2ffddfec:	6873      	ldr	r3, [r6, #4]
2ffddfee:	6013      	str	r3, [r2, #0]
2ffddff0:	e7ae      	b.n	2ffddf50 <clk_get_pll1_settings.part.0+0x160>
2ffddff2:	2401      	movs	r4, #1
2ffddff4:	e7e8      	b.n	2ffddfc8 <clk_get_pll1_settings.part.0+0x1d8>
2ffddff6:	bf00      	nop
2ffddff8:	17d78400 	.word	0x17d78400
2ffddffc:	00000000 	.word	0x00000000
2ffde000:	2ffe7f94 	.word	0x2ffe7f94
2ffde004:	007a1200 	.word	0x007a1200
2ffde008:	e8287c00 	.word	0xe8287c00

2ffde00c <stm32mp1_clk_get_maxfreq_opp>:
2ffde00c:	b538      	push	{r3, r4, r5, lr}
2ffde00e:	b920      	cbnz	r0, 2ffde01a <stm32mp1_clk_get_maxfreq_opp+0xe>
2ffde010:	f640 1117 	movw	r1, #2327	; 0x917
2ffde014:	480f      	ldr	r0, [pc, #60]	; (2ffde054 <stm32mp1_clk_get_maxfreq_opp+0x48>)
2ffde016:	f003 f9df 	bl	2ffe13d8 <__assert>
2ffde01a:	b911      	cbnz	r1, 2ffde022 <stm32mp1_clk_get_maxfreq_opp+0x16>
2ffde01c:	f640 1118 	movw	r1, #2328	; 0x918
2ffde020:	e7f8      	b.n	2ffde014 <stm32mp1_clk_get_maxfreq_opp+0x8>
2ffde022:	4b0d      	ldr	r3, [pc, #52]	; (2ffde058 <stm32mp1_clk_get_maxfreq_opp+0x4c>)
2ffde024:	4a0d      	ldr	r2, [pc, #52]	; (2ffde05c <stm32mp1_clk_get_maxfreq_opp+0x50>)
2ffde026:	681c      	ldr	r4, [r3, #0]
2ffde028:	4294      	cmp	r4, r2
2ffde02a:	d10f      	bne.n	2ffde04c <stm32mp1_clk_get_maxfreq_opp+0x40>
2ffde02c:	685a      	ldr	r2, [r3, #4]
2ffde02e:	b15a      	cbz	r2, 2ffde048 <stm32mp1_clk_get_maxfreq_opp+0x3c>
2ffde030:	68dc      	ldr	r4, [r3, #12]
2ffde032:	689d      	ldr	r5, [r3, #8]
2ffde034:	42aa      	cmp	r2, r5
2ffde036:	bf3c      	itt	cc
2ffde038:	462a      	movcc	r2, r5
2ffde03a:	691c      	ldrcc	r4, [r3, #16]
2ffde03c:	b132      	cbz	r2, 2ffde04c <stm32mp1_clk_get_maxfreq_opp+0x40>
2ffde03e:	b12c      	cbz	r4, 2ffde04c <stm32mp1_clk_get_maxfreq_opp+0x40>
2ffde040:	6002      	str	r2, [r0, #0]
2ffde042:	2000      	movs	r0, #0
2ffde044:	600c      	str	r4, [r1, #0]
2ffde046:	bd38      	pop	{r3, r4, r5, pc}
2ffde048:	4614      	mov	r4, r2
2ffde04a:	e7f2      	b.n	2ffde032 <stm32mp1_clk_get_maxfreq_opp+0x26>
2ffde04c:	f04f 30ff 	mov.w	r0, #4294967295	; 0xffffffff
2ffde050:	e7f9      	b.n	2ffde046 <stm32mp1_clk_get_maxfreq_opp+0x3a>
2ffde052:	bf00      	nop
2ffde054:	2ffe4171 	.word	0x2ffe4171
2ffde058:	2ffe7f94 	.word	0x2ffe7f94
2ffde05c:	504c4c31 	.word	0x504c4c31

2ffde060 <stm32mp1_clk_lp_load_opp_pll1_settings>:
2ffde060:	294c      	cmp	r1, #76	; 0x4c
2ffde062:	460a      	mov	r2, r1
2ffde064:	b508      	push	{r3, lr}
2ffde066:	d003      	beq.n	2ffde070 <stm32mp1_clk_lp_load_opp_pll1_settings+0x10>
2ffde068:	f7fd f952 	bl	2ffdb310 <console_flush>
2ffde06c:	f7f8 e8f8 	blx	2ffd6260 <do_panic>
2ffde070:	4601      	mov	r1, r0
2ffde072:	e8bd 4008 	ldmia.w	sp!, {r3, lr}
2ffde076:	4801      	ldr	r0, [pc, #4]	; (2ffde07c <stm32mp1_clk_lp_load_opp_pll1_settings+0x1c>)
2ffde078:	f003 b9d6 	b.w	2ffe1428 <memcpy>
2ffde07c:	2ffe7f94 	.word	0x2ffe7f94

2ffde080 <stm32mp1_clk_init>:
2ffde080:	e92d 4ff0 	stmdb	sp!, {r4, r5, r6, r7, r8, r9, sl, fp, lr}
2ffde084:	b0cd      	sub	sp, #308	; 0x134
2ffde086:	4607      	mov	r7, r0
2ffde088:	f7fd fa74 	bl	2ffdb574 <stm32mp_rcc_base>
2ffde08c:	4605      	mov	r5, r0
2ffde08e:	2080      	movs	r0, #128	; 0x80
2ffde090:	f7ff fc88 	bl	2ffdd9a4 <stm32mp1_clk_get_parent>
2ffde094:	9004      	str	r0, [sp, #16]
2ffde096:	207f      	movs	r0, #127	; 0x7f
2ffde098:	f7ff fc84 	bl	2ffdd9a4 <stm32mp1_clk_get_parent>
2ffde09c:	9005      	str	r0, [sp, #20]
2ffde09e:	f7ff f933 	bl	2ffdd308 <fdt_get_rcc_secure_status>
2ffde0a2:	b900      	cbnz	r0, 2ffde0a6 <stm32mp1_clk_init+0x26>
2ffde0a4:	6028      	str	r0, [r5, #0]
2ffde0a6:	48c0      	ldr	r0, [pc, #768]	; (2ffde3a8 <stm32mp1_clk_init+0x328>)
2ffde0a8:	2209      	movs	r2, #9
2ffde0aa:	a914      	add	r1, sp, #80	; 0x50
2ffde0ac:	f7ff f8ea 	bl	2ffdd284 <fdt_rcc_read_uint32_array>
2ffde0b0:	2800      	cmp	r0, #0
2ffde0b2:	da02      	bge.n	2ffde0ba <stm32mp1_clk_init+0x3a>
2ffde0b4:	f04f 34ff 	mov.w	r4, #4294967295	; 0xffffffff
2ffde0b8:	e15f      	b.n	2ffde37a <stm32mp1_clk_init+0x2fa>
2ffde0ba:	48bc      	ldr	r0, [pc, #752]	; (2ffde3ac <stm32mp1_clk_init+0x32c>)
2ffde0bc:	220b      	movs	r2, #11
2ffde0be:	a91d      	add	r1, sp, #116	; 0x74
2ffde0c0:	f7ff f8e0 	bl	2ffdd284 <fdt_rcc_read_uint32_array>
2ffde0c4:	2800      	cmp	r0, #0
2ffde0c6:	dbf5      	blt.n	2ffde0b4 <stm32mp1_clk_init+0x34>
2ffde0c8:	f8df b310 	ldr.w	fp, [pc, #784]	; 2ffde3dc <stm32mp1_clk_init+0x35c>
2ffde0cc:	ab08      	add	r3, sp, #32
2ffde0ce:	9300      	str	r3, [sp, #0]
2ffde0d0:	f10d 0840 	add.w	r8, sp, #64	; 0x40
2ffde0d4:	4699      	mov	r9, r3
2ffde0d6:	2600      	movs	r6, #0
2ffde0d8:	4ab5      	ldr	r2, [pc, #724]	; (2ffde3b0 <stm32mp1_clk_init+0x330>)
2ffde0da:	4633      	mov	r3, r6
2ffde0dc:	210c      	movs	r1, #12
2ffde0de:	a809      	add	r0, sp, #36	; 0x24
2ffde0e0:	f003 fb1a 	bl	2ffe1718 <snprintf>
2ffde0e4:	a809      	add	r0, sp, #36	; 0x24
2ffde0e6:	f7ff f8df 	bl	2ffdd2a8 <fdt_rcc_subnode_offset>
2ffde0ea:	f848 0b04 	str.w	r0, [r8], #4
2ffde0ee:	4604      	mov	r4, r0
2ffde0f0:	f002 f9c2 	bl	2ffe0478 <fdt_check_node>
2ffde0f4:	f809 0b01 	strb.w	r0, [r9], #1
2ffde0f8:	2800      	cmp	r0, #0
2ffde0fa:	d06d      	beq.n	2ffde1d8 <stm32mp1_clk_init+0x158>
2ffde0fc:	ab28      	add	r3, sp, #160	; 0xa0
2ffde0fe:	a934      	add	r1, sp, #208	; 0xd0
2ffde100:	f04f 0a0c 	mov.w	sl, #12
2ffde104:	2218      	movs	r2, #24
2ffde106:	fb02 1206 	mla	r2, r2, r6, r1
2ffde10a:	fb0a 3a06 	mla	sl, sl, r6, r3
2ffde10e:	49a9      	ldr	r1, [pc, #676]	; (2ffde3b4 <stm32mp1_clk_init+0x334>)
2ffde110:	2306      	movs	r3, #6
2ffde112:	4620      	mov	r0, r4
2ffde114:	f002 fa06 	bl	2ffe0524 <fdt_read_uint32_array>
2ffde118:	2800      	cmp	r0, #0
2ffde11a:	dbcb      	blt.n	2ffde0b4 <stm32mp1_clk_init+0x34>
2ffde11c:	2200      	movs	r2, #0
2ffde11e:	4659      	mov	r1, fp
2ffde120:	4620      	mov	r0, r4
2ffde122:	f002 f9eb 	bl	2ffe04fc <fdt_read_uint32_default>
2ffde126:	49a4      	ldr	r1, [pc, #656]	; (2ffde3b8 <stm32mp1_clk_init+0x338>)
2ffde128:	ab0c      	add	r3, sp, #48	; 0x30
2ffde12a:	4652      	mov	r2, sl
2ffde12c:	f843 0026 	str.w	r0, [r3, r6, lsl #2]
2ffde130:	2303      	movs	r3, #3
2ffde132:	4620      	mov	r0, r4
2ffde134:	f002 f9f6 	bl	2ffe0524 <fdt_read_uint32_array>
2ffde138:	4604      	mov	r4, r0
2ffde13a:	ab07      	add	r3, sp, #28
2ffde13c:	fab0 f080 	clz	r0, r0
2ffde140:	0940      	lsrs	r0, r0, #5
2ffde142:	54f0      	strb	r0, [r6, r3]
2ffde144:	1c63      	adds	r3, r4, #1
2ffde146:	2b01      	cmp	r3, #1
2ffde148:	f200 8117 	bhi.w	2ffde37a <stm32mp1_clk_init+0x2fa>
2ffde14c:	3601      	adds	r6, #1
2ffde14e:	2e04      	cmp	r6, #4
2ffde150:	d1c2      	bne.n	2ffde0d8 <stm32mp1_clk_init+0x58>
2ffde152:	9926      	ldr	r1, [sp, #152]	; 0x98
2ffde154:	981b      	ldr	r0, [sp, #108]	; 0x6c
2ffde156:	f7ff fae9 	bl	2ffdd72c <stm32mp1_mco_csg>
2ffde15a:	9927      	ldr	r1, [sp, #156]	; 0x9c
2ffde15c:	981c      	ldr	r0, [sp, #112]	; 0x70
2ffde15e:	f7ff fae5 	bl	2ffdd72c <stm32mp1_mco_csg>
2ffde162:	4b96      	ldr	r3, [pc, #600]	; (2ffde3bc <stm32mp1_clk_init+0x33c>)
2ffde164:	68da      	ldr	r2, [r3, #12]
2ffde166:	4698      	mov	r8, r3
2ffde168:	b16a      	cbz	r2, 2ffde186 <stm32mp1_clk_init+0x106>
2ffde16a:	f7fd fa03 	bl	2ffdb574 <stm32mp_rcc_base>
2ffde16e:	f8d0 3144 	ldr.w	r3, [r0, #324]	; 0x144
2ffde172:	2202      	movs	r2, #2
2ffde174:	f44f 71a2 	mov.w	r1, #324	; 0x144
2ffde178:	f043 0301 	orr.w	r3, r3, #1
2ffde17c:	f8c0 3144 	str.w	r3, [r0, #324]	; 0x144
2ffde180:	2001      	movs	r0, #1
2ffde182:	f7ff fd0b 	bl	2ffddb9c <stm32mp1_osc_wait>
2ffde186:	f8d8 0010 	ldr.w	r0, [r8, #16]
2ffde18a:	2800      	cmp	r0, #0
2ffde18c:	d072      	beq.n	2ffde274 <stm32mp1_clk_init+0x1f4>
2ffde18e:	498c      	ldr	r1, [pc, #560]	; (2ffde3c0 <stm32mp1_clk_init+0x340>)
2ffde190:	2004      	movs	r0, #4
2ffde192:	f7fe fffd 	bl	2ffdd190 <fdt_osc_read_bool>
2ffde196:	498b      	ldr	r1, [pc, #556]	; (2ffde3c4 <stm32mp1_clk_init+0x344>)
2ffde198:	4604      	mov	r4, r0
2ffde19a:	2004      	movs	r0, #4
2ffde19c:	f7fe fff8 	bl	2ffdd190 <fdt_osc_read_bool>
2ffde1a0:	4989      	ldr	r1, [pc, #548]	; (2ffde3c8 <stm32mp1_clk_init+0x348>)
2ffde1a2:	4606      	mov	r6, r0
2ffde1a4:	2004      	movs	r0, #4
2ffde1a6:	f7fe fff3 	bl	2ffdd190 <fdt_osc_read_bool>
2ffde1aa:	9001      	str	r0, [sp, #4]
2ffde1ac:	2202      	movs	r2, #2
2ffde1ae:	4987      	ldr	r1, [pc, #540]	; (2ffde3cc <stm32mp1_clk_init+0x34c>)
2ffde1b0:	2004      	movs	r0, #4
2ffde1b2:	f7ff f827 	bl	2ffdd204 <fdt_osc_read_uint32_default>
2ffde1b6:	4607      	mov	r7, r0
2ffde1b8:	f7fd f9dc 	bl	2ffdb574 <stm32mp_rcc_base>
2ffde1bc:	b1f6      	cbz	r6, 2ffde1fc <stm32mp1_clk_init+0x17c>
2ffde1be:	f8d0 3140 	ldr.w	r3, [r0, #320]	; 0x140
2ffde1c2:	f043 0308 	orr.w	r3, r3, #8
2ffde1c6:	f8c0 3140 	str.w	r3, [r0, #320]	; 0x140
2ffde1ca:	f8d0 3140 	ldr.w	r3, [r0, #320]	; 0x140
2ffde1ce:	f043 0302 	orr.w	r3, r3, #2
2ffde1d2:	f8c0 3140 	str.w	r3, [r0, #320]	; 0x140
2ffde1d6:	e013      	b.n	2ffde200 <stm32mp1_clk_init+0x180>
2ffde1d8:	2e00      	cmp	r6, #0
2ffde1da:	d1b7      	bne.n	2ffde14c <stm32mp1_clk_init+0xcc>
2ffde1dc:	2f00      	cmp	r7, #0
2ffde1de:	d0b5      	beq.n	2ffde14c <stm32mp1_clk_init+0xcc>
2ffde1e0:	9817      	ldr	r0, [sp, #92]	; 0x5c
2ffde1e2:	ab0c      	add	r3, sp, #48	; 0x30
2ffde1e4:	aa34      	add	r2, sp, #208	; 0xd0
2ffde1e6:	4639      	mov	r1, r7
2ffde1e8:	f7ff fe02 	bl	2ffdddf0 <clk_get_pll1_settings.part.0>
2ffde1ec:	4604      	mov	r4, r0
2ffde1ee:	2800      	cmp	r0, #0
2ffde1f0:	f040 80c3 	bne.w	2ffde37a <stm32mp1_clk_init+0x2fa>
2ffde1f4:	2301      	movs	r3, #1
2ffde1f6:	f88d 3020 	strb.w	r3, [sp, #32]
2ffde1fa:	e7a7      	b.n	2ffde14c <stm32mp1_clk_init+0xcc>
2ffde1fc:	2c00      	cmp	r4, #0
2ffde1fe:	d1e4      	bne.n	2ffde1ca <stm32mp1_clk_init+0x14a>
2ffde200:	f8d0 3140 	ldr.w	r3, [r0, #320]	; 0x140
2ffde204:	f500 71a0 	add.w	r1, r0, #320	; 0x140
2ffde208:	f3c3 1301 	ubfx	r3, r3, #4, #2
2ffde20c:	429f      	cmp	r7, r3
2ffde20e:	d126      	bne.n	2ffde25e <stm32mp1_clk_init+0x1de>
2ffde210:	f7fd f9b0 	bl	2ffdb574 <stm32mp_rcc_base>
2ffde214:	f8d0 3140 	ldr.w	r3, [r0, #320]	; 0x140
2ffde218:	f043 0301 	orr.w	r3, r3, #1
2ffde21c:	f8c0 3140 	str.w	r3, [r0, #320]	; 0x140
2ffde220:	f8d8 3004 	ldr.w	r3, [r8, #4]
2ffde224:	2b00      	cmp	r3, #0
2ffde226:	d037      	beq.n	2ffde298 <stm32mp1_clk_init+0x218>
2ffde228:	4965      	ldr	r1, [pc, #404]	; (2ffde3c0 <stm32mp1_clk_init+0x340>)
2ffde22a:	2001      	movs	r0, #1
2ffde22c:	f7fe ffb0 	bl	2ffdd190 <fdt_osc_read_bool>
2ffde230:	4964      	ldr	r1, [pc, #400]	; (2ffde3c4 <stm32mp1_clk_init+0x344>)
2ffde232:	4607      	mov	r7, r0
2ffde234:	2001      	movs	r0, #1
2ffde236:	f7fe ffab 	bl	2ffdd190 <fdt_osc_read_bool>
2ffde23a:	4963      	ldr	r1, [pc, #396]	; (2ffde3c8 <stm32mp1_clk_init+0x348>)
2ffde23c:	4681      	mov	r9, r0
2ffde23e:	2001      	movs	r0, #1
2ffde240:	f7fe ffa6 	bl	2ffdd190 <fdt_osc_read_bool>
2ffde244:	4606      	mov	r6, r0
2ffde246:	f7fd f995 	bl	2ffdb574 <stm32mp_rcc_base>
2ffde24a:	4604      	mov	r4, r0
2ffde24c:	f1b9 0f00 	cmp.w	r9, #0
2ffde250:	d012      	beq.n	2ffde278 <stm32mp1_clk_init+0x1f8>
2ffde252:	2380      	movs	r3, #128	; 0x80
2ffde254:	60c3      	str	r3, [r0, #12]
2ffde256:	f44f 6380 	mov.w	r3, #1024	; 0x400
2ffde25a:	60e3      	str	r3, [r4, #12]
2ffde25c:	e00e      	b.n	2ffde27c <stm32mp1_clk_init+0x1fc>
2ffde25e:	680a      	ldr	r2, [r1, #0]
2ffde260:	bf34      	ite	cc
2ffde262:	f103 33ff 	addcc.w	r3, r3, #4294967295	; 0xffffffff
2ffde266:	3301      	addcs	r3, #1
2ffde268:	f022 0230 	bic.w	r2, r2, #48	; 0x30
2ffde26c:	ea42 1203 	orr.w	r2, r2, r3, lsl #4
2ffde270:	600a      	str	r2, [r1, #0]
2ffde272:	e7cb      	b.n	2ffde20c <stm32mp1_clk_init+0x18c>
2ffde274:	9001      	str	r0, [sp, #4]
2ffde276:	e7d3      	b.n	2ffde220 <stm32mp1_clk_init+0x1a0>
2ffde278:	2f00      	cmp	r7, #0
2ffde27a:	d1ec      	bne.n	2ffde256 <stm32mp1_clk_init+0x1d6>
2ffde27c:	f7fd f97a 	bl	2ffdb574 <stm32mp_rcc_base>
2ffde280:	f44f 7280 	mov.w	r2, #256	; 0x100
2ffde284:	f640 0108 	movw	r1, #2056	; 0x808
2ffde288:	60c2      	str	r2, [r0, #12]
2ffde28a:	2001      	movs	r0, #1
2ffde28c:	f7ff fc86 	bl	2ffddb9c <stm32mp1_osc_wait>
2ffde290:	b116      	cbz	r6, 2ffde298 <stm32mp1_clk_init+0x218>
2ffde292:	f44f 6300 	mov.w	r3, #2048	; 0x800
2ffde296:	60e3      	str	r3, [r4, #12]
2ffde298:	f7fd f96c 	bl	2ffdb574 <stm32mp_rcc_base>
2ffde29c:	2210      	movs	r2, #16
2ffde29e:	f640 0108 	movw	r1, #2056	; 0x808
2ffde2a2:	60c2      	str	r2, [r0, #12]
2ffde2a4:	2001      	movs	r0, #1
2ffde2a6:	f7ff fc79 	bl	2ffddb9c <stm32mp1_osc_wait>
2ffde2aa:	f44f 7000 	mov.w	r0, #512	; 0x200
2ffde2ae:	f7ff fcb7 	bl	2ffddc20 <stm32mp1_set_clksrc>
2ffde2b2:	4604      	mov	r4, r0
2ffde2b4:	2800      	cmp	r0, #0
2ffde2b6:	d160      	bne.n	2ffde37a <stm32mp1_clk_init+0x2fa>
2ffde2b8:	f44f 7010 	mov.w	r0, #576	; 0x240
2ffde2bc:	f7ff fcb0 	bl	2ffddc20 <stm32mp1_set_clksrc>
2ffde2c0:	4604      	mov	r4, r0
2ffde2c2:	2800      	cmp	r0, #0
2ffde2c4:	d159      	bne.n	2ffde37a <stm32mp1_clk_init+0x2fa>
2ffde2c6:	f44f 6090 	mov.w	r0, #1152	; 0x480
2ffde2ca:	f7ff fca9 	bl	2ffddc20 <stm32mp1_set_clksrc>
2ffde2ce:	4604      	mov	r4, r0
2ffde2d0:	2800      	cmp	r0, #0
2ffde2d2:	d152      	bne.n	2ffde37a <stm32mp1_clk_init+0x2fa>
2ffde2d4:	f8d5 6408 	ldr.w	r6, [r5, #1032]	; 0x408
2ffde2d8:	f416 5600 	ands.w	r6, r6, #8192	; 0x2000
2ffde2dc:	d03b      	beq.n	2ffde356 <stm32mp1_clk_init+0x2d6>
2ffde2de:	9b12      	ldr	r3, [sp, #72]	; 0x48
2ffde2e0:	aa40      	add	r2, sp, #256	; 0x100
2ffde2e2:	9918      	ldr	r1, [sp, #96]	; 0x60
2ffde2e4:	2002      	movs	r0, #2
2ffde2e6:	f7ff fab9 	bl	2ffdd85c <stm32mp1_check_pll_conf>
2ffde2ea:	9b13      	ldr	r3, [sp, #76]	; 0x4c
2ffde2ec:	4681      	mov	r9, r0
2ffde2ee:	9919      	ldr	r1, [sp, #100]	; 0x64
2ffde2f0:	aa46      	add	r2, sp, #280	; 0x118
2ffde2f2:	2003      	movs	r0, #3
2ffde2f4:	f7ff fab2 	bl	2ffdd85c <stm32mp1_check_pll_conf>
2ffde2f8:	4606      	mov	r6, r0
2ffde2fa:	f7f8 ffe5 	bl	2ffd72c8 <get_boot_device>
2ffde2fe:	4607      	mov	r7, r0
2ffde300:	bb58      	cbnz	r0, 2ffde35a <stm32mp1_clk_init+0x2da>
2ffde302:	9b04      	ldr	r3, [sp, #16]
2ffde304:	2b15      	cmp	r3, #21
2ffde306:	d02a      	beq.n	2ffde35e <stm32mp1_clk_init+0x2de>
2ffde308:	9b05      	ldr	r3, [sp, #20]
2ffde30a:	2b15      	cmp	r3, #21
2ffde30c:	d027      	beq.n	2ffde35e <stm32mp1_clk_init+0x2de>
2ffde30e:	f04f 0a00 	mov.w	sl, #0
2ffde312:	f1ba 0f02 	cmp.w	sl, #2
2ffde316:	d125      	bne.n	2ffde364 <stm32mp1_clk_init+0x2e4>
2ffde318:	f1b9 0f00 	cmp.w	r9, #0
2ffde31c:	d027      	beq.n	2ffde36e <stm32mp1_clk_init+0x2ee>
2ffde31e:	f10a 0a01 	add.w	sl, sl, #1
2ffde322:	f1ba 0f04 	cmp.w	sl, #4
2ffde326:	d1f4      	bne.n	2ffde312 <stm32mp1_clk_init+0x292>
2ffde328:	f8d8 2000 	ldr.w	r2, [r8]
2ffde32c:	2a00      	cmp	r2, #0
2ffde32e:	f000 8113 	beq.w	2ffde558 <stm32mp1_clk_init+0x4d8>
2ffde332:	4b27      	ldr	r3, [pc, #156]	; (2ffde3d0 <stm32mp1_clk_init+0x350>)
2ffde334:	f04f 0a00 	mov.w	sl, #0
2ffde338:	429a      	cmp	r2, r3
2ffde33a:	fa5f f18a 	uxtb.w	r1, sl
2ffde33e:	f000 80e4 	beq.w	2ffde50a <stm32mp1_clk_init+0x48a>
2ffde342:	085b      	lsrs	r3, r3, #1
2ffde344:	f10a 0a01 	add.w	sl, sl, #1
2ffde348:	f1ba 0f04 	cmp.w	sl, #4
2ffde34c:	d1f4      	bne.n	2ffde338 <stm32mp1_clk_init+0x2b8>
2ffde34e:	4821      	ldr	r0, [pc, #132]	; (2ffde3d4 <stm32mp1_clk_init+0x354>)
2ffde350:	f7fc ff40 	bl	2ffdb1d4 <tf_log>
2ffde354:	e6ae      	b.n	2ffde0b4 <stm32mp1_clk_init+0x34>
2ffde356:	46b1      	mov	r9, r6
2ffde358:	e7cf      	b.n	2ffde2fa <stm32mp1_clk_init+0x27a>
2ffde35a:	2700      	movs	r7, #0
2ffde35c:	e7d7      	b.n	2ffde30e <stm32mp1_clk_init+0x28e>
2ffde35e:	2601      	movs	r6, #1
2ffde360:	4637      	mov	r7, r6
2ffde362:	e7d4      	b.n	2ffde30e <stm32mp1_clk_init+0x28e>
2ffde364:	f1ba 0f03 	cmp.w	sl, #3
2ffde368:	d101      	bne.n	2ffde36e <stm32mp1_clk_init+0x2ee>
2ffde36a:	2e00      	cmp	r6, #0
2ffde36c:	d1d7      	bne.n	2ffde31e <stm32mp1_clk_init+0x29e>
2ffde36e:	4650      	mov	r0, sl
2ffde370:	f7ff fa10 	bl	2ffdd794 <stm32mp1_pll_stop>
2ffde374:	4604      	mov	r4, r0
2ffde376:	2800      	cmp	r0, #0
2ffde378:	d0d1      	beq.n	2ffde31e <stm32mp1_clk_init+0x29e>
2ffde37a:	4620      	mov	r0, r4
2ffde37c:	b04d      	add	sp, #308	; 0x134
2ffde37e:	e8bd 8ff0 	ldmia.w	sp!, {r4, r5, r6, r7, r8, r9, sl, fp, pc}
2ffde382:	ec53 2f0e 	mrrc	15, 0, r2, r3, cr14
2ffde386:	e9dd 0102 	ldrd	r0, r1, [sp, #8]
2ffde38a:	4299      	cmp	r1, r3
2ffde38c:	bf08      	it	eq
2ffde38e:	4290      	cmpeq	r0, r2
2ffde390:	f080 80d8 	bcs.w	2ffde544 <stm32mp1_clk_init+0x4c4>
2ffde394:	f8d4 2808 	ldr.w	r2, [r4, #2056]	; 0x808
2ffde398:	4641      	mov	r1, r8
2ffde39a:	480f      	ldr	r0, [pc, #60]	; (2ffde3d8 <stm32mp1_clk_init+0x358>)
2ffde39c:	f06f 043b 	mvn.w	r4, #59	; 0x3b
2ffde3a0:	f7fc ff18 	bl	2ffdb1d4 <tf_log>
2ffde3a4:	e7e9      	b.n	2ffde37a <stm32mp1_clk_init+0x2fa>
2ffde3a6:	bf00      	nop
2ffde3a8:	2ffe418f 	.word	0x2ffe418f
2ffde3ac:	2ffe4199 	.word	0x2ffe4199
2ffde3b0:	2ffe41a3 	.word	0x2ffe41a3
2ffde3b4:	2ffe2a9d 	.word	0x2ffe2a9d
2ffde3b8:	2ffe41ad 	.word	0x2ffe41ad
2ffde3bc:	2ffe7fe8 	.word	0x2ffe7fe8
2ffde3c0:	2ffe41b1 	.word	0x2ffe41b1
2ffde3c4:	2ffe41bb 	.word	0x2ffe41bb
2ffde3c8:	2ffe41c8 	.word	0x2ffe41c8
2ffde3cc:	2ffe41cf 	.word	0x2ffe41cf
2ffde3d0:	03d09000 	.word	0x03d09000
2ffde3d4:	2ffe41fe 	.word	0x2ffe41fe
2ffde3d8:	2ffe41d8 	.word	0x2ffe41d8
2ffde3dc:	2ffe407c 	.word	0x2ffe407c
2ffde3e0:	9818      	ldr	r0, [sp, #96]	; 0x60
2ffde3e2:	f7ff fc1d 	bl	2ffddc20 <stm32mp1_set_clksrc>
2ffde3e6:	4604      	mov	r4, r0
2ffde3e8:	2800      	cmp	r0, #0
2ffde3ea:	f000 8107 	beq.w	2ffde5fc <stm32mp1_clk_init+0x57c>
2ffde3ee:	e7c4      	b.n	2ffde37a <stm32mp1_clk_init+0x2fa>
2ffde3f0:	f1b8 0f03 	cmp.w	r8, #3
2ffde3f4:	d103      	bne.n	2ffde3fe <stm32mp1_clk_init+0x37e>
2ffde3f6:	b116      	cbz	r6, 2ffde3fe <stm32mp1_clk_init+0x37e>
2ffde3f8:	2f00      	cmp	r7, #0
2ffde3fa:	f000 8115 	beq.w	2ffde628 <stm32mp1_clk_init+0x5a8>
2ffde3fe:	ab08      	add	r3, sp, #32
2ffde400:	f813 2008 	ldrb.w	r2, [r3, r8]
2ffde404:	2a00      	cmp	r2, #0
2ffde406:	f000 810f 	beq.w	2ffde628 <stm32mp1_clk_init+0x5a8>
2ffde40a:	f1b8 0f03 	cmp.w	r8, #3
2ffde40e:	d105      	bne.n	2ffde41c <stm32mp1_clk_init+0x39c>
2ffde410:	b127      	cbz	r7, 2ffde41c <stm32mp1_clk_init+0x39c>
2ffde412:	a946      	add	r1, sp, #280	; 0x118
2ffde414:	4640      	mov	r0, r8
2ffde416:	f7ff fc87 	bl	2ffddd28 <stm32mp1_pll_config_output>
2ffde41a:	e105      	b.n	2ffde628 <stm32mp1_clk_init+0x5a8>
2ffde41c:	ab0c      	add	r3, sp, #48	; 0x30
2ffde41e:	2118      	movs	r1, #24
2ffde420:	4640      	mov	r0, r8
2ffde422:	f853 2028 	ldr.w	r2, [r3, r8, lsl #2]
2ffde426:	ab34      	add	r3, sp, #208	; 0xd0
2ffde428:	fb01 3108 	mla	r1, r1, r8, r3
2ffde42c:	f7ff fc96 	bl	2ffddd5c <stm32mp1_pll_config>
2ffde430:	4604      	mov	r4, r0
2ffde432:	2800      	cmp	r0, #0
2ffde434:	d1a1      	bne.n	2ffde37a <stm32mp1_clk_init+0x2fa>
2ffde436:	aa07      	add	r2, sp, #28
2ffde438:	f818 2002 	ldrb.w	r2, [r8, r2]
2ffde43c:	b1da      	cbz	r2, 2ffde476 <stm32mp1_clk_init+0x3f6>
2ffde43e:	f8db 4008 	ldr.w	r4, [fp, #8]
2ffde442:	4bb5      	ldr	r3, [pc, #724]	; (2ffde718 <stm32mp1_clk_init+0x698>)
2ffde444:	f8db 2004 	ldr.w	r2, [fp, #4]
2ffde448:	03e4      	lsls	r4, r4, #15
2ffde44a:	ea03 4202 	and.w	r2, r3, r2, lsl #16
2ffde44e:	b2a4      	uxth	r4, r4
2ffde450:	4314      	orrs	r4, r2
2ffde452:	f8db 2000 	ldr.w	r2, [fp]
2ffde456:	f3c2 020c 	ubfx	r2, r2, #0, #13
2ffde45a:	4314      	orrs	r4, r2
2ffde45c:	f7fd f88a 	bl	2ffdb574 <stm32mp_rcc_base>
2ffde460:	f8ba 200e 	ldrh.w	r2, [sl, #14]
2ffde464:	5014      	str	r4, [r2, r0]
2ffde466:	f7fd f885 	bl	2ffdb574 <stm32mp_rcc_base>
2ffde46a:	f8ba 100c 	ldrh.w	r1, [sl, #12]
2ffde46e:	580a      	ldr	r2, [r1, r0]
2ffde470:	f042 0204 	orr.w	r2, r2, #4
2ffde474:	500a      	str	r2, [r1, r0]
2ffde476:	4640      	mov	r0, r8
2ffde478:	f7ff f946 	bl	2ffdd708 <stm32mp1_pll_start>
2ffde47c:	e0d4      	b.n	2ffde628 <stm32mp1_clk_init+0x5a8>
2ffde47e:	6971      	ldr	r1, [r6, #20]
2ffde480:	4640      	mov	r0, r8
2ffde482:	f7ff fc0d 	bl	2ffddca0 <stm32mp1_pll_output>
2ffde486:	4604      	mov	r4, r0
2ffde488:	2800      	cmp	r0, #0
2ffde48a:	f000 80e0 	beq.w	2ffde64e <stm32mp1_clk_init+0x5ce>
2ffde48e:	e774      	b.n	2ffde37a <stm32mp1_clk_init+0x2fa>
2ffde490:	b307      	cbz	r7, 2ffde4d4 <stm32mp1_clk_init+0x454>
2ffde492:	f8d5 991c 	ldr.w	r9, [r5, #2332]	; 0x91c
2ffde496:	f04f 0800 	mov.w	r8, #0
2ffde49a:	f640 5203 	movw	r2, #3331	; 0xd03
2ffde49e:	46c3      	mov	fp, r8
2ffde4a0:	9b09      	ldr	r3, [sp, #36]	; 0x24
2ffde4a2:	ebb8 0f93 	cmp.w	r8, r3, lsr #2
2ffde4a6:	d317      	bcc.n	2ffde4d8 <stm32mp1_clk_init+0x458>
2ffde4a8:	f1bb 0f00 	cmp.w	fp, #0
2ffde4ac:	d003      	beq.n	2ffde4b6 <stm32mp1_clk_init+0x436>
2ffde4ae:	f640 5003 	movw	r0, #3331	; 0xd03
2ffde4b2:	f7ff fb29 	bl	2ffddb08 <stm32mp1_pkcs_config>
2ffde4b6:	2f00      	cmp	r7, #0
2ffde4b8:	f000 8116 	beq.w	2ffde6e8 <stm32mp1_clk_init+0x668>
2ffde4bc:	f8d5 391c 	ldr.w	r3, [r5, #2332]	; 0x91c
2ffde4c0:	f009 0913 	and.w	r9, r9, #19
2ffde4c4:	f003 0313 	and.w	r3, r3, #19
2ffde4c8:	454b      	cmp	r3, r9
2ffde4ca:	f000 810d 	beq.w	2ffde6e8 <stm32mp1_clk_init+0x668>
2ffde4ce:	f06f 040e 	mvn.w	r4, #14
2ffde4d2:	e752      	b.n	2ffde37a <stm32mp1_clk_init+0x2fa>
2ffde4d4:	46b9      	mov	r9, r7
2ffde4d6:	e7de      	b.n	2ffde496 <stm32mp1_clk_init+0x416>
2ffde4d8:	f85a 1028 	ldr.w	r1, [sl, r8, lsl #2]
2ffde4dc:	0e08      	lsrs	r0, r1, #24
2ffde4de:	f3c1 2307 	ubfx	r3, r1, #8, #8
2ffde4e2:	ea40 6001 	orr.w	r0, r0, r1, lsl #24
2ffde4e6:	ea40 4303 	orr.w	r3, r0, r3, lsl #16
2ffde4ea:	f3c1 4007 	ubfx	r0, r1, #16, #8
2ffde4ee:	ea43 2000 	orr.w	r0, r3, r0, lsl #8
2ffde4f2:	4290      	cmp	r0, r2
2ffde4f4:	d006      	beq.n	2ffde504 <stm32mp1_clk_init+0x484>
2ffde4f6:	f7ff fb07 	bl	2ffddb08 <stm32mp1_pkcs_config>
2ffde4fa:	f640 5203 	movw	r2, #3331	; 0xd03
2ffde4fe:	f108 0801 	add.w	r8, r8, #1
2ffde502:	e7cd      	b.n	2ffde4a0 <stm32mp1_clk_init+0x420>
2ffde504:	f04f 0b01 	mov.w	fp, #1
2ffde508:	e7f9      	b.n	2ffde4fe <stm32mp1_clk_init+0x47e>
2ffde50a:	b301      	cbz	r1, 2ffde54e <stm32mp1_clk_init+0x4ce>
2ffde50c:	f7fd f832 	bl	2ffdb574 <stm32mp_rcc_base>
2ffde510:	6983      	ldr	r3, [r0, #24]
2ffde512:	4604      	mov	r4, r0
2ffde514:	f600 0808 	addw	r8, r0, #2056	; 0x808
2ffde518:	f023 0303 	bic.w	r3, r3, #3
2ffde51c:	ea43 030a 	orr.w	r3, r3, sl
2ffde520:	6183      	str	r3, [r0, #24]
2ffde522:	ee1e 0f10 	mrc	15, 0, r0, cr14, cr0, {0}
2ffde526:	ec5b af0e 	mrrc	15, 0, sl, fp, cr14
2ffde52a:	497c      	ldr	r1, [pc, #496]	; (2ffde71c <stm32mp1_clk_init+0x69c>)
2ffde52c:	2300      	movs	r3, #0
2ffde52e:	4a7c      	ldr	r2, [pc, #496]	; (2ffde720 <stm32mp1_clk_init+0x6a0>)
2ffde530:	fba0 0101 	umull	r0, r1, r0, r1
2ffde534:	f002 eb1a 	blx	2ffe0b6c <__aeabi_uldivmod>
2ffde538:	eb10 030a 	adds.w	r3, r0, sl
2ffde53c:	9302      	str	r3, [sp, #8]
2ffde53e:	eb41 030b 	adc.w	r3, r1, fp
2ffde542:	9303      	str	r3, [sp, #12]
2ffde544:	f8d8 3000 	ldr.w	r3, [r8]
2ffde548:	075a      	lsls	r2, r3, #29
2ffde54a:	f57f af1a 	bpl.w	2ffde382 <stm32mp1_clk_init+0x302>
2ffde54e:	2080      	movs	r0, #128	; 0x80
2ffde550:	f7ff fc41 	bl	2ffdddd6 <stm32mp_clk_get_rate>
2ffde554:	f7fe ff32 	bl	2ffdd3bc <stm32mp_stgen_config>
2ffde558:	9b1d      	ldr	r3, [sp, #116]	; 0x74
2ffde55a:	f105 0130 	add.w	r1, r5, #48	; 0x30
2ffde55e:	f003 033f 	and.w	r3, r3, #63	; 0x3f
2ffde562:	62eb      	str	r3, [r5, #44]	; 0x2c
2ffde564:	981e      	ldr	r0, [sp, #120]	; 0x78
2ffde566:	f7ff fae3 	bl	2ffddb30 <stm32mp1_set_clkdiv>
2ffde56a:	4604      	mov	r4, r0
2ffde56c:	2800      	cmp	r0, #0
2ffde56e:	f47f af04 	bne.w	2ffde37a <stm32mp1_clk_init+0x2fa>
2ffde572:	9823      	ldr	r0, [sp, #140]	; 0x8c
2ffde574:	f105 013c 	add.w	r1, r5, #60	; 0x3c
2ffde578:	f7ff fada 	bl	2ffddb30 <stm32mp1_set_clkdiv>
2ffde57c:	4604      	mov	r4, r0
2ffde57e:	2800      	cmp	r0, #0
2ffde580:	f47f aefb 	bne.w	2ffde37a <stm32mp1_clk_init+0x2fa>
2ffde584:	9824      	ldr	r0, [sp, #144]	; 0x90
2ffde586:	f105 0140 	add.w	r1, r5, #64	; 0x40
2ffde58a:	f7ff fad1 	bl	2ffddb30 <stm32mp1_set_clkdiv>
2ffde58e:	4604      	mov	r4, r0
2ffde590:	2800      	cmp	r0, #0
2ffde592:	f47f aef2 	bne.w	2ffde37a <stm32mp1_clk_init+0x2fa>
2ffde596:	981f      	ldr	r0, [sp, #124]	; 0x7c
2ffde598:	f505 6103 	add.w	r1, r5, #2096	; 0x830
2ffde59c:	f7ff fac8 	bl	2ffddb30 <stm32mp1_set_clkdiv>
2ffde5a0:	4604      	mov	r4, r0
2ffde5a2:	2800      	cmp	r0, #0
2ffde5a4:	f47f aee9 	bne.w	2ffde37a <stm32mp1_clk_init+0x2fa>
2ffde5a8:	9820      	ldr	r0, [sp, #128]	; 0x80
2ffde5aa:	f605 0134 	addw	r1, r5, #2100	; 0x834
2ffde5ae:	f7ff fabf 	bl	2ffddb30 <stm32mp1_set_clkdiv>
2ffde5b2:	4604      	mov	r4, r0
2ffde5b4:	2800      	cmp	r0, #0
2ffde5b6:	f47f aee0 	bne.w	2ffde37a <stm32mp1_clk_init+0x2fa>
2ffde5ba:	9821      	ldr	r0, [sp, #132]	; 0x84
2ffde5bc:	f605 0138 	addw	r1, r5, #2104	; 0x838
2ffde5c0:	f7ff fab6 	bl	2ffddb30 <stm32mp1_set_clkdiv>
2ffde5c4:	4604      	mov	r4, r0
2ffde5c6:	2800      	cmp	r0, #0
2ffde5c8:	f47f aed7 	bne.w	2ffde37a <stm32mp1_clk_init+0x2fa>
2ffde5cc:	9822      	ldr	r0, [sp, #136]	; 0x88
2ffde5ce:	f605 013c 	addw	r1, r5, #2108	; 0x83c
2ffde5d2:	f7ff faad 	bl	2ffddb30 <stm32mp1_set_clkdiv>
2ffde5d6:	4604      	mov	r4, r0
2ffde5d8:	2800      	cmp	r0, #0
2ffde5da:	f47f aece 	bne.w	2ffde37a <stm32mp1_clk_init+0x2fa>
2ffde5de:	9b25      	ldr	r3, [sp, #148]	; 0x94
2ffde5e0:	f003 033f 	and.w	r3, r3, #63	; 0x3f
2ffde5e4:	646b      	str	r3, [r5, #68]	; 0x44
2ffde5e6:	9817      	ldr	r0, [sp, #92]	; 0x5c
2ffde5e8:	f7ff fb1a 	bl	2ffddc20 <stm32mp1_set_clksrc>
2ffde5ec:	4604      	mov	r4, r0
2ffde5ee:	2800      	cmp	r0, #0
2ffde5f0:	f47f aec3 	bne.w	2ffde37a <stm32mp1_clk_init+0x2fa>
2ffde5f4:	f1b9 0f00 	cmp.w	r9, #0
2ffde5f8:	f43f aef2 	beq.w	2ffde3e0 <stm32mp1_clk_init+0x360>
2ffde5fc:	b936      	cbnz	r6, 2ffde60c <stm32mp1_clk_init+0x58c>
2ffde5fe:	9819      	ldr	r0, [sp, #100]	; 0x64
2ffde600:	f7ff fb0e 	bl	2ffddc20 <stm32mp1_set_clksrc>
2ffde604:	4604      	mov	r4, r0
2ffde606:	2800      	cmp	r0, #0
2ffde608:	f47f aeb7 	bne.w	2ffde37a <stm32mp1_clk_init+0x2fa>
2ffde60c:	f8df a11c 	ldr.w	sl, [pc, #284]	; 2ffde72c <stm32mp1_clk_init+0x6ac>
2ffde610:	f10d 0ba0 	add.w	fp, sp, #160	; 0xa0
2ffde614:	f04f 0800 	mov.w	r8, #0
2ffde618:	f1b8 0f02 	cmp.w	r8, #2
2ffde61c:	f47f aee8 	bne.w	2ffde3f0 <stm32mp1_clk_init+0x370>
2ffde620:	f1b9 0f00 	cmp.w	r9, #0
2ffde624:	f43f aeeb 	beq.w	2ffde3fe <stm32mp1_clk_init+0x37e>
2ffde628:	f108 0801 	add.w	r8, r8, #1
2ffde62c:	f10b 0b0c 	add.w	fp, fp, #12
2ffde630:	f1b8 0f04 	cmp.w	r8, #4
2ffde634:	f10a 0a20 	add.w	sl, sl, #32
2ffde638:	d1ee      	bne.n	2ffde618 <stm32mp1_clk_init+0x598>
2ffde63a:	ae34      	add	r6, sp, #208	; 0xd0
2ffde63c:	f04f 0800 	mov.w	r8, #0
2ffde640:	9a00      	ldr	r2, [sp, #0]
2ffde642:	f812 3b01 	ldrb.w	r3, [r2], #1
2ffde646:	9200      	str	r2, [sp, #0]
2ffde648:	2b00      	cmp	r3, #0
2ffde64a:	f47f af18 	bne.w	2ffde47e <stm32mp1_clk_init+0x3fe>
2ffde64e:	f108 0801 	add.w	r8, r8, #1
2ffde652:	3618      	adds	r6, #24
2ffde654:	f1b8 0f04 	cmp.w	r8, #4
2ffde658:	d1f2      	bne.n	2ffde640 <stm32mp1_clk_init+0x5c0>
2ffde65a:	4e32      	ldr	r6, [pc, #200]	; (2ffde724 <stm32mp1_clk_init+0x6a4>)
2ffde65c:	6933      	ldr	r3, [r6, #16]
2ffde65e:	b12b      	cbz	r3, 2ffde66c <stm32mp1_clk_init+0x5ec>
2ffde660:	4642      	mov	r2, r8
2ffde662:	f44f 71a0 	mov.w	r1, #320	; 0x140
2ffde666:	2001      	movs	r0, #1
2ffde668:	f7ff fa98 	bl	2ffddb9c <stm32mp1_osc_wait>
2ffde66c:	9814      	ldr	r0, [sp, #80]	; 0x50
2ffde66e:	f7ff fad7 	bl	2ffddc20 <stm32mp1_set_clksrc>
2ffde672:	4604      	mov	r4, r0
2ffde674:	2800      	cmp	r0, #0
2ffde676:	f47f ae80 	bne.w	2ffde37a <stm32mp1_clk_init+0x2fa>
2ffde67a:	9815      	ldr	r0, [sp, #84]	; 0x54
2ffde67c:	f7ff fad0 	bl	2ffddc20 <stm32mp1_set_clksrc>
2ffde680:	4604      	mov	r4, r0
2ffde682:	2800      	cmp	r0, #0
2ffde684:	f47f ae79 	bne.w	2ffde37a <stm32mp1_clk_init+0x2fa>
2ffde688:	9816      	ldr	r0, [sp, #88]	; 0x58
2ffde68a:	f7ff fac9 	bl	2ffddc20 <stm32mp1_set_clksrc>
2ffde68e:	4604      	mov	r4, r0
2ffde690:	2800      	cmp	r0, #0
2ffde692:	f47f ae72 	bne.w	2ffde37a <stm32mp1_clk_init+0x2fa>
2ffde696:	f8dd 8068 	ldr.w	r8, [sp, #104]	; 0x68
2ffde69a:	f7fc ff6b 	bl	2ffdb574 <stm32mp_rcc_base>
2ffde69e:	f8d0 3140 	ldr.w	r3, [r0, #320]	; 0x140
2ffde6a2:	02db      	lsls	r3, r3, #11
2ffde6a4:	d502      	bpl.n	2ffde6ac <stm32mp1_clk_init+0x62c>
2ffde6a6:	f5b8 5fa0 	cmp.w	r8, #5120	; 0x1400
2ffde6aa:	d00d      	beq.n	2ffde6c8 <stm32mp1_clk_init+0x648>
2ffde6ac:	f8d0 3140 	ldr.w	r3, [r0, #320]	; 0x140
2ffde6b0:	f423 3340 	bic.w	r3, r3, #196608	; 0x30000
2ffde6b4:	ea43 4308 	orr.w	r3, r3, r8, lsl #16
2ffde6b8:	f8c0 3140 	str.w	r3, [r0, #320]	; 0x140
2ffde6bc:	f8d0 3140 	ldr.w	r3, [r0, #320]	; 0x140
2ffde6c0:	f443 1380 	orr.w	r3, r3, #1048576	; 0x100000
2ffde6c4:	f8c0 3140 	str.w	r3, [r0, #320]	; 0x140
2ffde6c8:	9b01      	ldr	r3, [sp, #4]
2ffde6ca:	b12b      	cbz	r3, 2ffde6d8 <stm32mp1_clk_init+0x658>
2ffde6cc:	f8d0 3140 	ldr.w	r3, [r0, #320]	; 0x140
2ffde6d0:	f443 7380 	orr.w	r3, r3, #256	; 0x100
2ffde6d4:	f8c0 3140 	str.w	r3, [r0, #320]	; 0x140
2ffde6d8:	4813      	ldr	r0, [pc, #76]	; (2ffde728 <stm32mp1_clk_init+0x6a8>)
2ffde6da:	a909      	add	r1, sp, #36	; 0x24
2ffde6dc:	f7fe fdfc 	bl	2ffdd2d8 <fdt_rcc_read_prop>
2ffde6e0:	4682      	mov	sl, r0
2ffde6e2:	2800      	cmp	r0, #0
2ffde6e4:	f47f aed4 	bne.w	2ffde490 <stm32mp1_clk_init+0x410>
2ffde6e8:	6836      	ldr	r6, [r6, #0]
2ffde6ea:	b946      	cbnz	r6, 2ffde6fe <stm32mp1_clk_init+0x67e>
2ffde6ec:	f7fc ff42 	bl	2ffdb574 <stm32mp_rcc_base>
2ffde6f0:	2201      	movs	r2, #1
2ffde6f2:	f640 0108 	movw	r1, #2056	; 0x808
2ffde6f6:	6102      	str	r2, [r0, #16]
2ffde6f8:	4630      	mov	r0, r6
2ffde6fa:	f7ff fa4f 	bl	2ffddb9c <stm32mp1_osc_wait>
2ffde6fe:	2080      	movs	r0, #128	; 0x80
2ffde700:	f7ff fb69 	bl	2ffdddd6 <stm32mp_clk_get_rate>
2ffde704:	f7fe fe5a 	bl	2ffdd3bc <stm32mp_stgen_config>
2ffde708:	f8d5 30d8 	ldr.w	r3, [r5, #216]	; 0xd8
2ffde70c:	f423 03e0 	bic.w	r3, r3, #7340032	; 0x700000
2ffde710:	f8c5 30d8 	str.w	r3, [r5, #216]	; 0xd8
2ffde714:	e631      	b.n	2ffde37a <stm32mp1_clk_init+0x2fa>
2ffde716:	bf00      	nop
2ffde718:	7fff0000 	.word	0x7fff0000
2ffde71c:	00030d40 	.word	0x00030d40
2ffde720:	000f4240 	.word	0x000f4240
2ffde724:	2ffe7fe8 	.word	0x2ffe7fe8
2ffde728:	2ffe41f6 	.word	0x2ffe41f6
2ffde72c:	2ffe4484 	.word	0x2ffe4484

2ffde730 <stm32mp1_clk_probe>:
2ffde730:	b573      	push	{r0, r1, r4, r5, r6, lr}
2ffde732:	2400      	movs	r4, #0
2ffde734:	4d24      	ldr	r5, [pc, #144]	; (2ffde7c8 <stm32mp1_clk_probe+0x98>)
2ffde736:	4e25      	ldr	r6, [pc, #148]	; (2ffde7cc <stm32mp1_clk_probe+0x9c>)
2ffde738:	f855 0b04 	ldr.w	r0, [r5], #4
2ffde73c:	a901      	add	r1, sp, #4
2ffde73e:	f7fe fcd7 	bl	2ffdd0f0 <fdt_osc_read_freq>
2ffde742:	b910      	cbnz	r0, 2ffde74a <stm32mp1_clk_probe+0x1a>
2ffde744:	9b01      	ldr	r3, [sp, #4]
2ffde746:	f846 3024 	str.w	r3, [r6, r4, lsl #2]
2ffde74a:	3401      	adds	r4, #1
2ffde74c:	2c06      	cmp	r4, #6
2ffde74e:	d1f3      	bne.n	2ffde738 <stm32mp1_clk_probe+0x8>
2ffde750:	20e4      	movs	r0, #228	; 0xe4
2ffde752:	f7ff fb37 	bl	2ffdddc4 <stm32mp_clk_enable>
2ffde756:	20dc      	movs	r0, #220	; 0xdc
2ffde758:	f7ff fb34 	bl	2ffdddc4 <stm32mp_clk_enable>
2ffde75c:	20dd      	movs	r0, #221	; 0xdd
2ffde75e:	f7ff fb31 	bl	2ffdddc4 <stm32mp_clk_enable>
2ffde762:	20de      	movs	r0, #222	; 0xde
2ffde764:	f7ff fb2e 	bl	2ffdddc4 <stm32mp_clk_enable>
2ffde768:	20df      	movs	r0, #223	; 0xdf
2ffde76a:	f7ff fb2b 	bl	2ffdddc4 <stm32mp_clk_enable>
2ffde76e:	20e2      	movs	r0, #226	; 0xe2
2ffde770:	f7ff fb28 	bl	2ffdddc4 <stm32mp_clk_enable>
2ffde774:	20e0      	movs	r0, #224	; 0xe0
2ffde776:	f7ff fb25 	bl	2ffdddc4 <stm32mp_clk_enable>
2ffde77a:	20e1      	movs	r0, #225	; 0xe1
2ffde77c:	f7ff fb22 	bl	2ffdddc4 <stm32mp_clk_enable>
2ffde780:	20e5      	movs	r0, #229	; 0xe5
2ffde782:	f7ff fb1f 	bl	2ffdddc4 <stm32mp_clk_enable>
2ffde786:	20e6      	movs	r0, #230	; 0xe6
2ffde788:	f7ff fb1c 	bl	2ffdddc4 <stm32mp_clk_enable>
2ffde78c:	2043      	movs	r0, #67	; 0x43
2ffde78e:	f7ff fb19 	bl	2ffdddc4 <stm32mp_clk_enable>
2ffde792:	2042      	movs	r0, #66	; 0x42
2ffde794:	f7ff fb16 	bl	2ffdddc4 <stm32mp_clk_enable>
2ffde798:	2071      	movs	r0, #113	; 0x71
2ffde79a:	f7ff fb13 	bl	2ffdddc4 <stm32mp_clk_enable>
2ffde79e:	2080      	movs	r0, #128	; 0x80
2ffde7a0:	f7ff fb10 	bl	2ffdddc4 <stm32mp_clk_enable>
2ffde7a4:	2041      	movs	r0, #65	; 0x41
2ffde7a6:	f7ff fb0d 	bl	2ffdddc4 <stm32mp_clk_enable>
2ffde7aa:	20c2      	movs	r0, #194	; 0xc2
2ffde7ac:	f7ff fb13 	bl	2ffdddd6 <stm32mp_clk_get_rate>
2ffde7b0:	f500 70fa 	add.w	r0, r0, #500	; 0x1f4
2ffde7b4:	f44f 737a 	mov.w	r3, #1000	; 0x3e8
2ffde7b8:	fbb0 f0f3 	udiv	r0, r0, r3
2ffde7bc:	4b04      	ldr	r3, [pc, #16]	; (2ffde7d0 <stm32mp1_clk_probe+0xa0>)
2ffde7be:	6018      	str	r0, [r3, #0]
2ffde7c0:	2000      	movs	r0, #0
2ffde7c2:	b002      	add	sp, #8
2ffde7c4:	bd70      	pop	{r4, r5, r6, pc}
2ffde7c6:	bf00      	nop
2ffde7c8:	2ffe62a8 	.word	0x2ffe62a8
2ffde7cc:	2ffe7fe8 	.word	0x2ffe7fe8
2ffde7d0:	2ffe7eb4 	.word	0x2ffe7eb4

2ffde7d4 <ddr_enable_clock>:
2ffde7d4:	b508      	push	{r3, lr}
2ffde7d6:	f7ff fae9 	bl	2ffdddac <stm32mp1_clk_rcc_regs_lock>
2ffde7da:	f7fc fecb 	bl	2ffdb574 <stm32mp_rcc_base>
2ffde7de:	f8d0 30d8 	ldr.w	r3, [r0, #216]	; 0xd8
2ffde7e2:	f443 7315 	orr.w	r3, r3, #596	; 0x254
2ffde7e6:	f043 0301 	orr.w	r3, r3, #1
2ffde7ea:	f8c0 30d8 	str.w	r3, [r0, #216]	; 0xd8
2ffde7ee:	e8bd 4008 	ldmia.w	sp!, {r3, lr}
2ffde7f2:	f7ff bae1 	b.w	2ffdddb8 <stm32mp1_clk_rcc_regs_unlock>
	...

2ffde7f8 <ddr_read_sr_mode>:
2ffde7f8:	b508      	push	{r3, lr}
2ffde7fa:	f7fc feaf 	bl	2ffdb55c <stm32mp_ddrctrl_base>
2ffde7fe:	6b03      	ldr	r3, [r0, #48]	; 0x30
2ffde800:	4a02      	ldr	r2, [pc, #8]	; (2ffde80c <ddr_read_sr_mode+0x14>)
2ffde802:	f003 0309 	and.w	r3, r3, #9
2ffde806:	5cd0      	ldrb	r0, [r2, r3]
2ffde808:	bd08      	pop	{r3, pc}
2ffde80a:	bf00      	nop
2ffde80c:	2ffe465b 	.word	0x2ffe465b

2ffde810 <ddr_set_sr_mode>:
2ffde810:	2802      	cmp	r0, #2
2ffde812:	b538      	push	{r3, r4, r5, lr}
2ffde814:	d064      	beq.n	2ffde8e0 <ddr_set_sr_mode+0xd0>
2ffde816:	2803      	cmp	r0, #3
2ffde818:	f000 809a 	beq.w	2ffde950 <ddr_set_sr_mode+0x140>
2ffde81c:	2801      	cmp	r0, #1
2ffde81e:	f040 80d3 	bne.w	2ffde9c8 <ddr_set_sr_mode+0x1b8>
2ffde822:	f7fc fea7 	bl	2ffdb574 <stm32mp_rcc_base>
2ffde826:	4604      	mov	r4, r0
2ffde828:	f7fc fe98 	bl	2ffdb55c <stm32mp_ddrctrl_base>
2ffde82c:	4605      	mov	r5, r0
2ffde82e:	f7ff fabd 	bl	2ffdddac <stm32mp1_clk_rcc_regs_lock>
2ffde832:	f8d4 30d8 	ldr.w	r3, [r4, #216]	; 0xd8
2ffde836:	f043 0302 	orr.w	r3, r3, #2
2ffde83a:	f8c4 30d8 	str.w	r3, [r4, #216]	; 0xd8
2ffde83e:	f8d4 30d8 	ldr.w	r3, [r4, #216]	; 0xd8
2ffde842:	f043 0308 	orr.w	r3, r3, #8
2ffde846:	f8c4 30d8 	str.w	r3, [r4, #216]	; 0xd8
2ffde84a:	f8d4 30d8 	ldr.w	r3, [r4, #216]	; 0xd8
2ffde84e:	f043 0301 	orr.w	r3, r3, #1
2ffde852:	f8c4 30d8 	str.w	r3, [r4, #216]	; 0xd8
2ffde856:	f8d4 30d8 	ldr.w	r3, [r4, #216]	; 0xd8
2ffde85a:	f043 0304 	orr.w	r3, r3, #4
2ffde85e:	f8c4 30d8 	str.w	r3, [r4, #216]	; 0xd8
2ffde862:	f8d4 30d8 	ldr.w	r3, [r4, #216]	; 0xd8
2ffde866:	f043 0380 	orr.w	r3, r3, #128	; 0x80
2ffde86a:	f8c4 30d8 	str.w	r3, [r4, #216]	; 0xd8
2ffde86e:	f8d4 30d8 	ldr.w	r3, [r4, #216]	; 0xd8
2ffde872:	f443 6380 	orr.w	r3, r3, #1024	; 0x400
2ffde876:	f8c4 30d8 	str.w	r3, [r4, #216]	; 0xd8
2ffde87a:	f8d4 30d8 	ldr.w	r3, [r4, #216]	; 0xd8
2ffde87e:	f043 0340 	orr.w	r3, r3, #64	; 0x40
2ffde882:	f8c4 30d8 	str.w	r3, [r4, #216]	; 0xd8
2ffde886:	f8d4 30d8 	ldr.w	r3, [r4, #216]	; 0xd8
2ffde88a:	f443 7300 	orr.w	r3, r3, #512	; 0x200
2ffde88e:	f8c4 30d8 	str.w	r3, [r4, #216]	; 0xd8
2ffde892:	f8d4 30d8 	ldr.w	r3, [r4, #216]	; 0xd8
2ffde896:	f043 0310 	orr.w	r3, r3, #16
2ffde89a:	f8c4 30d8 	str.w	r3, [r4, #216]	; 0xd8
2ffde89e:	f8d4 30d8 	ldr.w	r3, [r4, #216]	; 0xd8
2ffde8a2:	f423 7380 	bic.w	r3, r3, #256	; 0x100
2ffde8a6:	f8c4 30d8 	str.w	r3, [r4, #216]	; 0xd8
2ffde8aa:	f8d4 30d8 	ldr.w	r3, [r4, #216]	; 0xd8
2ffde8ae:	f423 03e0 	bic.w	r3, r3, #7340032	; 0x700000
2ffde8b2:	f8c4 30d8 	str.w	r3, [r4, #216]	; 0xd8
2ffde8b6:	f7ff fa7f 	bl	2ffdddb8 <stm32mp1_clk_rcc_regs_unlock>
2ffde8ba:	6bab      	ldr	r3, [r5, #56]	; 0x38
2ffde8bc:	f023 0301 	bic.w	r3, r3, #1
2ffde8c0:	63ab      	str	r3, [r5, #56]	; 0x38
2ffde8c2:	6b6b      	ldr	r3, [r5, #52]	; 0x34
2ffde8c4:	f423 237f 	bic.w	r3, r3, #1044480	; 0xff000
2ffde8c8:	f443 3380 	orr.w	r3, r3, #65536	; 0x10000
2ffde8cc:	636b      	str	r3, [r5, #52]	; 0x34
2ffde8ce:	6b2b      	ldr	r3, [r5, #48]	; 0x30
2ffde8d0:	f023 0308 	bic.w	r3, r3, #8
2ffde8d4:	632b      	str	r3, [r5, #48]	; 0x30
2ffde8d6:	6b2b      	ldr	r3, [r5, #48]	; 0x30
2ffde8d8:	f023 0301 	bic.w	r3, r3, #1
2ffde8dc:	632b      	str	r3, [r5, #48]	; 0x30
2ffde8de:	bd38      	pop	{r3, r4, r5, pc}
2ffde8e0:	f7fc fe48 	bl	2ffdb574 <stm32mp_rcc_base>
2ffde8e4:	4604      	mov	r4, r0
2ffde8e6:	f7fc fe39 	bl	2ffdb55c <stm32mp_ddrctrl_base>
2ffde8ea:	4605      	mov	r5, r0
2ffde8ec:	f7ff fa5e 	bl	2ffdddac <stm32mp1_clk_rcc_regs_lock>
2ffde8f0:	f8d4 30d8 	ldr.w	r3, [r4, #216]	; 0xd8
2ffde8f4:	f443 7380 	orr.w	r3, r3, #256	; 0x100
2ffde8f8:	f8c4 30d8 	str.w	r3, [r4, #216]	; 0xd8
2ffde8fc:	f8d4 30d8 	ldr.w	r3, [r4, #216]	; 0xd8
2ffde900:	f023 0302 	bic.w	r3, r3, #2
2ffde904:	f8c4 30d8 	str.w	r3, [r4, #216]	; 0xd8
2ffde908:	f8d4 30d8 	ldr.w	r3, [r4, #216]	; 0xd8
2ffde90c:	f023 0308 	bic.w	r3, r3, #8
2ffde910:	f8c4 30d8 	str.w	r3, [r4, #216]	; 0xd8
2ffde914:	f8d4 30d8 	ldr.w	r3, [r4, #216]	; 0xd8
2ffde918:	f043 0320 	orr.w	r3, r3, #32
2ffde91c:	f8c4 30d8 	str.w	r3, [r4, #216]	; 0xd8
2ffde920:	f8d4 30d8 	ldr.w	r3, [r4, #216]	; 0xd8
2ffde924:	f423 03e0 	bic.w	r3, r3, #7340032	; 0x700000
2ffde928:	f443 1300 	orr.w	r3, r3, #2097152	; 0x200000
2ffde92c:	f8c4 30d8 	str.w	r3, [r4, #216]	; 0xd8
2ffde930:	f7ff fa42 	bl	2ffdddb8 <stm32mp1_clk_rcc_regs_unlock>
2ffde934:	6bab      	ldr	r3, [r5, #56]	; 0x38
2ffde936:	f043 0301 	orr.w	r3, r3, #1
2ffde93a:	63ab      	str	r3, [r5, #56]	; 0x38
2ffde93c:	6b6b      	ldr	r3, [r5, #52]	; 0x34
2ffde93e:	f423 237f 	bic.w	r3, r3, #1044480	; 0xff000
2ffde942:	f443 3380 	orr.w	r3, r3, #65536	; 0x10000
2ffde946:	636b      	str	r3, [r5, #52]	; 0x34
2ffde948:	6b2b      	ldr	r3, [r5, #48]	; 0x30
2ffde94a:	f043 0308 	orr.w	r3, r3, #8
2ffde94e:	e7c5      	b.n	2ffde8dc <ddr_set_sr_mode+0xcc>
2ffde950:	f7fc fe10 	bl	2ffdb574 <stm32mp_rcc_base>
2ffde954:	4604      	mov	r4, r0
2ffde956:	f7fc fe01 	bl	2ffdb55c <stm32mp_ddrctrl_base>
2ffde95a:	4605      	mov	r5, r0
2ffde95c:	f7ff fa26 	bl	2ffdddac <stm32mp1_clk_rcc_regs_lock>
2ffde960:	f8d4 30d8 	ldr.w	r3, [r4, #216]	; 0xd8
2ffde964:	f443 7380 	orr.w	r3, r3, #256	; 0x100
2ffde968:	f8c4 30d8 	str.w	r3, [r4, #216]	; 0xd8
2ffde96c:	f8d4 30d8 	ldr.w	r3, [r4, #216]	; 0xd8
2ffde970:	f043 0302 	orr.w	r3, r3, #2
2ffde974:	f8c4 30d8 	str.w	r3, [r4, #216]	; 0xd8
2ffde978:	f8d4 30d8 	ldr.w	r3, [r4, #216]	; 0xd8
2ffde97c:	f043 0308 	orr.w	r3, r3, #8
2ffde980:	f8c4 30d8 	str.w	r3, [r4, #216]	; 0xd8
2ffde984:	f8d4 30d8 	ldr.w	r3, [r4, #216]	; 0xd8
2ffde988:	f043 0320 	orr.w	r3, r3, #32
2ffde98c:	f8c4 30d8 	str.w	r3, [r4, #216]	; 0xd8
2ffde990:	f8d4 30d8 	ldr.w	r3, [r4, #216]	; 0xd8
2ffde994:	f423 03e0 	bic.w	r3, r3, #7340032	; 0x700000
2ffde998:	f443 1380 	orr.w	r3, r3, #1048576	; 0x100000
2ffde99c:	f8c4 30d8 	str.w	r3, [r4, #216]	; 0xd8
2ffde9a0:	f7ff fa0a 	bl	2ffdddb8 <stm32mp1_clk_rcc_regs_unlock>
2ffde9a4:	6bab      	ldr	r3, [r5, #56]	; 0x38
2ffde9a6:	f043 0301 	orr.w	r3, r3, #1
2ffde9aa:	63ab      	str	r3, [r5, #56]	; 0x38
2ffde9ac:	6b6b      	ldr	r3, [r5, #52]	; 0x34
2ffde9ae:	f423 237f 	bic.w	r3, r3, #1044480	; 0xff000
2ffde9b2:	f443 3380 	orr.w	r3, r3, #65536	; 0x10000
2ffde9b6:	636b      	str	r3, [r5, #52]	; 0x34
2ffde9b8:	6b2b      	ldr	r3, [r5, #48]	; 0x30
2ffde9ba:	f043 0308 	orr.w	r3, r3, #8
2ffde9be:	632b      	str	r3, [r5, #48]	; 0x30
2ffde9c0:	6b2b      	ldr	r3, [r5, #48]	; 0x30
2ffde9c2:	f043 0301 	orr.w	r3, r3, #1
2ffde9c6:	e789      	b.n	2ffde8dc <ddr_set_sr_mode+0xcc>
2ffde9c8:	4803      	ldr	r0, [pc, #12]	; (2ffde9d8 <ddr_set_sr_mode+0x1c8>)
2ffde9ca:	f7fc fc03 	bl	2ffdb1d4 <tf_log>
2ffde9ce:	f7fc fc9f 	bl	2ffdb310 <console_flush>
2ffde9d2:	f7f7 ec46 	blx	2ffd6260 <do_panic>
2ffde9d6:	bf00      	nop
2ffde9d8:	2ffe463f 	.word	0x2ffe463f

2ffde9dc <fdt32_to_cpu>:
2ffde9dc:	ba00      	rev	r0, r0
2ffde9de:	4770      	bx	lr

2ffde9e0 <set_gpio>:
2ffde9e0:	e92d 47f0 	stmdb	sp!, {r4, r5, r6, r7, r8, r9, sl, lr}
2ffde9e4:	4680      	mov	r8, r0
2ffde9e6:	f8dd 9020 	ldr.w	r9, [sp, #32]
2ffde9ea:	460d      	mov	r5, r1
2ffde9ec:	9f09      	ldr	r7, [sp, #36]	; 0x24
2ffde9ee:	4692      	mov	sl, r2
2ffde9f0:	461e      	mov	r6, r3
2ffde9f2:	f7fc fdcb 	bl	2ffdb58c <stm32_get_gpio_bank_base>
2ffde9f6:	4604      	mov	r4, r0
2ffde9f8:	4640      	mov	r0, r8
2ffde9fa:	f7fc fea5 	bl	2ffdb748 <stm32_get_gpio_bank_clock>
2ffde9fe:	2d0f      	cmp	r5, #15
2ffdea00:	4680      	mov	r8, r0
2ffdea02:	d903      	bls.n	2ffdea0c <set_gpio+0x2c>
2ffdea04:	482c      	ldr	r0, [pc, #176]	; (2ffdeab8 <set_gpio+0xd8>)
2ffdea06:	21d0      	movs	r1, #208	; 0xd0
2ffdea08:	f002 fce6 	bl	2ffe13d8 <__assert>
2ffdea0c:	f7ff f9da 	bl	2ffdddc4 <stm32mp_clk_enable>
2ffdea10:	006b      	lsls	r3, r5, #1
2ffdea12:	2103      	movs	r1, #3
2ffdea14:	6820      	ldr	r0, [r4, #0]
2ffdea16:	f01a 0f10 	tst.w	sl, #16
2ffdea1a:	fa01 f103 	lsl.w	r1, r1, r3
2ffdea1e:	ea6f 0201 	mvn.w	r2, r1
2ffdea22:	ea20 0101 	bic.w	r1, r0, r1
2ffdea26:	6021      	str	r1, [r4, #0]
2ffdea28:	f02a 0110 	bic.w	r1, sl, #16
2ffdea2c:	6820      	ldr	r0, [r4, #0]
2ffdea2e:	fa01 f103 	lsl.w	r1, r1, r3
2ffdea32:	ea41 0100 	orr.w	r1, r1, r0
2ffdea36:	6021      	str	r1, [r4, #0]
2ffdea38:	f04f 0101 	mov.w	r1, #1
2ffdea3c:	6860      	ldr	r0, [r4, #4]
2ffdea3e:	fa01 f105 	lsl.w	r1, r1, r5
2ffdea42:	bf14      	ite	ne
2ffdea44:	4301      	orrne	r1, r0
2ffdea46:	ea20 0101 	biceq.w	r1, r0, r1
2ffdea4a:	2d07      	cmp	r5, #7
2ffdea4c:	6061      	str	r1, [r4, #4]
2ffdea4e:	68a1      	ldr	r1, [r4, #8]
2ffdea50:	fa06 f603 	lsl.w	r6, r6, r3
2ffdea54:	fa09 f303 	lsl.w	r3, r9, r3
2ffdea58:	ea01 0102 	and.w	r1, r1, r2
2ffdea5c:	60a1      	str	r1, [r4, #8]
2ffdea5e:	68a1      	ldr	r1, [r4, #8]
2ffdea60:	ea46 0601 	orr.w	r6, r6, r1
2ffdea64:	60a6      	str	r6, [r4, #8]
2ffdea66:	68e1      	ldr	r1, [r4, #12]
2ffdea68:	ea02 0201 	and.w	r2, r2, r1
2ffdea6c:	60e2      	str	r2, [r4, #12]
2ffdea6e:	68e2      	ldr	r2, [r4, #12]
2ffdea70:	ea43 0302 	orr.w	r3, r3, r2
2ffdea74:	60e3      	str	r3, [r4, #12]
2ffdea76:	f04f 030f 	mov.w	r3, #15
2ffdea7a:	d80f      	bhi.n	2ffdea9c <set_gpio+0xbc>
2ffdea7c:	00ad      	lsls	r5, r5, #2
2ffdea7e:	6a22      	ldr	r2, [r4, #32]
2ffdea80:	40ab      	lsls	r3, r5
2ffdea82:	ea22 0303 	bic.w	r3, r2, r3
2ffdea86:	6223      	str	r3, [r4, #32]
2ffdea88:	6a23      	ldr	r3, [r4, #32]
2ffdea8a:	fa07 f505 	lsl.w	r5, r7, r5
2ffdea8e:	431d      	orrs	r5, r3
2ffdea90:	6225      	str	r5, [r4, #32]
2ffdea92:	4640      	mov	r0, r8
2ffdea94:	e8bd 47f0 	ldmia.w	sp!, {r4, r5, r6, r7, r8, r9, sl, lr}
2ffdea98:	f7ff b997 	b.w	2ffdddca <stm32mp_clk_disable>
2ffdea9c:	6a62      	ldr	r2, [r4, #36]	; 0x24
2ffdea9e:	3d08      	subs	r5, #8
2ffdeaa0:	00ad      	lsls	r5, r5, #2
2ffdeaa2:	40ab      	lsls	r3, r5
2ffdeaa4:	ea22 0303 	bic.w	r3, r2, r3
2ffdeaa8:	6263      	str	r3, [r4, #36]	; 0x24
2ffdeaaa:	6a63      	ldr	r3, [r4, #36]	; 0x24
2ffdeaac:	fa07 f505 	lsl.w	r5, r7, r5
2ffdeab0:	431d      	orrs	r5, r3
2ffdeab2:	6265      	str	r5, [r4, #36]	; 0x24
2ffdeab4:	e7ed      	b.n	2ffdea92 <set_gpio+0xb2>
2ffdeab6:	bf00      	nop
2ffdeab8:	2ffe4665 	.word	0x2ffe4665

2ffdeabc <dt_set_pinctrl_config>:
2ffdeabc:	e92d 4ff0 	stmdb	sp!, {r4, r5, r6, r7, r8, r9, sl, fp, lr}
2ffdeac0:	b091      	sub	sp, #68	; 0x44
2ffdeac2:	2700      	movs	r7, #0
2ffdeac4:	4604      	mov	r4, r0
2ffdeac6:	970d      	str	r7, [sp, #52]	; 0x34
2ffdeac8:	f001 fce6 	bl	2ffe0498 <fdt_get_status>
2ffdeacc:	9004      	str	r0, [sp, #16]
2ffdeace:	a80e      	add	r0, sp, #56	; 0x38
2ffdead0:	f001 fcc6 	bl	2ffe0460 <fdt_get_address>
2ffdead4:	b920      	cbnz	r0, 2ffdeae0 <dt_set_pinctrl_config+0x24>
2ffdead6:	f04f 30ff 	mov.w	r0, #4294967295	; 0xffffffff
2ffdeada:	b011      	add	sp, #68	; 0x44
2ffdeadc:	e8bd 8ff0 	ldmia.w	sp!, {r4, r5, r6, r7, r8, r9, sl, fp, pc}
2ffdeae0:	9b04      	ldr	r3, [sp, #16]
2ffdeae2:	2b00      	cmp	r3, #0
2ffdeae4:	d0f7      	beq.n	2ffdead6 <dt_set_pinctrl_config+0x1a>
2ffdeae6:	4a6c      	ldr	r2, [pc, #432]	; (2ffdec98 <dt_set_pinctrl_config+0x1dc>)
2ffdeae8:	ab0d      	add	r3, sp, #52	; 0x34
2ffdeaea:	980e      	ldr	r0, [sp, #56]	; 0x38
2ffdeaec:	4621      	mov	r1, r4
2ffdeaee:	f002 fad6 	bl	2ffe109e <fdt_getprop>
2ffdeaf2:	9005      	str	r0, [sp, #20]
2ffdeaf4:	2800      	cmp	r0, #0
2ffdeaf6:	d0ee      	beq.n	2ffdead6 <dt_set_pinctrl_config+0x1a>
2ffdeaf8:	9b0d      	ldr	r3, [sp, #52]	; 0x34
2ffdeafa:	ebb7 0f93 	cmp.w	r7, r3, lsr #2
2ffdeafe:	d301      	bcc.n	2ffdeb04 <dt_set_pinctrl_config+0x48>
2ffdeb00:	2000      	movs	r0, #0
2ffdeb02:	e7ea      	b.n	2ffdeada <dt_set_pinctrl_config+0x1e>
2ffdeb04:	9b05      	ldr	r3, [sp, #20]
2ffdeb06:	f853 0027 	ldr.w	r0, [r3, r7, lsl #2]
2ffdeb0a:	f7ff ff67 	bl	2ffde9dc <fdt32_to_cpu>
2ffdeb0e:	4601      	mov	r1, r0
2ffdeb10:	980e      	ldr	r0, [sp, #56]	; 0x38
2ffdeb12:	f002 fbb6 	bl	2ffe1282 <fdt_node_offset_by_phandle>
2ffdeb16:	1e01      	subs	r1, r0, #0
2ffdeb18:	dbdd      	blt.n	2ffdead6 <dt_set_pinctrl_config+0x1a>
2ffdeb1a:	980e      	ldr	r0, [sp, #56]	; 0x38
2ffdeb1c:	f002 f943 	bl	2ffe0da6 <fdt_first_subnode>
2ffdeb20:	4605      	mov	r5, r0
2ffdeb22:	2d00      	cmp	r5, #0
2ffdeb24:	da01      	bge.n	2ffdeb2a <dt_set_pinctrl_config+0x6e>
2ffdeb26:	3701      	adds	r7, #1
2ffdeb28:	e7e6      	b.n	2ffdeaf8 <dt_set_pinctrl_config+0x3c>
2ffdeb2a:	9e0e      	ldr	r6, [sp, #56]	; 0x38
2ffdeb2c:	ab0f      	add	r3, sp, #60	; 0x3c
2ffdeb2e:	4a5b      	ldr	r2, [pc, #364]	; (2ffdec9c <dt_set_pinctrl_config+0x1e0>)
2ffdeb30:	4629      	mov	r1, r5
2ffdeb32:	4630      	mov	r0, r6
2ffdeb34:	f002 fab3 	bl	2ffe109e <fdt_getprop>
2ffdeb38:	9006      	str	r0, [sp, #24]
2ffdeb3a:	2800      	cmp	r0, #0
2ffdeb3c:	d0cb      	beq.n	2ffdead6 <dt_set_pinctrl_config+0x1a>
2ffdeb3e:	4629      	mov	r1, r5
2ffdeb40:	4630      	mov	r0, r6
2ffdeb42:	f002 fb8e 	bl	2ffe1262 <fdt_parent_offset>
2ffdeb46:	4601      	mov	r1, r0
2ffdeb48:	4630      	mov	r0, r6
2ffdeb4a:	f002 fb8a 	bl	2ffe1262 <fdt_parent_offset>
2ffdeb4e:	1e03      	subs	r3, r0, #0
2ffdeb50:	9309      	str	r3, [sp, #36]	; 0x24
2ffdeb52:	dbc0      	blt.n	2ffdead6 <dt_set_pinctrl_config+0x1a>
2ffdeb54:	4a52      	ldr	r2, [pc, #328]	; (2ffdeca0 <dt_set_pinctrl_config+0x1e4>)
2ffdeb56:	2300      	movs	r3, #0
2ffdeb58:	4629      	mov	r1, r5
2ffdeb5a:	4630      	mov	r0, r6
2ffdeb5c:	f002 fa9f 	bl	2ffe109e <fdt_getprop>
2ffdeb60:	b110      	cbz	r0, 2ffdeb68 <dt_set_pinctrl_config+0xac>
2ffdeb62:	6800      	ldr	r0, [r0, #0]
2ffdeb64:	f7ff ff3a 	bl	2ffde9dc <fdt32_to_cpu>
2ffdeb68:	9007      	str	r0, [sp, #28]
2ffdeb6a:	2300      	movs	r3, #0
2ffdeb6c:	4a4d      	ldr	r2, [pc, #308]	; (2ffdeca4 <dt_set_pinctrl_config+0x1e8>)
2ffdeb6e:	4629      	mov	r1, r5
2ffdeb70:	4630      	mov	r0, r6
2ffdeb72:	f002 fa94 	bl	2ffe109e <fdt_getprop>
2ffdeb76:	4603      	mov	r3, r0
2ffdeb78:	b9a0      	cbnz	r0, 2ffdeba4 <dt_set_pinctrl_config+0xe8>
2ffdeb7a:	4a4b      	ldr	r2, [pc, #300]	; (2ffdeca8 <dt_set_pinctrl_config+0x1ec>)
2ffdeb7c:	4629      	mov	r1, r5
2ffdeb7e:	4630      	mov	r0, r6
2ffdeb80:	f002 fa8d 	bl	2ffe109e <fdt_getprop>
2ffdeb84:	2800      	cmp	r0, #0
2ffdeb86:	bf0c      	ite	eq
2ffdeb88:	2300      	moveq	r3, #0
2ffdeb8a:	2302      	movne	r3, #2
2ffdeb8c:	9308      	str	r3, [sp, #32]
2ffdeb8e:	f04f 0800 	mov.w	r8, #0
2ffdeb92:	9b0f      	ldr	r3, [sp, #60]	; 0x3c
2ffdeb94:	ebb8 0f93 	cmp.w	r8, r3, lsr #2
2ffdeb98:	d306      	bcc.n	2ffdeba8 <dt_set_pinctrl_config+0xec>
2ffdeb9a:	980e      	ldr	r0, [sp, #56]	; 0x38
2ffdeb9c:	4629      	mov	r1, r5
2ffdeb9e:	f002 f915 	bl	2ffe0dcc <fdt_next_subnode>
2ffdeba2:	e7bd      	b.n	2ffdeb20 <dt_set_pinctrl_config+0x64>
2ffdeba4:	2301      	movs	r3, #1
2ffdeba6:	e7f1      	b.n	2ffdeb8c <dt_set_pinctrl_config+0xd0>
2ffdeba8:	9b06      	ldr	r3, [sp, #24]
2ffdebaa:	f853 0028 	ldr.w	r0, [r3, r8, lsl #2]
2ffdebae:	f7ff ff15 	bl	2ffde9dc <fdt32_to_cpu>
2ffdebb2:	f3c0 2303 	ubfx	r3, r0, #8, #4
2ffdebb6:	b2c4      	uxtb	r4, r0
2ffdebb8:	f3c0 3a04 	ubfx	sl, r0, #12, #5
2ffdebbc:	2c10      	cmp	r4, #16
2ffdebbe:	930a      	str	r3, [sp, #40]	; 0x28
2ffdebc0:	d81c      	bhi.n	2ffdebfc <dt_set_pinctrl_config+0x140>
2ffdebc2:	bb0c      	cbnz	r4, 2ffdec08 <dt_set_pinctrl_config+0x14c>
2ffdebc4:	46a1      	mov	r9, r4
2ffdebc6:	4a39      	ldr	r2, [pc, #228]	; (2ffdecac <dt_set_pinctrl_config+0x1f0>)
2ffdebc8:	2300      	movs	r3, #0
2ffdebca:	4629      	mov	r1, r5
2ffdebcc:	4630      	mov	r0, r6
2ffdebce:	f002 fa66 	bl	2ffe109e <fdt_getprop>
2ffdebd2:	b108      	cbz	r0, 2ffdebd8 <dt_set_pinctrl_config+0x11c>
2ffdebd4:	f044 0410 	orr.w	r4, r4, #16
2ffdebd8:	4650      	mov	r0, sl
2ffdebda:	f7fc fceb 	bl	2ffdb5b4 <stm32_get_gpio_bank_offset>
2ffdebde:	900b      	str	r0, [sp, #44]	; 0x2c
2ffdebe0:	4630      	mov	r0, r6
2ffdebe2:	9909      	ldr	r1, [sp, #36]	; 0x24
2ffdebe4:	f002 f8df 	bl	2ffe0da6 <fdt_first_subnode>
2ffdebe8:	2800      	cmp	r0, #0
2ffdebea:	4683      	mov	fp, r0
2ffdebec:	da12      	bge.n	2ffdec14 <dt_set_pinctrl_config+0x158>
2ffdebee:	4830      	ldr	r0, [pc, #192]	; (2ffdecb0 <dt_set_pinctrl_config+0x1f4>)
2ffdebf0:	f7fc faf0 	bl	2ffdb1d4 <tf_log>
2ffdebf4:	f7fc fb8c 	bl	2ffdb310 <console_flush>
2ffdebf8:	f7f7 eb32 	blx	2ffd6260 <do_panic>
2ffdebfc:	2c11      	cmp	r4, #17
2ffdebfe:	f04f 0900 	mov.w	r9, #0
2ffdec02:	d105      	bne.n	2ffdec10 <dt_set_pinctrl_config+0x154>
2ffdec04:	2403      	movs	r4, #3
2ffdec06:	e7de      	b.n	2ffdebc6 <dt_set_pinctrl_config+0x10a>
2ffdec08:	f104 39ff 	add.w	r9, r4, #4294967295	; 0xffffffff
2ffdec0c:	2402      	movs	r4, #2
2ffdec0e:	e7da      	b.n	2ffdebc6 <dt_set_pinctrl_config+0x10a>
2ffdec10:	2401      	movs	r4, #1
2ffdec12:	e7d8      	b.n	2ffdebc6 <dt_set_pinctrl_config+0x10a>
2ffdec14:	4a27      	ldr	r2, [pc, #156]	; (2ffdecb4 <dt_set_pinctrl_config+0x1f8>)
2ffdec16:	2300      	movs	r3, #0
2ffdec18:	4659      	mov	r1, fp
2ffdec1a:	4630      	mov	r0, r6
2ffdec1c:	f002 fa3f 	bl	2ffe109e <fdt_getprop>
2ffdec20:	b920      	cbnz	r0, 2ffdec2c <dt_set_pinctrl_config+0x170>
2ffdec22:	4659      	mov	r1, fp
2ffdec24:	4630      	mov	r0, r6
2ffdec26:	f002 f8d1 	bl	2ffe0dcc <fdt_next_subnode>
2ffdec2a:	e7dd      	b.n	2ffdebe8 <dt_set_pinctrl_config+0x12c>
2ffdec2c:	4a22      	ldr	r2, [pc, #136]	; (2ffdecb8 <dt_set_pinctrl_config+0x1fc>)
2ffdec2e:	2300      	movs	r3, #0
2ffdec30:	4659      	mov	r1, fp
2ffdec32:	4630      	mov	r0, r6
2ffdec34:	f002 fa33 	bl	2ffe109e <fdt_getprop>
2ffdec38:	2800      	cmp	r0, #0
2ffdec3a:	d0f2      	beq.n	2ffdec22 <dt_set_pinctrl_config+0x166>
2ffdec3c:	6800      	ldr	r0, [r0, #0]
2ffdec3e:	f7ff fecd 	bl	2ffde9dc <fdt32_to_cpu>
2ffdec42:	9b0b      	ldr	r3, [sp, #44]	; 0x2c
2ffdec44:	4283      	cmp	r3, r0
2ffdec46:	d1ec      	bne.n	2ffdec22 <dt_set_pinctrl_config+0x166>
2ffdec48:	4658      	mov	r0, fp
2ffdec4a:	f001 fc25 	bl	2ffe0498 <fdt_get_status>
2ffdec4e:	2800      	cmp	r0, #0
2ffdec50:	d0e7      	beq.n	2ffdec22 <dt_set_pinctrl_config+0x166>
2ffdec52:	f1bb 0f00 	cmp.w	fp, #0
2ffdec56:	d0ca      	beq.n	2ffdebee <dt_set_pinctrl_config+0x132>
2ffdec58:	4658      	mov	r0, fp
2ffdec5a:	f7fe fb61 	bl	2ffdd320 <fdt_get_clock_id>
2ffdec5e:	f1b0 0b00 	subs.w	fp, r0, #0
2ffdec62:	f6ff af38 	blt.w	2ffdead6 <dt_set_pinctrl_config+0x1a>
2ffdec66:	4650      	mov	r0, sl
2ffdec68:	f7fc fd6e 	bl	2ffdb748 <stm32_get_gpio_bank_clock>
2ffdec6c:	4558      	cmp	r0, fp
2ffdec6e:	d003      	beq.n	2ffdec78 <dt_set_pinctrl_config+0x1bc>
2ffdec70:	4812      	ldr	r0, [pc, #72]	; (2ffdecbc <dt_set_pinctrl_config+0x200>)
2ffdec72:	2192      	movs	r1, #146	; 0x92
2ffdec74:	f002 fbb0 	bl	2ffe13d8 <__assert>
2ffdec78:	9b04      	ldr	r3, [sp, #16]
2ffdec7a:	4622      	mov	r2, r4
2ffdec7c:	990a      	ldr	r1, [sp, #40]	; 0x28
2ffdec7e:	4650      	mov	r0, sl
2ffdec80:	9302      	str	r3, [sp, #8]
2ffdec82:	f108 0801 	add.w	r8, r8, #1
2ffdec86:	9b08      	ldr	r3, [sp, #32]
2ffdec88:	f8cd 9004 	str.w	r9, [sp, #4]
2ffdec8c:	9300      	str	r3, [sp, #0]
2ffdec8e:	9b07      	ldr	r3, [sp, #28]
2ffdec90:	f7ff fea6 	bl	2ffde9e0 <set_gpio>
2ffdec94:	e77d      	b.n	2ffdeb92 <dt_set_pinctrl_config+0xd6>
2ffdec96:	bf00      	nop
2ffdec98:	2ffe4682 	.word	0x2ffe4682
2ffdec9c:	2ffe468c 	.word	0x2ffe468c
2ffdeca0:	2ffe4693 	.word	0x2ffe4693
2ffdeca4:	2ffe469d 	.word	0x2ffe469d
2ffdeca8:	2ffe46aa 	.word	0x2ffe46aa
2ffdecac:	2ffe46b9 	.word	0x2ffe46b9
2ffdecb0:	2ffe46da 	.word	0x2ffe46da
2ffdecb4:	2ffe46ca 	.word	0x2ffe46ca
2ffdecb8:	2ffe2e1b 	.word	0x2ffe2e1b
2ffdecbc:	2ffe4665 	.word	0x2ffe4665

2ffdecc0 <i2c_transfer_config.isra.0>:
2ffdecc0:	b530      	push	{r4, r5, lr}
2ffdecc2:	9d03      	ldr	r5, [sp, #12]
2ffdecc4:	f3c1 0109 	ubfx	r1, r1, #0, #10
2ffdecc8:	432b      	orrs	r3, r5
2ffdecca:	0412      	lsls	r2, r2, #16
2ffdeccc:	430b      	orrs	r3, r1
2ffdecce:	f402 027f 	and.w	r2, r2, #16711680	; 0xff0000
2ffdecd2:	4313      	orrs	r3, r2
2ffdecd4:	4a04      	ldr	r2, [pc, #16]	; (2ffdece8 <i2c_transfer_config.isra.0+0x28>)
2ffdecd6:	6844      	ldr	r4, [r0, #4]
2ffdecd8:	ea42 5255 	orr.w	r2, r2, r5, lsr #21
2ffdecdc:	ea24 0402 	bic.w	r4, r4, r2
2ffdece0:	4323      	orrs	r3, r4
2ffdece2:	6043      	str	r3, [r0, #4]
2ffdece4:	bd30      	pop	{r4, r5, pc}
2ffdece6:	bf00      	nop
2ffdece8:	03ff63ff 	.word	0x03ff63ff

2ffdecec <i2c_wait_flag>:
2ffdecec:	6803      	ldr	r3, [r0, #0]
2ffdecee:	f002 0201 	and.w	r2, r2, #1
2ffdecf2:	b5f0      	push	{r4, r5, r6, r7, lr}
2ffdecf4:	3318      	adds	r3, #24
2ffdecf6:	e9dd 4505 	ldrd	r4, r5, [sp, #20]
2ffdecfa:	681e      	ldr	r6, [r3, #0]
2ffdecfc:	4231      	tst	r1, r6
2ffdecfe:	bf14      	ite	ne
2ffded00:	2601      	movne	r6, #1
2ffded02:	2600      	moveq	r6, #0
2ffded04:	4296      	cmp	r6, r2
2ffded06:	d111      	bne.n	2ffded2c <i2c_wait_flag+0x40>
2ffded08:	ec57 6f0e 	mrrc	15, 0, r6, r7, cr14
2ffded0c:	42bd      	cmp	r5, r7
2ffded0e:	bf08      	it	eq
2ffded10:	42b4      	cmpeq	r4, r6
2ffded12:	d2f2      	bcs.n	2ffdecfa <i2c_wait_flag+0xe>
2ffded14:	6983      	ldr	r3, [r0, #24]
2ffded16:	2220      	movs	r2, #32
2ffded18:	6102      	str	r2, [r0, #16]
2ffded1a:	f043 0320 	orr.w	r3, r3, #32
2ffded1e:	6183      	str	r3, [r0, #24]
2ffded20:	2300      	movs	r3, #0
2ffded22:	6143      	str	r3, [r0, #20]
2ffded24:	7303      	strb	r3, [r0, #12]
2ffded26:	f06f 0004 	mvn.w	r0, #4
2ffded2a:	bdf0      	pop	{r4, r5, r6, r7, pc}
2ffded2c:	2000      	movs	r0, #0
2ffded2e:	e7fc      	b.n	2ffded2a <i2c_wait_flag+0x3e>

2ffded30 <i2c_ack_failed>:
2ffded30:	b5f0      	push	{r4, r5, r6, r7, lr}
2ffded32:	4614      	mov	r4, r2
2ffded34:	6802      	ldr	r2, [r0, #0]
2ffded36:	461d      	mov	r5, r3
2ffded38:	6993      	ldr	r3, [r2, #24]
2ffded3a:	f102 0118 	add.w	r1, r2, #24
2ffded3e:	f013 0310 	ands.w	r3, r3, #16
2ffded42:	d112      	bne.n	2ffded6a <i2c_ack_failed+0x3a>
2ffded44:	4618      	mov	r0, r3
2ffded46:	e00f      	b.n	2ffded68 <i2c_ack_failed+0x38>
2ffded48:	ec57 6f0e 	mrrc	15, 0, r6, r7, cr14
2ffded4c:	42bd      	cmp	r5, r7
2ffded4e:	bf08      	it	eq
2ffded50:	42b4      	cmpeq	r4, r6
2ffded52:	d20a      	bcs.n	2ffded6a <i2c_ack_failed+0x3a>
2ffded54:	6982      	ldr	r2, [r0, #24]
2ffded56:	6143      	str	r3, [r0, #20]
2ffded58:	f042 0220 	orr.w	r2, r2, #32
2ffded5c:	6182      	str	r2, [r0, #24]
2ffded5e:	2220      	movs	r2, #32
2ffded60:	6102      	str	r2, [r0, #16]
2ffded62:	7303      	strb	r3, [r0, #12]
2ffded64:	f06f 0004 	mvn.w	r0, #4
2ffded68:	bdf0      	pop	{r4, r5, r6, r7, pc}
2ffded6a:	680b      	ldr	r3, [r1, #0]
2ffded6c:	f013 0320 	ands.w	r3, r3, #32
2ffded70:	d0ea      	beq.n	2ffded48 <i2c_ack_failed+0x18>
2ffded72:	2310      	movs	r3, #16
2ffded74:	61d3      	str	r3, [r2, #28]
2ffded76:	2220      	movs	r2, #32
2ffded78:	6803      	ldr	r3, [r0, #0]
2ffded7a:	61da      	str	r2, [r3, #28]
2ffded7c:	6803      	ldr	r3, [r0, #0]
2ffded7e:	699a      	ldr	r2, [r3, #24]
2ffded80:	0794      	lsls	r4, r2, #30
2ffded82:	bf44      	itt	mi
2ffded84:	2200      	movmi	r2, #0
2ffded86:	629a      	strmi	r2, [r3, #40]	; 0x28
2ffded88:	6803      	ldr	r3, [r0, #0]
2ffded8a:	699a      	ldr	r2, [r3, #24]
2ffded8c:	07d1      	lsls	r1, r2, #31
2ffded8e:	bf5e      	ittt	pl
2ffded90:	699a      	ldrpl	r2, [r3, #24]
2ffded92:	f042 0201 	orrpl.w	r2, r2, #1
2ffded96:	619a      	strpl	r2, [r3, #24]
2ffded98:	6802      	ldr	r2, [r0, #0]
2ffded9a:	6853      	ldr	r3, [r2, #4]
2ffded9c:	f023 73ff 	bic.w	r3, r3, #33423360	; 0x1fe0000
2ffdeda0:	f423 338b 	bic.w	r3, r3, #71168	; 0x11600
2ffdeda4:	f423 73ff 	bic.w	r3, r3, #510	; 0x1fe
2ffdeda8:	f023 0301 	bic.w	r3, r3, #1
2ffdedac:	6053      	str	r3, [r2, #4]
2ffdedae:	6983      	ldr	r3, [r0, #24]
2ffdedb0:	f043 0304 	orr.w	r3, r3, #4
2ffdedb4:	6183      	str	r3, [r0, #24]
2ffdedb6:	2320      	movs	r3, #32
2ffdedb8:	6103      	str	r3, [r0, #16]
2ffdedba:	2300      	movs	r3, #0
2ffdedbc:	6143      	str	r3, [r0, #20]
2ffdedbe:	e7d0      	b.n	2ffded62 <i2c_ack_failed+0x32>

2ffdedc0 <i2c_wait_txis>:
2ffdedc0:	b5d0      	push	{r4, r6, r7, lr}
2ffdedc2:	4604      	mov	r4, r0
2ffdedc4:	4616      	mov	r6, r2
2ffdedc6:	461f      	mov	r7, r3
2ffdedc8:	6823      	ldr	r3, [r4, #0]
2ffdedca:	699b      	ldr	r3, [r3, #24]
2ffdedcc:	079b      	lsls	r3, r3, #30
2ffdedce:	d501      	bpl.n	2ffdedd4 <i2c_wait_txis+0x14>
2ffdedd0:	2000      	movs	r0, #0
2ffdedd2:	bdd0      	pop	{r4, r6, r7, pc}
2ffdedd4:	4632      	mov	r2, r6
2ffdedd6:	463b      	mov	r3, r7
2ffdedd8:	4620      	mov	r0, r4
2ffdedda:	f7ff ffa9 	bl	2ffded30 <i2c_ack_failed>
2ffdedde:	b968      	cbnz	r0, 2ffdedfc <i2c_wait_txis+0x3c>
2ffdede0:	ec53 2f0e 	mrrc	15, 0, r2, r3, cr14
2ffdede4:	429f      	cmp	r7, r3
2ffdede6:	bf08      	it	eq
2ffdede8:	4296      	cmpeq	r6, r2
2ffdedea:	d2ed      	bcs.n	2ffdedc8 <i2c_wait_txis+0x8>
2ffdedec:	69a3      	ldr	r3, [r4, #24]
2ffdedee:	6160      	str	r0, [r4, #20]
2ffdedf0:	7320      	strb	r0, [r4, #12]
2ffdedf2:	f043 0320 	orr.w	r3, r3, #32
2ffdedf6:	61a3      	str	r3, [r4, #24]
2ffdedf8:	2320      	movs	r3, #32
2ffdedfa:	6123      	str	r3, [r4, #16]
2ffdedfc:	f06f 0004 	mvn.w	r0, #4
2ffdee00:	e7e7      	b.n	2ffdedd2 <i2c_wait_txis+0x12>

2ffdee02 <i2c_wait_stop>:
2ffdee02:	b5d0      	push	{r4, r6, r7, lr}
2ffdee04:	4604      	mov	r4, r0
2ffdee06:	4616      	mov	r6, r2
2ffdee08:	461f      	mov	r7, r3
2ffdee0a:	6823      	ldr	r3, [r4, #0]
2ffdee0c:	699b      	ldr	r3, [r3, #24]
2ffdee0e:	069b      	lsls	r3, r3, #26
2ffdee10:	d501      	bpl.n	2ffdee16 <i2c_wait_stop+0x14>
2ffdee12:	2000      	movs	r0, #0
2ffdee14:	bdd0      	pop	{r4, r6, r7, pc}
2ffdee16:	4632      	mov	r2, r6
2ffdee18:	463b      	mov	r3, r7
2ffdee1a:	4620      	mov	r0, r4
2ffdee1c:	f7ff ff88 	bl	2ffded30 <i2c_ack_failed>
2ffdee20:	b968      	cbnz	r0, 2ffdee3e <i2c_wait_stop+0x3c>
2ffdee22:	ec53 2f0e 	mrrc	15, 0, r2, r3, cr14
2ffdee26:	429f      	cmp	r7, r3
2ffdee28:	bf08      	it	eq
2ffdee2a:	4296      	cmpeq	r6, r2
2ffdee2c:	d2ed      	bcs.n	2ffdee0a <i2c_wait_stop+0x8>
2ffdee2e:	69a3      	ldr	r3, [r4, #24]
2ffdee30:	6160      	str	r0, [r4, #20]
2ffdee32:	7320      	strb	r0, [r4, #12]
2ffdee34:	f043 0320 	orr.w	r3, r3, #32
2ffdee38:	61a3      	str	r3, [r4, #24]
2ffdee3a:	2320      	movs	r3, #32
2ffdee3c:	6123      	str	r3, [r4, #16]
2ffdee3e:	f06f 0004 	mvn.w	r0, #4
2ffdee42:	e7e7      	b.n	2ffdee14 <i2c_wait_stop+0x12>

2ffdee44 <i2c_write>:
2ffdee44:	e92d 4ff0 	stmdb	sp!, {r4, r5, r6, r7, r8, r9, sl, fp, lr}
2ffdee48:	b085      	sub	sp, #20
2ffdee4a:	469b      	mov	fp, r3
2ffdee4c:	4604      	mov	r4, r0
2ffdee4e:	9b11      	ldr	r3, [sp, #68]	; 0x44
2ffdee50:	4688      	mov	r8, r1
2ffdee52:	f8bd 503c 	ldrh.w	r5, [sp, #60]	; 0x3c
2ffdee56:	4691      	mov	r9, r2
2ffdee58:	2b10      	cmp	r3, #16
2ffdee5a:	d002      	beq.n	2ffdee62 <i2c_write+0x1e>
2ffdee5c:	2b40      	cmp	r3, #64	; 0x40
2ffdee5e:	f040 80d6 	bne.w	2ffdf00e <i2c_write+0x1ca>
2ffdee62:	6923      	ldr	r3, [r4, #16]
2ffdee64:	2b20      	cmp	r3, #32
2ffdee66:	f040 80d5 	bne.w	2ffdf014 <i2c_write+0x1d0>
2ffdee6a:	7b23      	ldrb	r3, [r4, #12]
2ffdee6c:	2b00      	cmp	r3, #0
2ffdee6e:	f040 80d1 	bne.w	2ffdf014 <i2c_write+0x1d0>
2ffdee72:	9b0e      	ldr	r3, [sp, #56]	; 0x38
2ffdee74:	2b00      	cmp	r3, #0
2ffdee76:	f000 80d0 	beq.w	2ffdf01a <i2c_write+0x1d6>
2ffdee7a:	2d00      	cmp	r5, #0
2ffdee7c:	f000 80cd 	beq.w	2ffdf01a <i2c_write+0x1d6>
2ffdee80:	68a0      	ldr	r0, [r4, #8]
2ffdee82:	2601      	movs	r6, #1
2ffdee84:	f7fe ff9e 	bl	2ffdddc4 <stm32mp_clk_enable>
2ffdee88:	7326      	strb	r6, [r4, #12]
2ffdee8a:	ee1e 0f10 	mrc	15, 0, r0, cr14, cr0, {0}
2ffdee8e:	ec53 2f0e 	mrrc	15, 0, r2, r3, cr14
2ffdee92:	f246 11a8 	movw	r1, #25000	; 0x61a8
2ffdee96:	e9cd 2302 	strd	r2, r3, [sp, #8]
2ffdee9a:	fba0 0101 	umull	r0, r1, r0, r1
2ffdee9e:	4a6d      	ldr	r2, [pc, #436]	; (2ffdf054 <i2c_write+0x210>)
2ffdeea0:	2300      	movs	r3, #0
2ffdeea2:	f001 ee64 	blx	2ffe0b6c <__aeabi_uldivmod>
2ffdeea6:	9b02      	ldr	r3, [sp, #8]
2ffdeea8:	4632      	mov	r2, r6
2ffdeeaa:	18c0      	adds	r0, r0, r3
2ffdeeac:	9b03      	ldr	r3, [sp, #12]
2ffdeeae:	eb43 0101 	adc.w	r1, r3, r1
2ffdeeb2:	e9cd 0100 	strd	r0, r1, [sp]
2ffdeeb6:	f44f 4100 	mov.w	r1, #32768	; 0x8000
2ffdeeba:	4620      	mov	r0, r4
2ffdeebc:	f7ff ff16 	bl	2ffdecec <i2c_wait_flag>
2ffdeec0:	b150      	cbz	r0, 2ffdeed8 <i2c_write+0x94>
2ffdeec2:	f06f 0504 	mvn.w	r5, #4
2ffdeec6:	68a0      	ldr	r0, [r4, #8]
2ffdeec8:	2300      	movs	r3, #0
2ffdeeca:	7323      	strb	r3, [r4, #12]
2ffdeecc:	f7fe ff7d 	bl	2ffdddca <stm32mp_clk_disable>
2ffdeed0:	4628      	mov	r0, r5
2ffdeed2:	b005      	add	sp, #20
2ffdeed4:	e8bd 8ff0 	ldmia.w	sp!, {r4, r5, r6, r7, r8, r9, sl, fp, pc}
2ffdeed8:	61a0      	str	r0, [r4, #24]
2ffdeeda:	2321      	movs	r3, #33	; 0x21
2ffdeedc:	6123      	str	r3, [r4, #16]
2ffdeede:	462f      	mov	r7, r5
2ffdeee0:	9b11      	ldr	r3, [sp, #68]	; 0x44
2ffdeee2:	6163      	str	r3, [r4, #20]
2ffdeee4:	ee1e 0f10 	mrc	15, 0, r0, cr14, cr0, {0}
2ffdeee8:	ec53 2f0e 	mrrc	15, 0, r2, r3, cr14
2ffdeeec:	e9cd 2302 	strd	r2, r3, [sp, #8]
2ffdeef0:	9b10      	ldr	r3, [sp, #64]	; 0x40
2ffdeef2:	f44f 717a 	mov.w	r1, #1000	; 0x3e8
2ffdeef6:	4a57      	ldr	r2, [pc, #348]	; (2ffdf054 <i2c_write+0x210>)
2ffdeef8:	4359      	muls	r1, r3
2ffdeefa:	2300      	movs	r3, #0
2ffdeefc:	fba1 0100 	umull	r0, r1, r1, r0
2ffdef00:	f001 ee34 	blx	2ffe0b6c <__aeabi_uldivmod>
2ffdef04:	9b02      	ldr	r3, [sp, #8]
2ffdef06:	18c6      	adds	r6, r0, r3
2ffdef08:	9b03      	ldr	r3, [sp, #12]
2ffdef0a:	6820      	ldr	r0, [r4, #0]
2ffdef0c:	eb41 0a03 	adc.w	sl, r1, r3
2ffdef10:	9b11      	ldr	r3, [sp, #68]	; 0x44
2ffdef12:	2b40      	cmp	r3, #64	; 0x40
2ffdef14:	4b50      	ldr	r3, [pc, #320]	; (2ffdf058 <i2c_write+0x214>)
2ffdef16:	9300      	str	r3, [sp, #0]
2ffdef18:	d168      	bne.n	2ffdefec <i2c_write+0x1a8>
2ffdef1a:	f04f 7380 	mov.w	r3, #16777216	; 0x1000000
2ffdef1e:	465a      	mov	r2, fp
2ffdef20:	4641      	mov	r1, r8
2ffdef22:	f7ff fecd 	bl	2ffdecc0 <i2c_transfer_config.isra.0>
2ffdef26:	4632      	mov	r2, r6
2ffdef28:	4653      	mov	r3, sl
2ffdef2a:	4620      	mov	r0, r4
2ffdef2c:	f7ff ff48 	bl	2ffdedc0 <i2c_wait_txis>
2ffdef30:	2800      	cmp	r0, #0
2ffdef32:	d1c6      	bne.n	2ffdeec2 <i2c_write+0x7e>
2ffdef34:	6823      	ldr	r3, [r4, #0]
2ffdef36:	f1bb 0f01 	cmp.w	fp, #1
2ffdef3a:	d119      	bne.n	2ffdef70 <i2c_write+0x12c>
2ffdef3c:	fa5f f989 	uxtb.w	r9, r9
2ffdef40:	f883 9028 	strb.w	r9, [r3, #40]	; 0x28
2ffdef44:	2200      	movs	r2, #0
2ffdef46:	2180      	movs	r1, #128	; 0x80
2ffdef48:	4620      	mov	r0, r4
2ffdef4a:	e9cd 6a00 	strd	r6, sl, [sp]
2ffdef4e:	f7ff fecd 	bl	2ffdecec <i2c_wait_flag>
2ffdef52:	4603      	mov	r3, r0
2ffdef54:	2800      	cmp	r0, #0
2ffdef56:	d1b4      	bne.n	2ffdeec2 <i2c_write+0x7e>
2ffdef58:	6820      	ldr	r0, [r4, #0]
2ffdef5a:	2dff      	cmp	r5, #255	; 0xff
2ffdef5c:	9300      	str	r3, [sp, #0]
2ffdef5e:	d916      	bls.n	2ffdef8e <i2c_write+0x14a>
2ffdef60:	f04f 7380 	mov.w	r3, #16777216	; 0x1000000
2ffdef64:	22ff      	movs	r2, #255	; 0xff
2ffdef66:	4641      	mov	r1, r8
2ffdef68:	25ff      	movs	r5, #255	; 0xff
2ffdef6a:	f7ff fea9 	bl	2ffdecc0 <i2c_transfer_config.isra.0>
2ffdef6e:	e014      	b.n	2ffdef9a <i2c_write+0x156>
2ffdef70:	ea4f 2219 	mov.w	r2, r9, lsr #8
2ffdef74:	4620      	mov	r0, r4
2ffdef76:	f883 2028 	strb.w	r2, [r3, #40]	; 0x28
2ffdef7a:	4632      	mov	r2, r6
2ffdef7c:	4653      	mov	r3, sl
2ffdef7e:	f7ff ff1f 	bl	2ffdedc0 <i2c_wait_txis>
2ffdef82:	2800      	cmp	r0, #0
2ffdef84:	d19d      	bne.n	2ffdeec2 <i2c_write+0x7e>
2ffdef86:	6823      	ldr	r3, [r4, #0]
2ffdef88:	fa5f f989 	uxtb.w	r9, r9
2ffdef8c:	e7d8      	b.n	2ffdef40 <i2c_write+0xfc>
2ffdef8e:	f04f 7300 	mov.w	r3, #33554432	; 0x2000000
2ffdef92:	462a      	mov	r2, r5
2ffdef94:	4641      	mov	r1, r8
2ffdef96:	f7ff fe93 	bl	2ffdecc0 <i2c_transfer_config.isra.0>
2ffdef9a:	9b0e      	ldr	r3, [sp, #56]	; 0x38
2ffdef9c:	f103 39ff 	add.w	r9, r3, #4294967295	; 0xffffffff
2ffdefa0:	4632      	mov	r2, r6
2ffdefa2:	4653      	mov	r3, sl
2ffdefa4:	4620      	mov	r0, r4
2ffdefa6:	f7ff ff0b 	bl	2ffdedc0 <i2c_wait_txis>
2ffdefaa:	2800      	cmp	r0, #0
2ffdefac:	d189      	bne.n	2ffdeec2 <i2c_write+0x7e>
2ffdefae:	f819 2f01 	ldrb.w	r2, [r9, #1]!
2ffdefb2:	3f01      	subs	r7, #1
2ffdefb4:	6823      	ldr	r3, [r4, #0]
2ffdefb6:	f883 2028 	strb.w	r2, [r3, #40]	; 0x28
2ffdefba:	d031      	beq.n	2ffdf020 <i2c_write+0x1dc>
2ffdefbc:	3d01      	subs	r5, #1
2ffdefbe:	d1ef      	bne.n	2ffdefa0 <i2c_write+0x15c>
2ffdefc0:	462a      	mov	r2, r5
2ffdefc2:	2180      	movs	r1, #128	; 0x80
2ffdefc4:	4620      	mov	r0, r4
2ffdefc6:	e9cd 6a00 	strd	r6, sl, [sp]
2ffdefca:	f7ff fe8f 	bl	2ffdecec <i2c_wait_flag>
2ffdefce:	2800      	cmp	r0, #0
2ffdefd0:	f47f af77 	bne.w	2ffdeec2 <i2c_write+0x7e>
2ffdefd4:	6820      	ldr	r0, [r4, #0]
2ffdefd6:	2fff      	cmp	r7, #255	; 0xff
2ffdefd8:	9500      	str	r5, [sp, #0]
2ffdefda:	d910      	bls.n	2ffdeffe <i2c_write+0x1ba>
2ffdefdc:	f04f 7380 	mov.w	r3, #16777216	; 0x1000000
2ffdefe0:	22ff      	movs	r2, #255	; 0xff
2ffdefe2:	4641      	mov	r1, r8
2ffdefe4:	25ff      	movs	r5, #255	; 0xff
2ffdefe6:	f7ff fe6b 	bl	2ffdecc0 <i2c_transfer_config.isra.0>
2ffdefea:	e7d9      	b.n	2ffdefa0 <i2c_write+0x15c>
2ffdefec:	2dff      	cmp	r5, #255	; 0xff
2ffdefee:	d8b7      	bhi.n	2ffdef60 <i2c_write+0x11c>
2ffdeff0:	f04f 7300 	mov.w	r3, #33554432	; 0x2000000
2ffdeff4:	462a      	mov	r2, r5
2ffdeff6:	4641      	mov	r1, r8
2ffdeff8:	f7ff fe62 	bl	2ffdecc0 <i2c_transfer_config.isra.0>
2ffdeffc:	e7cd      	b.n	2ffdef9a <i2c_write+0x156>
2ffdeffe:	f04f 7300 	mov.w	r3, #33554432	; 0x2000000
2ffdf002:	b2ba      	uxth	r2, r7
2ffdf004:	4641      	mov	r1, r8
2ffdf006:	463d      	mov	r5, r7
2ffdf008:	f7ff fe5a 	bl	2ffdecc0 <i2c_transfer_config.isra.0>
2ffdf00c:	e7c8      	b.n	2ffdefa0 <i2c_write+0x15c>
2ffdf00e:	f04f 35ff 	mov.w	r5, #4294967295	; 0xffffffff
2ffdf012:	e75d      	b.n	2ffdeed0 <i2c_write+0x8c>
2ffdf014:	f06f 050f 	mvn.w	r5, #15
2ffdf018:	e75a      	b.n	2ffdeed0 <i2c_write+0x8c>
2ffdf01a:	f06f 0515 	mvn.w	r5, #21
2ffdf01e:	e757      	b.n	2ffdeed0 <i2c_write+0x8c>
2ffdf020:	4632      	mov	r2, r6
2ffdf022:	4653      	mov	r3, sl
2ffdf024:	4620      	mov	r0, r4
2ffdf026:	f7ff feec 	bl	2ffdee02 <i2c_wait_stop>
2ffdf02a:	4605      	mov	r5, r0
2ffdf02c:	2800      	cmp	r0, #0
2ffdf02e:	f47f af48 	bne.w	2ffdeec2 <i2c_write+0x7e>
2ffdf032:	6823      	ldr	r3, [r4, #0]
2ffdf034:	2220      	movs	r2, #32
2ffdf036:	61da      	str	r2, [r3, #28]
2ffdf038:	6821      	ldr	r1, [r4, #0]
2ffdf03a:	684b      	ldr	r3, [r1, #4]
2ffdf03c:	f023 73ff 	bic.w	r3, r3, #33423360	; 0x1fe0000
2ffdf040:	f423 338b 	bic.w	r3, r3, #71168	; 0x11600
2ffdf044:	f423 73ff 	bic.w	r3, r3, #510	; 0x1fe
2ffdf048:	f023 0301 	bic.w	r3, r3, #1
2ffdf04c:	604b      	str	r3, [r1, #4]
2ffdf04e:	6122      	str	r2, [r4, #16]
2ffdf050:	6167      	str	r7, [r4, #20]
2ffdf052:	e738      	b.n	2ffdeec6 <i2c_write+0x82>
2ffdf054:	000f4240 	.word	0x000f4240
2ffdf058:	80002000 	.word	0x80002000

2ffdf05c <i2c_read.isra.0>:
2ffdf05c:	e92d 4ff0 	stmdb	sp!, {r4, r5, r6, r7, r8, r9, sl, fp, lr}
2ffdf060:	b085      	sub	sp, #20
2ffdf062:	4699      	mov	r9, r3
2ffdf064:	4604      	mov	r4, r0
2ffdf066:	9b10      	ldr	r3, [sp, #64]	; 0x40
2ffdf068:	4688      	mov	r8, r1
2ffdf06a:	f8bd a03c 	ldrh.w	sl, [sp, #60]	; 0x3c
2ffdf06e:	4617      	mov	r7, r2
2ffdf070:	2b10      	cmp	r3, #16
2ffdf072:	d002      	beq.n	2ffdf07a <i2c_read.isra.0+0x1e>
2ffdf074:	2b40      	cmp	r3, #64	; 0x40
2ffdf076:	f040 80be 	bne.w	2ffdf1f6 <i2c_read.isra.0+0x19a>
2ffdf07a:	6923      	ldr	r3, [r4, #16]
2ffdf07c:	2b20      	cmp	r3, #32
2ffdf07e:	f040 80bd 	bne.w	2ffdf1fc <i2c_read.isra.0+0x1a0>
2ffdf082:	7b23      	ldrb	r3, [r4, #12]
2ffdf084:	2b00      	cmp	r3, #0
2ffdf086:	f040 80b9 	bne.w	2ffdf1fc <i2c_read.isra.0+0x1a0>
2ffdf08a:	9b0e      	ldr	r3, [sp, #56]	; 0x38
2ffdf08c:	2b00      	cmp	r3, #0
2ffdf08e:	f000 80b8 	beq.w	2ffdf202 <i2c_read.isra.0+0x1a6>
2ffdf092:	f1ba 0f00 	cmp.w	sl, #0
2ffdf096:	f000 80b4 	beq.w	2ffdf202 <i2c_read.isra.0+0x1a6>
2ffdf09a:	68a0      	ldr	r0, [r4, #8]
2ffdf09c:	f04f 0b01 	mov.w	fp, #1
2ffdf0a0:	f7fe fe90 	bl	2ffdddc4 <stm32mp_clk_enable>
2ffdf0a4:	f884 b00c 	strb.w	fp, [r4, #12]
2ffdf0a8:	ee1e 0f10 	mrc	15, 0, r0, cr14, cr0, {0}
2ffdf0ac:	ec56 5f0e 	mrrc	15, 0, r5, r6, cr14
2ffdf0b0:	4a62      	ldr	r2, [pc, #392]	; (2ffdf23c <i2c_read.isra.0+0x1e0>)
2ffdf0b2:	f246 11a8 	movw	r1, #25000	; 0x61a8
2ffdf0b6:	2300      	movs	r3, #0
2ffdf0b8:	fba0 0101 	umull	r0, r1, r0, r1
2ffdf0bc:	f001 ed56 	blx	2ffe0b6c <__aeabi_uldivmod>
2ffdf0c0:	1943      	adds	r3, r0, r5
2ffdf0c2:	465a      	mov	r2, fp
2ffdf0c4:	eb41 0606 	adc.w	r6, r1, r6
2ffdf0c8:	4620      	mov	r0, r4
2ffdf0ca:	e9cd 3600 	strd	r3, r6, [sp]
2ffdf0ce:	9303      	str	r3, [sp, #12]
2ffdf0d0:	f44f 4100 	mov.w	r1, #32768	; 0x8000
2ffdf0d4:	f7ff fe0a 	bl	2ffdecec <i2c_wait_flag>
2ffdf0d8:	4603      	mov	r3, r0
2ffdf0da:	b150      	cbz	r0, 2ffdf0f2 <i2c_read.isra.0+0x96>
2ffdf0dc:	f06f 0504 	mvn.w	r5, #4
2ffdf0e0:	68a0      	ldr	r0, [r4, #8]
2ffdf0e2:	2300      	movs	r3, #0
2ffdf0e4:	7323      	strb	r3, [r4, #12]
2ffdf0e6:	f7fe fe70 	bl	2ffdddca <stm32mp_clk_disable>
2ffdf0ea:	4628      	mov	r0, r5
2ffdf0ec:	b005      	add	sp, #20
2ffdf0ee:	e8bd 8ff0 	ldmia.w	sp!, {r4, r5, r6, r7, r8, r9, sl, fp, pc}
2ffdf0f2:	61a0      	str	r0, [r4, #24]
2ffdf0f4:	2222      	movs	r2, #34	; 0x22
2ffdf0f6:	6122      	str	r2, [r4, #16]
2ffdf0f8:	9a10      	ldr	r2, [sp, #64]	; 0x40
2ffdf0fa:	6162      	str	r2, [r4, #20]
2ffdf0fc:	2a40      	cmp	r2, #64	; 0x40
2ffdf0fe:	d00d      	beq.n	2ffdf11c <i2c_read.isra.0+0xc0>
2ffdf100:	6820      	ldr	r0, [r4, #0]
2ffdf102:	4657      	mov	r7, sl
2ffdf104:	4b4e      	ldr	r3, [pc, #312]	; (2ffdf240 <i2c_read.isra.0+0x1e4>)
2ffdf106:	2fff      	cmp	r7, #255	; 0xff
2ffdf108:	d835      	bhi.n	2ffdf176 <i2c_read.isra.0+0x11a>
2ffdf10a:	9300      	str	r3, [sp, #0]
2ffdf10c:	4652      	mov	r2, sl
2ffdf10e:	f04f 7300 	mov.w	r3, #33554432	; 0x2000000
2ffdf112:	4641      	mov	r1, r8
2ffdf114:	46d1      	mov	r9, sl
2ffdf116:	f7ff fdd3 	bl	2ffdecc0 <i2c_transfer_config.isra.0>
2ffdf11a:	e035      	b.n	2ffdf188 <i2c_read.isra.0+0x12c>
2ffdf11c:	4a49      	ldr	r2, [pc, #292]	; (2ffdf244 <i2c_read.isra.0+0x1e8>)
2ffdf11e:	4641      	mov	r1, r8
2ffdf120:	6820      	ldr	r0, [r4, #0]
2ffdf122:	9200      	str	r2, [sp, #0]
2ffdf124:	464a      	mov	r2, r9
2ffdf126:	f7ff fdcb 	bl	2ffdecc0 <i2c_transfer_config.isra.0>
2ffdf12a:	9a03      	ldr	r2, [sp, #12]
2ffdf12c:	4633      	mov	r3, r6
2ffdf12e:	4620      	mov	r0, r4
2ffdf130:	f7ff fe46 	bl	2ffdedc0 <i2c_wait_txis>
2ffdf134:	2800      	cmp	r0, #0
2ffdf136:	d1d1      	bne.n	2ffdf0dc <i2c_read.isra.0+0x80>
2ffdf138:	6823      	ldr	r3, [r4, #0]
2ffdf13a:	f1b9 0f01 	cmp.w	r9, #1
2ffdf13e:	d10d      	bne.n	2ffdf15c <i2c_read.isra.0+0x100>
2ffdf140:	b2ff      	uxtb	r7, r7
2ffdf142:	f883 7028 	strb.w	r7, [r3, #40]	; 0x28
2ffdf146:	2200      	movs	r2, #0
2ffdf148:	9b03      	ldr	r3, [sp, #12]
2ffdf14a:	2140      	movs	r1, #64	; 0x40
2ffdf14c:	4620      	mov	r0, r4
2ffdf14e:	e9cd 3600 	strd	r3, r6, [sp]
2ffdf152:	f7ff fdcb 	bl	2ffdecec <i2c_wait_flag>
2ffdf156:	2800      	cmp	r0, #0
2ffdf158:	d0d2      	beq.n	2ffdf100 <i2c_read.isra.0+0xa4>
2ffdf15a:	e7bf      	b.n	2ffdf0dc <i2c_read.isra.0+0x80>
2ffdf15c:	0a3a      	lsrs	r2, r7, #8
2ffdf15e:	4620      	mov	r0, r4
2ffdf160:	f883 2028 	strb.w	r2, [r3, #40]	; 0x28
2ffdf164:	4633      	mov	r3, r6
2ffdf166:	9a03      	ldr	r2, [sp, #12]
2ffdf168:	f7ff fe2a 	bl	2ffdedc0 <i2c_wait_txis>
2ffdf16c:	2800      	cmp	r0, #0
2ffdf16e:	d1b5      	bne.n	2ffdf0dc <i2c_read.isra.0+0x80>
2ffdf170:	6823      	ldr	r3, [r4, #0]
2ffdf172:	b2ff      	uxtb	r7, r7
2ffdf174:	e7e5      	b.n	2ffdf142 <i2c_read.isra.0+0xe6>
2ffdf176:	9300      	str	r3, [sp, #0]
2ffdf178:	22ff      	movs	r2, #255	; 0xff
2ffdf17a:	f04f 7380 	mov.w	r3, #16777216	; 0x1000000
2ffdf17e:	4641      	mov	r1, r8
2ffdf180:	f04f 09ff 	mov.w	r9, #255	; 0xff
2ffdf184:	f7ff fd9c 	bl	2ffdecc0 <i2c_transfer_config.isra.0>
2ffdf188:	9b0e      	ldr	r3, [sp, #56]	; 0x38
2ffdf18a:	f103 3aff 	add.w	sl, r3, #4294967295	; 0xffffffff
2ffdf18e:	9b03      	ldr	r3, [sp, #12]
2ffdf190:	2200      	movs	r2, #0
2ffdf192:	2104      	movs	r1, #4
2ffdf194:	4620      	mov	r0, r4
2ffdf196:	e9cd 3600 	strd	r3, r6, [sp]
2ffdf19a:	f7ff fda7 	bl	2ffdecec <i2c_wait_flag>
2ffdf19e:	2800      	cmp	r0, #0
2ffdf1a0:	d19c      	bne.n	2ffdf0dc <i2c_read.isra.0+0x80>
2ffdf1a2:	6823      	ldr	r3, [r4, #0]
2ffdf1a4:	3f01      	subs	r7, #1
2ffdf1a6:	f893 3024 	ldrb.w	r3, [r3, #36]	; 0x24
2ffdf1aa:	f80a 3f01 	strb.w	r3, [sl, #1]!
2ffdf1ae:	d02b      	beq.n	2ffdf208 <i2c_read.isra.0+0x1ac>
2ffdf1b0:	f1b9 0901 	subs.w	r9, r9, #1
2ffdf1b4:	d1eb      	bne.n	2ffdf18e <i2c_read.isra.0+0x132>
2ffdf1b6:	9b03      	ldr	r3, [sp, #12]
2ffdf1b8:	464a      	mov	r2, r9
2ffdf1ba:	2180      	movs	r1, #128	; 0x80
2ffdf1bc:	4620      	mov	r0, r4
2ffdf1be:	e9cd 3600 	strd	r3, r6, [sp]
2ffdf1c2:	f7ff fd93 	bl	2ffdecec <i2c_wait_flag>
2ffdf1c6:	2800      	cmp	r0, #0
2ffdf1c8:	d188      	bne.n	2ffdf0dc <i2c_read.isra.0+0x80>
2ffdf1ca:	6820      	ldr	r0, [r4, #0]
2ffdf1cc:	2fff      	cmp	r7, #255	; 0xff
2ffdf1ce:	f8cd 9000 	str.w	r9, [sp]
2ffdf1d2:	d908      	bls.n	2ffdf1e6 <i2c_read.isra.0+0x18a>
2ffdf1d4:	f04f 7380 	mov.w	r3, #16777216	; 0x1000000
2ffdf1d8:	22ff      	movs	r2, #255	; 0xff
2ffdf1da:	4641      	mov	r1, r8
2ffdf1dc:	f04f 09ff 	mov.w	r9, #255	; 0xff
2ffdf1e0:	f7ff fd6e 	bl	2ffdecc0 <i2c_transfer_config.isra.0>
2ffdf1e4:	e7d3      	b.n	2ffdf18e <i2c_read.isra.0+0x132>
2ffdf1e6:	f04f 7300 	mov.w	r3, #33554432	; 0x2000000
2ffdf1ea:	b2ba      	uxth	r2, r7
2ffdf1ec:	4641      	mov	r1, r8
2ffdf1ee:	46b9      	mov	r9, r7
2ffdf1f0:	f7ff fd66 	bl	2ffdecc0 <i2c_transfer_config.isra.0>
2ffdf1f4:	e7cb      	b.n	2ffdf18e <i2c_read.isra.0+0x132>
2ffdf1f6:	f04f 35ff 	mov.w	r5, #4294967295	; 0xffffffff
2ffdf1fa:	e776      	b.n	2ffdf0ea <i2c_read.isra.0+0x8e>
2ffdf1fc:	f06f 050f 	mvn.w	r5, #15
2ffdf200:	e773      	b.n	2ffdf0ea <i2c_read.isra.0+0x8e>
2ffdf202:	f06f 0515 	mvn.w	r5, #21
2ffdf206:	e770      	b.n	2ffdf0ea <i2c_read.isra.0+0x8e>
2ffdf208:	9a03      	ldr	r2, [sp, #12]
2ffdf20a:	4633      	mov	r3, r6
2ffdf20c:	4620      	mov	r0, r4
2ffdf20e:	f7ff fdf8 	bl	2ffdee02 <i2c_wait_stop>
2ffdf212:	4605      	mov	r5, r0
2ffdf214:	2800      	cmp	r0, #0
2ffdf216:	f47f af61 	bne.w	2ffdf0dc <i2c_read.isra.0+0x80>
2ffdf21a:	6823      	ldr	r3, [r4, #0]
2ffdf21c:	2220      	movs	r2, #32
2ffdf21e:	61da      	str	r2, [r3, #28]
2ffdf220:	6821      	ldr	r1, [r4, #0]
2ffdf222:	684b      	ldr	r3, [r1, #4]
2ffdf224:	f023 73ff 	bic.w	r3, r3, #33423360	; 0x1fe0000
2ffdf228:	f423 338b 	bic.w	r3, r3, #71168	; 0x11600
2ffdf22c:	f423 73ff 	bic.w	r3, r3, #510	; 0x1fe
2ffdf230:	f023 0301 	bic.w	r3, r3, #1
2ffdf234:	604b      	str	r3, [r1, #4]
2ffdf236:	6122      	str	r2, [r4, #16]
2ffdf238:	6167      	str	r7, [r4, #20]
2ffdf23a:	e751      	b.n	2ffdf0e0 <i2c_read.isra.0+0x84>
2ffdf23c:	000f4240 	.word	0x000f4240
2ffdf240:	80002400 	.word	0x80002400
2ffdf244:	80002000 	.word	0x80002000

2ffdf248 <stm32_i2c_get_setup_from_fdt>:
2ffdf248:	b538      	push	{r3, r4, r5, lr}
2ffdf24a:	2219      	movs	r2, #25
2ffdf24c:	460d      	mov	r5, r1
2ffdf24e:	4604      	mov	r4, r0
2ffdf250:	490f      	ldr	r1, [pc, #60]	; (2ffdf290 <stm32_i2c_get_setup_from_fdt+0x48>)
2ffdf252:	f001 f953 	bl	2ffe04fc <fdt_read_uint32_default>
2ffdf256:	61e8      	str	r0, [r5, #28]
2ffdf258:	220a      	movs	r2, #10
2ffdf25a:	490e      	ldr	r1, [pc, #56]	; (2ffdf294 <stm32_i2c_get_setup_from_fdt+0x4c>)
2ffdf25c:	4620      	mov	r0, r4
2ffdf25e:	f001 f94d 	bl	2ffe04fc <fdt_read_uint32_default>
2ffdf262:	6228      	str	r0, [r5, #32]
2ffdf264:	4620      	mov	r0, r4
2ffdf266:	4a0c      	ldr	r2, [pc, #48]	; (2ffdf298 <stm32_i2c_get_setup_from_fdt+0x50>)
2ffdf268:	490c      	ldr	r1, [pc, #48]	; (2ffdf29c <stm32_i2c_get_setup_from_fdt+0x54>)
2ffdf26a:	f001 f947 	bl	2ffe04fc <fdt_read_uint32_default>
2ffdf26e:	4a0c      	ldr	r2, [pc, #48]	; (2ffdf2a0 <stm32_i2c_get_setup_from_fdt+0x58>)
2ffdf270:	4601      	mov	r1, r0
2ffdf272:	4290      	cmp	r0, r2
2ffdf274:	d805      	bhi.n	2ffdf282 <stm32_i2c_get_setup_from_fdt+0x3a>
2ffdf276:	6268      	str	r0, [r5, #36]	; 0x24
2ffdf278:	4620      	mov	r0, r4
2ffdf27a:	e8bd 4038 	ldmia.w	sp!, {r3, r4, r5, lr}
2ffdf27e:	f7ff bc1d 	b.w	2ffdeabc <dt_set_pinctrl_config>
2ffdf282:	4808      	ldr	r0, [pc, #32]	; (2ffdf2a4 <stm32_i2c_get_setup_from_fdt+0x5c>)
2ffdf284:	f7fb ffa6 	bl	2ffdb1d4 <tf_log>
2ffdf288:	f06f 000e 	mvn.w	r0, #14
2ffdf28c:	bd38      	pop	{r3, r4, r5, pc}
2ffdf28e:	bf00      	nop
2ffdf290:	2ffe46f7 	.word	0x2ffe46f7
2ffdf294:	2ffe470e 	.word	0x2ffe470e
2ffdf298:	000186a0 	.word	0x000186a0
2ffdf29c:	2ffe4021 	.word	0x2ffe4021
2ffdf2a0:	000f4240 	.word	0x000f4240
2ffdf2a4:	2ffe4726 	.word	0x2ffe4726

2ffdf2a8 <stm32_i2c_init>:
2ffdf2a8:	e92d 4ff0 	stmdb	sp!, {r4, r5, r6, r7, r8, r9, sl, fp, lr}
2ffdf2ac:	460d      	mov	r5, r1
2ffdf2ae:	b0a5      	sub	sp, #148	; 0x94
2ffdf2b0:	4604      	mov	r4, r0
2ffdf2b2:	2800      	cmp	r0, #0
2ffdf2b4:	f000 8213 	beq.w	2ffdf6de <stm32_i2c_init+0x436>
2ffdf2b8:	6903      	ldr	r3, [r0, #16]
2ffdf2ba:	b903      	cbnz	r3, 2ffdf2be <stm32_i2c_init+0x16>
2ffdf2bc:	7303      	strb	r3, [r0, #12]
2ffdf2be:	68a0      	ldr	r0, [r4, #8]
2ffdf2c0:	2324      	movs	r3, #36	; 0x24
2ffdf2c2:	6123      	str	r3, [r4, #16]
2ffdf2c4:	f7fe fd87 	bl	2ffdddd6 <stm32mp_clk_get_rate>
2ffdf2c8:	4683      	mov	fp, r0
2ffdf2ca:	b940      	cbnz	r0, 2ffdf2de <stm32_i2c_init+0x36>
2ffdf2cc:	489a      	ldr	r0, [pc, #616]	; (2ffdf538 <stm32_i2c_init+0x290>)
2ffdf2ce:	f06f 0815 	mvn.w	r8, #21
2ffdf2d2:	f7fb ff7f 	bl	2ffdb1d4 <tf_log>
2ffdf2d6:	4640      	mov	r0, r8
2ffdf2d8:	b025      	add	sp, #148	; 0x94
2ffdf2da:	e8bd 8ff0 	ldmia.w	sp!, {r4, r5, r6, r7, r8, r9, sl, fp, pc}
2ffdf2de:	6a23      	ldr	r3, [r4, #32]
2ffdf2e0:	4298      	cmp	r0, r3
2ffdf2e2:	d02d      	beq.n	2ffdf340 <stm32_i2c_init+0x98>
2ffdf2e4:	4b95      	ldr	r3, [pc, #596]	; (2ffdf53c <stm32_i2c_init+0x294>)
2ffdf2e6:	eb03 0650 	add.w	r6, r3, r0, lsr #1
2ffdf2ea:	9306      	str	r3, [sp, #24]
2ffdf2ec:	fbb6 f2f0 	udiv	r2, r6, r0
2ffdf2f0:	9203      	str	r2, [sp, #12]
2ffdf2f2:	0052      	lsls	r2, r2, #1
2ffdf2f4:	920b      	str	r2, [sp, #44]	; 0x2c
2ffdf2f6:	6a69      	ldr	r1, [r5, #36]	; 0x24
2ffdf2f8:	4b91      	ldr	r3, [pc, #580]	; (2ffdf540 <stm32_i2c_init+0x298>)
2ffdf2fa:	4299      	cmp	r1, r3
2ffdf2fc:	d97f      	bls.n	2ffdf3fe <stm32_i2c_init+0x156>
2ffdf2fe:	4b91      	ldr	r3, [pc, #580]	; (2ffdf544 <stm32_i2c_init+0x29c>)
2ffdf300:	4299      	cmp	r1, r3
2ffdf302:	d97f      	bls.n	2ffdf404 <stm32_i2c_init+0x15c>
2ffdf304:	4b90      	ldr	r3, [pc, #576]	; (2ffdf548 <stm32_i2c_init+0x2a0>)
2ffdf306:	4299      	cmp	r1, r3
2ffdf308:	d87f      	bhi.n	2ffdf40a <stm32_i2c_init+0x162>
2ffdf30a:	f04f 0902 	mov.w	r9, #2
2ffdf30e:	4a8f      	ldr	r2, [pc, #572]	; (2ffdf54c <stm32_i2c_init+0x2a4>)
2ffdf310:	ea4f 1349 	mov.w	r3, r9, lsl #5
2ffdf314:	eb02 1049 	add.w	r0, r2, r9, lsl #5
2ffdf318:	f852 a003 	ldr.w	sl, [r2, r3]
2ffdf31c:	9b06      	ldr	r3, [sp, #24]
2ffdf31e:	6882      	ldr	r2, [r0, #8]
2ffdf320:	eb03 035a 	add.w	r3, r3, sl, lsr #1
2ffdf324:	69e9      	ldr	r1, [r5, #28]
2ffdf326:	fbb3 f3fa 	udiv	r3, r3, sl
2ffdf32a:	4291      	cmp	r1, r2
2ffdf32c:	9309      	str	r3, [sp, #36]	; 0x24
2ffdf32e:	6840      	ldr	r0, [r0, #4]
2ffdf330:	6a2b      	ldr	r3, [r5, #32]
2ffdf332:	f240 8083 	bls.w	2ffdf43c <stm32_i2c_init+0x194>
2ffdf336:	9000      	str	r0, [sp, #0]
2ffdf338:	4885      	ldr	r0, [pc, #532]	; (2ffdf550 <stm32_i2c_init+0x2a8>)
2ffdf33a:	f7fb ff4b 	bl	2ffdb1d4 <tf_log>
2ffdf33e:	e067      	b.n	2ffdf410 <stm32_i2c_init+0x168>
2ffdf340:	69e6      	ldr	r6, [r4, #28]
2ffdf342:	68a0      	ldr	r0, [r4, #8]
2ffdf344:	f026 6670 	bic.w	r6, r6, #251658240	; 0xf000000
2ffdf348:	f7fe fd3c 	bl	2ffdddc4 <stm32mp_clk_enable>
2ffdf34c:	6822      	ldr	r2, [r4, #0]
2ffdf34e:	2120      	movs	r1, #32
2ffdf350:	6813      	ldr	r3, [r2, #0]
2ffdf352:	f023 0301 	bic.w	r3, r3, #1
2ffdf356:	6013      	str	r3, [r2, #0]
2ffdf358:	6823      	ldr	r3, [r4, #0]
2ffdf35a:	611e      	str	r6, [r3, #16]
2ffdf35c:	6822      	ldr	r2, [r4, #0]
2ffdf35e:	6893      	ldr	r3, [r2, #8]
2ffdf360:	f423 4300 	bic.w	r3, r3, #32768	; 0x8000
2ffdf364:	6093      	str	r3, [r2, #8]
2ffdf366:	686b      	ldr	r3, [r5, #4]
2ffdf368:	6822      	ldr	r2, [r4, #0]
2ffdf36a:	2b01      	cmp	r3, #1
2ffdf36c:	682b      	ldr	r3, [r5, #0]
2ffdf36e:	bf0c      	ite	eq
2ffdf370:	f443 4300 	orreq.w	r3, r3, #32768	; 0x8000
2ffdf374:	f443 4304 	orrne.w	r3, r3, #33792	; 0x8400
2ffdf378:	6093      	str	r3, [r2, #8]
2ffdf37a:	2200      	movs	r2, #0
2ffdf37c:	6823      	ldr	r3, [r4, #0]
2ffdf37e:	605a      	str	r2, [r3, #4]
2ffdf380:	686b      	ldr	r3, [r5, #4]
2ffdf382:	2b02      	cmp	r3, #2
2ffdf384:	bf01      	itttt	eq
2ffdf386:	6822      	ldreq	r2, [r4, #0]
2ffdf388:	6853      	ldreq	r3, [r2, #4]
2ffdf38a:	f443 6300 	orreq.w	r3, r3, #2048	; 0x800
2ffdf38e:	6053      	streq	r3, [r2, #4]
2ffdf390:	6822      	ldr	r2, [r4, #0]
2ffdf392:	6853      	ldr	r3, [r2, #4]
2ffdf394:	f043 7300 	orr.w	r3, r3, #33554432	; 0x2000000
2ffdf398:	f443 4300 	orr.w	r3, r3, #32768	; 0x8000
2ffdf39c:	6053      	str	r3, [r2, #4]
2ffdf39e:	6822      	ldr	r2, [r4, #0]
2ffdf3a0:	68d3      	ldr	r3, [r2, #12]
2ffdf3a2:	f423 4300 	bic.w	r3, r3, #32768	; 0x8000
2ffdf3a6:	60d3      	str	r3, [r2, #12]
2ffdf3a8:	68ea      	ldr	r2, [r5, #12]
2ffdf3aa:	68ab      	ldr	r3, [r5, #8]
2ffdf3ac:	4313      	orrs	r3, r2
2ffdf3ae:	692a      	ldr	r2, [r5, #16]
2ffdf3b0:	ea43 2302 	orr.w	r3, r3, r2, lsl #8
2ffdf3b4:	6822      	ldr	r2, [r4, #0]
2ffdf3b6:	60d3      	str	r3, [r2, #12]
2ffdf3b8:	69aa      	ldr	r2, [r5, #24]
2ffdf3ba:	696b      	ldr	r3, [r5, #20]
2ffdf3bc:	4313      	orrs	r3, r2
2ffdf3be:	6822      	ldr	r2, [r4, #0]
2ffdf3c0:	6013      	str	r3, [r2, #0]
2ffdf3c2:	6822      	ldr	r2, [r4, #0]
2ffdf3c4:	6813      	ldr	r3, [r2, #0]
2ffdf3c6:	f043 0301 	orr.w	r3, r3, #1
2ffdf3ca:	6013      	str	r3, [r2, #0]
2ffdf3cc:	2300      	movs	r3, #0
2ffdf3ce:	61a3      	str	r3, [r4, #24]
2ffdf3d0:	6163      	str	r3, [r4, #20]
2ffdf3d2:	6aab      	ldr	r3, [r5, #40]	; 0x28
2ffdf3d4:	7b25      	ldrb	r5, [r4, #12]
2ffdf3d6:	6121      	str	r1, [r4, #16]
2ffdf3d8:	2b00      	cmp	r3, #0
2ffdf3da:	bf14      	ite	ne
2ffdf3dc:	2300      	movne	r3, #0
2ffdf3de:	f44f 5380 	moveq.w	r3, #4096	; 0x1000
2ffdf3e2:	2d00      	cmp	r5, #0
2ffdf3e4:	f000 815d 	beq.w	2ffdf6a2 <stm32_i2c_init+0x3fa>
2ffdf3e8:	485a      	ldr	r0, [pc, #360]	; (2ffdf554 <stm32_i2c_init+0x2ac>)
2ffdf3ea:	f06f 010f 	mvn.w	r1, #15
2ffdf3ee:	f06f 080f 	mvn.w	r8, #15
2ffdf3f2:	f7fb feef 	bl	2ffdb1d4 <tf_log>
2ffdf3f6:	68a0      	ldr	r0, [r4, #8]
2ffdf3f8:	f7fe fce7 	bl	2ffdddca <stm32mp_clk_disable>
2ffdf3fc:	e76b      	b.n	2ffdf2d6 <stm32_i2c_init+0x2e>
2ffdf3fe:	f04f 0900 	mov.w	r9, #0
2ffdf402:	e784      	b.n	2ffdf30e <stm32_i2c_init+0x66>
2ffdf404:	f04f 0901 	mov.w	r9, #1
2ffdf408:	e781      	b.n	2ffdf30e <stm32_i2c_init+0x66>
2ffdf40a:	4853      	ldr	r0, [pc, #332]	; (2ffdf558 <stm32_i2c_init+0x2b0>)
2ffdf40c:	f7fb fee2 	bl	2ffdb1d4 <tf_log>
2ffdf410:	f06f 0815 	mvn.w	r8, #21
2ffdf414:	4851      	ldr	r0, [pc, #324]	; (2ffdf55c <stm32_i2c_init+0x2b4>)
2ffdf416:	f7fb fedd 	bl	2ffdb1d4 <tf_log>
2ffdf41a:	6a6b      	ldr	r3, [r5, #36]	; 0x24
2ffdf41c:	4a48      	ldr	r2, [pc, #288]	; (2ffdf540 <stm32_i2c_init+0x298>)
2ffdf41e:	4293      	cmp	r3, r2
2ffdf420:	f240 8160 	bls.w	2ffdf6e4 <stm32_i2c_init+0x43c>
2ffdf424:	4948      	ldr	r1, [pc, #288]	; (2ffdf548 <stm32_i2c_init+0x2a0>)
2ffdf426:	428b      	cmp	r3, r1
2ffdf428:	d803      	bhi.n	2ffdf432 <stm32_i2c_init+0x18a>
2ffdf42a:	4946      	ldr	r1, [pc, #280]	; (2ffdf544 <stm32_i2c_init+0x29c>)
2ffdf42c:	428b      	cmp	r3, r1
2ffdf42e:	bf98      	it	ls
2ffdf430:	4611      	movls	r1, r2
2ffdf432:	484b      	ldr	r0, [pc, #300]	; (2ffdf560 <stm32_i2c_init+0x2b8>)
2ffdf434:	6269      	str	r1, [r5, #36]	; 0x24
2ffdf436:	f7fb fecd 	bl	2ffdb1d4 <tf_log>
2ffdf43a:	e75c      	b.n	2ffdf2f6 <stm32_i2c_init+0x4e>
2ffdf43c:	4298      	cmp	r0, r3
2ffdf43e:	f4ff af7a 	bcc.w	2ffdf336 <stm32_i2c_init+0x8e>
2ffdf442:	f895 802c 	ldrb.w	r8, [r5, #44]	; 0x2c
2ffdf446:	f1b8 0f10 	cmp.w	r8, #16
2ffdf44a:	d905      	bls.n	2ffdf458 <stm32_i2c_init+0x1b0>
2ffdf44c:	4845      	ldr	r0, [pc, #276]	; (2ffdf564 <stm32_i2c_init+0x2bc>)
2ffdf44e:	2210      	movs	r2, #16
2ffdf450:	4641      	mov	r1, r8
2ffdf452:	f7fb febf 	bl	2ffdb1d4 <tf_log>
2ffdf456:	e7db      	b.n	2ffdf410 <stm32_i2c_init+0x168>
2ffdf458:	6aaf      	ldr	r7, [r5, #40]	; 0x28
2ffdf45a:	2f00      	cmp	r7, #0
2ffdf45c:	d130      	bne.n	2ffdf4c0 <stm32_i2c_init+0x218>
2ffdf45e:	46bc      	mov	ip, r7
2ffdf460:	9a03      	ldr	r2, [sp, #12]
2ffdf462:	fb02 f208 	mul.w	r2, r2, r8
2ffdf466:	f108 0803 	add.w	r8, r8, #3
2ffdf46a:	9207      	str	r2, [sp, #28]
2ffdf46c:	9a03      	ldr	r2, [sp, #12]
2ffdf46e:	fb02 f808 	mul.w	r8, r2, r8
2ffdf472:	4a36      	ldr	r2, [pc, #216]	; (2ffdf54c <stm32_i2c_init+0x2a4>)
2ffdf474:	eba3 0308 	sub.w	r3, r3, r8
2ffdf478:	eb02 1049 	add.w	r0, r2, r9, lsl #5
2ffdf47c:	68c2      	ldr	r2, [r0, #12]
2ffdf47e:	4413      	add	r3, r2
2ffdf480:	1bdb      	subs	r3, r3, r7
2ffdf482:	9304      	str	r3, [sp, #16]
2ffdf484:	9b03      	ldr	r3, [sp, #12]
2ffdf486:	4498      	add	r8, r3
2ffdf488:	6903      	ldr	r3, [r0, #16]
2ffdf48a:	4488      	add	r8, r1
2ffdf48c:	eba3 0808 	sub.w	r8, r3, r8
2ffdf490:	6943      	ldr	r3, [r0, #20]
2ffdf492:	a810      	add	r0, sp, #64	; 0x40
2ffdf494:	eba8 080c 	sub.w	r8, r8, ip
2ffdf498:	18cb      	adds	r3, r1, r3
2ffdf49a:	2150      	movs	r1, #80	; 0x50
2ffdf49c:	930a      	str	r3, [sp, #40]	; 0x28
2ffdf49e:	9b04      	ldr	r3, [sp, #16]
2ffdf4a0:	ea28 78e8 	bic.w	r8, r8, r8, asr #31
2ffdf4a4:	ea23 73e3 	bic.w	r3, r3, r3, asr #31
2ffdf4a8:	9304      	str	r3, [sp, #16]
2ffdf4aa:	f7f6 efda 	blx	2ffd6460 <zero_normalmem>
2ffdf4ae:	9803      	ldr	r0, [sp, #12]
2ffdf4b0:	2300      	movs	r3, #0
2ffdf4b2:	f04f 0c10 	mov.w	ip, #16
2ffdf4b6:	9005      	str	r0, [sp, #20]
2ffdf4b8:	1c59      	adds	r1, r3, #1
2ffdf4ba:	9108      	str	r1, [sp, #32]
2ffdf4bc:	2200      	movs	r2, #0
2ffdf4be:	e011      	b.n	2ffdf4e4 <stm32_i2c_init+0x23c>
2ffdf4c0:	2732      	movs	r7, #50	; 0x32
2ffdf4c2:	f44f 7c82 	mov.w	ip, #260	; 0x104
2ffdf4c6:	e7cb      	b.n	2ffdf460 <stm32_i2c_init+0x1b8>
2ffdf4c8:	4486      	add	lr, r0
2ffdf4ca:	3101      	adds	r1, #1
2ffdf4cc:	b289      	uxth	r1, r1
2ffdf4ce:	2910      	cmp	r1, #16
2ffdf4d0:	d110      	bne.n	2ffdf4f4 <stm32_i2c_init+0x24c>
2ffdf4d2:	4563      	cmp	r3, ip
2ffdf4d4:	d022      	beq.n	2ffdf51c <stm32_i2c_init+0x274>
2ffdf4d6:	9905      	ldr	r1, [sp, #20]
2ffdf4d8:	3201      	adds	r2, #1
2ffdf4da:	b292      	uxth	r2, r2
2ffdf4dc:	4401      	add	r1, r0
2ffdf4de:	2a10      	cmp	r2, #16
2ffdf4e0:	9105      	str	r1, [sp, #20]
2ffdf4e2:	d01b      	beq.n	2ffdf51c <stm32_i2c_init+0x274>
2ffdf4e4:	990a      	ldr	r1, [sp, #40]	; 0x28
2ffdf4e6:	460e      	mov	r6, r1
2ffdf4e8:	9905      	ldr	r1, [sp, #20]
2ffdf4ea:	428e      	cmp	r6, r1
2ffdf4ec:	d8f3      	bhi.n	2ffdf4d6 <stm32_i2c_init+0x22e>
2ffdf4ee:	f8dd e00c 	ldr.w	lr, [sp, #12]
2ffdf4f2:	2100      	movs	r1, #0
2ffdf4f4:	9e04      	ldr	r6, [sp, #16]
2ffdf4f6:	4576      	cmp	r6, lr
2ffdf4f8:	d8e6      	bhi.n	2ffdf4c8 <stm32_i2c_init+0x220>
2ffdf4fa:	45f0      	cmp	r8, lr
2ffdf4fc:	d3e4      	bcc.n	2ffdf4c8 <stm32_i2c_init+0x220>
2ffdf4fe:	4563      	cmp	r3, ip
2ffdf500:	d0e2      	beq.n	2ffdf4c8 <stm32_i2c_init+0x220>
2ffdf502:	eb03 0c83 	add.w	ip, r3, r3, lsl #2
2ffdf506:	ae24      	add	r6, sp, #144	; 0x90
2ffdf508:	44b4      	add	ip, r6
2ffdf50a:	f80c 2c50 	strb.w	r2, [ip, #-80]
2ffdf50e:	f04f 0201 	mov.w	r2, #1
2ffdf512:	f80c 1c4f 	strb.w	r1, [ip, #-79]
2ffdf516:	f80c 2c4c 	strb.w	r2, [ip, #-76]
2ffdf51a:	469c      	mov	ip, r3
2ffdf51c:	9b03      	ldr	r3, [sp, #12]
2ffdf51e:	4418      	add	r0, r3
2ffdf520:	9b08      	ldr	r3, [sp, #32]
2ffdf522:	2b10      	cmp	r3, #16
2ffdf524:	d1c7      	bne.n	2ffdf4b6 <stm32_i2c_init+0x20e>
2ffdf526:	f1bc 0f10 	cmp.w	ip, #16
2ffdf52a:	d11f      	bne.n	2ffdf56c <stm32_i2c_init+0x2c4>
2ffdf52c:	480e      	ldr	r0, [pc, #56]	; (2ffdf568 <stm32_i2c_init+0x2c0>)
2ffdf52e:	f04f 38ff 	mov.w	r8, #4294967295	; 0xffffffff
2ffdf532:	f7fb fe4f 	bl	2ffdb1d4 <tf_log>
2ffdf536:	e76d      	b.n	2ffdf414 <stm32_i2c_init+0x16c>
2ffdf538:	2ffe4744 	.word	0x2ffe4744
2ffdf53c:	3b9aca00 	.word	0x3b9aca00
2ffdf540:	000186a0 	.word	0x000186a0
2ffdf544:	00061a80 	.word	0x00061a80
2ffdf548:	000f4240 	.word	0x000f4240
2ffdf54c:	2ffe488c 	.word	0x2ffe488c
2ffdf550:	2ffe4778 	.word	0x2ffe4778
2ffdf554:	2ffe483b 	.word	0x2ffe483b
2ffdf558:	2ffe475a 	.word	0x2ffe475a
2ffdf55c:	2ffe47fc 	.word	0x2ffe47fc
2ffdf560:	2ffe481c 	.word	0x2ffe481c
2ffdf564:	2ffe47ac 	.word	0x2ffe47ac
2ffdf568:	2ffe47c5 	.word	0x2ffe47c5
2ffdf56c:	9a0b      	ldr	r2, [sp, #44]	; 0x2c
2ffdf56e:	f10d 0c40 	add.w	ip, sp, #64	; 0x40
2ffdf572:	9b07      	ldr	r3, [sp, #28]
2ffdf574:	f04f 0e00 	mov.w	lr, #0
2ffdf578:	9903      	ldr	r1, [sp, #12]
2ffdf57a:	f04f 38ff 	mov.w	r8, #4294967295	; 0xffffffff
2ffdf57e:	4413      	add	r3, r2
2ffdf580:	443b      	add	r3, r7
2ffdf582:	9308      	str	r3, [sp, #32]
2ffdf584:	2364      	movs	r3, #100	; 0x64
2ffdf586:	fbba f2f3 	udiv	r2, sl, r3
2ffdf58a:	2350      	movs	r3, #80	; 0x50
2ffdf58c:	4353      	muls	r3, r2
2ffdf58e:	9a06      	ldr	r2, [sp, #24]
2ffdf590:	fbb2 f3f3 	udiv	r3, r2, r3
2ffdf594:	930a      	str	r3, [sp, #40]	; 0x28
2ffdf596:	fbb2 f3fa 	udiv	r3, r2, sl
2ffdf59a:	930c      	str	r3, [sp, #48]	; 0x30
2ffdf59c:	f06f 4300 	mvn.w	r3, #2147483648	; 0x80000000
2ffdf5a0:	9305      	str	r3, [sp, #20]
2ffdf5a2:	4b52      	ldr	r3, [pc, #328]	; (2ffdf6ec <stm32_i2c_init+0x444>)
2ffdf5a4:	eb03 1a49 	add.w	sl, r3, r9, lsl #5
2ffdf5a8:	9b07      	ldr	r3, [sp, #28]
2ffdf5aa:	443b      	add	r3, r7
2ffdf5ac:	930f      	str	r3, [sp, #60]	; 0x3c
2ffdf5ae:	f89c 3004 	ldrb.w	r3, [ip, #4]
2ffdf5b2:	2b00      	cmp	r3, #0
2ffdf5b4:	d045      	beq.n	2ffdf642 <stm32_i2c_init+0x39a>
2ffdf5b6:	f8da 3018 	ldr.w	r3, [sl, #24]
2ffdf5ba:	930d      	str	r3, [sp, #52]	; 0x34
2ffdf5bc:	9b08      	ldr	r3, [sp, #32]
2ffdf5be:	440b      	add	r3, r1
2ffdf5c0:	9304      	str	r3, [sp, #16]
2ffdf5c2:	4699      	mov	r9, r3
2ffdf5c4:	2300      	movs	r3, #0
2ffdf5c6:	9a0d      	ldr	r2, [sp, #52]	; 0x34
2ffdf5c8:	4591      	cmp	r9, r2
2ffdf5ca:	d334      	bcc.n	2ffdf636 <stm32_i2c_init+0x38e>
2ffdf5cc:	9a0f      	ldr	r2, [sp, #60]	; 0x3c
2ffdf5ce:	9803      	ldr	r0, [sp, #12]
2ffdf5d0:	eba9 0202 	sub.w	r2, r9, r2
2ffdf5d4:	ebb0 0f92 	cmp.w	r0, r2, lsr #2
2ffdf5d8:	d22d      	bcs.n	2ffdf636 <stm32_i2c_init+0x38e>
2ffdf5da:	6a28      	ldr	r0, [r5, #32]
2ffdf5dc:	69ea      	ldr	r2, [r5, #28]
2ffdf5de:	9e09      	ldr	r6, [sp, #36]	; 0x24
2ffdf5e0:	4402      	add	r2, r0
2ffdf5e2:	444a      	add	r2, r9
2ffdf5e4:	9207      	str	r2, [sp, #28]
2ffdf5e6:	2200      	movs	r2, #0
2ffdf5e8:	9807      	ldr	r0, [sp, #28]
2ffdf5ea:	9f04      	ldr	r7, [sp, #16]
2ffdf5ec:	1b80      	subs	r0, r0, r6
2ffdf5ee:	900e      	str	r0, [sp, #56]	; 0x38
2ffdf5f0:	9807      	ldr	r0, [sp, #28]
2ffdf5f2:	9e0c      	ldr	r6, [sp, #48]	; 0x30
2ffdf5f4:	1838      	adds	r0, r7, r0
2ffdf5f6:	4286      	cmp	r6, r0
2ffdf5f8:	d817      	bhi.n	2ffdf62a <stm32_i2c_init+0x382>
2ffdf5fa:	9e0a      	ldr	r6, [sp, #40]	; 0x28
2ffdf5fc:	4286      	cmp	r6, r0
2ffdf5fe:	d314      	bcc.n	2ffdf62a <stm32_i2c_init+0x382>
2ffdf600:	f8da 001c 	ldr.w	r0, [sl, #28]
2ffdf604:	42b8      	cmp	r0, r7
2ffdf606:	d810      	bhi.n	2ffdf62a <stm32_i2c_init+0x382>
2ffdf608:	9803      	ldr	r0, [sp, #12]
2ffdf60a:	42b8      	cmp	r0, r7
2ffdf60c:	d20d      	bcs.n	2ffdf62a <stm32_i2c_init+0x382>
2ffdf60e:	980e      	ldr	r0, [sp, #56]	; 0x38
2ffdf610:	9e05      	ldr	r6, [sp, #20]
2ffdf612:	4438      	add	r0, r7
2ffdf614:	2800      	cmp	r0, #0
2ffdf616:	bfb8      	it	lt
2ffdf618:	4240      	neglt	r0, r0
2ffdf61a:	42b0      	cmp	r0, r6
2ffdf61c:	bfbf      	itttt	lt
2ffdf61e:	f88c 3003 	strblt.w	r3, [ip, #3]
2ffdf622:	46f0      	movlt	r8, lr
2ffdf624:	f88c 2002 	strblt.w	r2, [ip, #2]
2ffdf628:	9005      	strlt	r0, [sp, #20]
2ffdf62a:	440f      	add	r7, r1
2ffdf62c:	3201      	adds	r2, #1
2ffdf62e:	b292      	uxth	r2, r2
2ffdf630:	f5b2 7f80 	cmp.w	r2, #256	; 0x100
2ffdf634:	d1dc      	bne.n	2ffdf5f0 <stm32_i2c_init+0x348>
2ffdf636:	4489      	add	r9, r1
2ffdf638:	3301      	adds	r3, #1
2ffdf63a:	b29b      	uxth	r3, r3
2ffdf63c:	f5b3 7f80 	cmp.w	r3, #256	; 0x100
2ffdf640:	d1c1      	bne.n	2ffdf5c6 <stm32_i2c_init+0x31e>
2ffdf642:	9b03      	ldr	r3, [sp, #12]
2ffdf644:	f10e 0e01 	add.w	lr, lr, #1
2ffdf648:	f1be 0f10 	cmp.w	lr, #16
2ffdf64c:	f10c 0c05 	add.w	ip, ip, #5
2ffdf650:	4419      	add	r1, r3
2ffdf652:	d1ac      	bne.n	2ffdf5ae <stm32_i2c_init+0x306>
2ffdf654:	f1b8 3fff 	cmp.w	r8, #4294967295	; 0xffffffff
2ffdf658:	d103      	bne.n	2ffdf662 <stm32_i2c_init+0x3ba>
2ffdf65a:	4825      	ldr	r0, [pc, #148]	; (2ffdf6f0 <stm32_i2c_init+0x448>)
2ffdf65c:	f7fb fdba 	bl	2ffdb1d4 <tf_log>
2ffdf660:	e6d8      	b.n	2ffdf414 <stm32_i2c_init+0x16c>
2ffdf662:	eb08 0388 	add.w	r3, r8, r8, lsl #2
2ffdf666:	aa24      	add	r2, sp, #144	; 0x90
2ffdf668:	4413      	add	r3, r2
2ffdf66a:	f8c4 b020 	str.w	fp, [r4, #32]
2ffdf66e:	f813 6c4d 	ldrb.w	r6, [r3, #-77]
2ffdf672:	ea46 7608 	orr.w	r6, r6, r8, lsl #28
2ffdf676:	f813 8c4e 	ldrb.w	r8, [r3, #-78]
2ffdf67a:	ea46 2608 	orr.w	r6, r6, r8, lsl #8
2ffdf67e:	f813 8c50 	ldrb.w	r8, [r3, #-80]
2ffdf682:	ea4f 5808 	mov.w	r8, r8, lsl #20
2ffdf686:	f408 0870 	and.w	r8, r8, #15728640	; 0xf00000
2ffdf68a:	ea46 0608 	orr.w	r6, r6, r8
2ffdf68e:	f813 8c4f 	ldrb.w	r8, [r3, #-79]
2ffdf692:	ea4f 4808 	mov.w	r8, r8, lsl #16
2ffdf696:	f408 2870 	and.w	r8, r8, #983040	; 0xf0000
2ffdf69a:	ea46 0608 	orr.w	r6, r6, r8
2ffdf69e:	61e6      	str	r6, [r4, #28]
2ffdf6a0:	e64f      	b.n	2ffdf342 <stm32_i2c_init+0x9a>
2ffdf6a2:	6820      	ldr	r0, [r4, #0]
2ffdf6a4:	2201      	movs	r2, #1
2ffdf6a6:	7322      	strb	r2, [r4, #12]
2ffdf6a8:	2224      	movs	r2, #36	; 0x24
2ffdf6aa:	6122      	str	r2, [r4, #16]
2ffdf6ac:	46a8      	mov	r8, r5
2ffdf6ae:	6802      	ldr	r2, [r0, #0]
2ffdf6b0:	f022 0201 	bic.w	r2, r2, #1
2ffdf6b4:	6002      	str	r2, [r0, #0]
2ffdf6b6:	6820      	ldr	r0, [r4, #0]
2ffdf6b8:	6802      	ldr	r2, [r0, #0]
2ffdf6ba:	f422 5280 	bic.w	r2, r2, #4096	; 0x1000
2ffdf6be:	6002      	str	r2, [r0, #0]
2ffdf6c0:	6822      	ldr	r2, [r4, #0]
2ffdf6c2:	6810      	ldr	r0, [r2, #0]
2ffdf6c4:	4303      	orrs	r3, r0
2ffdf6c6:	6013      	str	r3, [r2, #0]
2ffdf6c8:	6822      	ldr	r2, [r4, #0]
2ffdf6ca:	6813      	ldr	r3, [r2, #0]
2ffdf6cc:	f043 0301 	orr.w	r3, r3, #1
2ffdf6d0:	6013      	str	r3, [r2, #0]
2ffdf6d2:	6121      	str	r1, [r4, #16]
2ffdf6d4:	68a0      	ldr	r0, [r4, #8]
2ffdf6d6:	7325      	strb	r5, [r4, #12]
2ffdf6d8:	f7fe fb77 	bl	2ffdddca <stm32mp_clk_disable>
2ffdf6dc:	e5fb      	b.n	2ffdf2d6 <stm32_i2c_init+0x2e>
2ffdf6de:	f06f 0801 	mvn.w	r8, #1
2ffdf6e2:	e5f8      	b.n	2ffdf2d6 <stm32_i2c_init+0x2e>
2ffdf6e4:	4803      	ldr	r0, [pc, #12]	; (2ffdf6f4 <stm32_i2c_init+0x44c>)
2ffdf6e6:	f7fb fd75 	bl	2ffdb1d4 <tf_log>
2ffdf6ea:	e5f4      	b.n	2ffdf2d6 <stm32_i2c_init+0x2e>
2ffdf6ec:	2ffe488c 	.word	0x2ffe488c
2ffdf6f0:	2ffe47e2 	.word	0x2ffe47e2
2ffdf6f4:	2ffe4866 	.word	0x2ffe4866

2ffdf6f8 <stm32_i2c_mem_write>:
2ffdf6f8:	b51f      	push	{r0, r1, r2, r3, r4, lr}
2ffdf6fa:	2440      	movs	r4, #64	; 0x40
2ffdf6fc:	9403      	str	r4, [sp, #12]
2ffdf6fe:	9c08      	ldr	r4, [sp, #32]
2ffdf700:	9402      	str	r4, [sp, #8]
2ffdf702:	f8bd 401c 	ldrh.w	r4, [sp, #28]
2ffdf706:	9401      	str	r4, [sp, #4]
2ffdf708:	9c06      	ldr	r4, [sp, #24]
2ffdf70a:	9400      	str	r4, [sp, #0]
2ffdf70c:	f7ff fb9a 	bl	2ffdee44 <i2c_write>
2ffdf710:	b004      	add	sp, #16
2ffdf712:	bd10      	pop	{r4, pc}

2ffdf714 <stm32_i2c_mem_read>:
2ffdf714:	b430      	push	{r4, r5}
2ffdf716:	2540      	movs	r5, #64	; 0x40
2ffdf718:	f8bd 400c 	ldrh.w	r4, [sp, #12]
2ffdf71c:	9504      	str	r5, [sp, #16]
2ffdf71e:	9403      	str	r4, [sp, #12]
2ffdf720:	bc30      	pop	{r4, r5}
2ffdf722:	f7ff bc9b 	b.w	2ffdf05c <i2c_read.isra.0>
	...

2ffdf728 <stm32_i2c_is_device_ready>:
2ffdf728:	e92d 4ff0 	stmdb	sp!, {r4, r5, r6, r7, r8, r9, sl, fp, lr}
2ffdf72c:	469a      	mov	sl, r3
2ffdf72e:	6903      	ldr	r3, [r0, #16]
2ffdf730:	b085      	sub	sp, #20
2ffdf732:	4604      	mov	r4, r0
2ffdf734:	460e      	mov	r6, r1
2ffdf736:	2b20      	cmp	r3, #32
2ffdf738:	4617      	mov	r7, r2
2ffdf73a:	f040 8094 	bne.w	2ffdf866 <stm32_i2c_is_device_ready+0x13e>
2ffdf73e:	7b05      	ldrb	r5, [r0, #12]
2ffdf740:	2d00      	cmp	r5, #0
2ffdf742:	f040 8090 	bne.w	2ffdf866 <stm32_i2c_is_device_ready+0x13e>
2ffdf746:	6880      	ldr	r0, [r0, #8]
2ffdf748:	f7fe fb3c 	bl	2ffdddc4 <stm32mp_clk_enable>
2ffdf74c:	6165      	str	r5, [r4, #20]
2ffdf74e:	2301      	movs	r3, #1
2ffdf750:	7323      	strb	r3, [r4, #12]
2ffdf752:	6823      	ldr	r3, [r4, #0]
2ffdf754:	699d      	ldr	r5, [r3, #24]
2ffdf756:	f415 4500 	ands.w	r5, r5, #32768	; 0x8000
2ffdf75a:	d009      	beq.n	2ffdf770 <stm32_i2c_is_device_ready+0x48>
2ffdf75c:	2500      	movs	r5, #0
2ffdf75e:	68a0      	ldr	r0, [r4, #8]
2ffdf760:	2300      	movs	r3, #0
2ffdf762:	7323      	strb	r3, [r4, #12]
2ffdf764:	f7fe fb31 	bl	2ffdddca <stm32mp_clk_disable>
2ffdf768:	4628      	mov	r0, r5
2ffdf76a:	b005      	add	sp, #20
2ffdf76c:	e8bd 8ff0 	ldmia.w	sp!, {r4, r5, r6, r7, r8, r9, sl, fp, pc}
2ffdf770:	f3c6 0609 	ubfx	r6, r6, #0, #10
2ffdf774:	2324      	movs	r3, #36	; 0x24
2ffdf776:	6123      	str	r3, [r4, #16]
2ffdf778:	f046 7b00 	orr.w	fp, r6, #33554432	; 0x2000000
2ffdf77c:	61a5      	str	r5, [r4, #24]
2ffdf77e:	f44f 737a 	mov.w	r3, #1000	; 0x3e8
2ffdf782:	fb03 fa0a 	mul.w	sl, r3, sl
2ffdf786:	f44b 5b00 	orr.w	fp, fp, #8192	; 0x2000
2ffdf78a:	6823      	ldr	r3, [r4, #0]
2ffdf78c:	689a      	ldr	r2, [r3, #8]
2ffdf78e:	0552      	lsls	r2, r2, #21
2ffdf790:	bf52      	itee	pl
2ffdf792:	f8c3 b004 	strpl.w	fp, [r3, #4]
2ffdf796:	f446 5220 	orrmi.w	r2, r6, #10240	; 0x2800
2ffdf79a:	605a      	strmi	r2, [r3, #4]
2ffdf79c:	ee1e 0f10 	mrc	15, 0, r0, cr14, cr0, {0}
2ffdf7a0:	ec53 2f0e 	mrrc	15, 0, r2, r3, cr14
2ffdf7a4:	e9cd 2302 	strd	r2, r3, [sp, #8]
2ffdf7a8:	fbaa 0100 	umull	r0, r1, sl, r0
2ffdf7ac:	4a2f      	ldr	r2, [pc, #188]	; (2ffdf86c <stm32_i2c_is_device_ready+0x144>)
2ffdf7ae:	2300      	movs	r3, #0
2ffdf7b0:	f001 e9dc 	blx	2ffe0b6c <__aeabi_uldivmod>
2ffdf7b4:	9b02      	ldr	r3, [sp, #8]
2ffdf7b6:	6822      	ldr	r2, [r4, #0]
2ffdf7b8:	eb10 0803 	adds.w	r8, r0, r3
2ffdf7bc:	9b03      	ldr	r3, [sp, #12]
2ffdf7be:	f102 0c18 	add.w	ip, r2, #24
2ffdf7c2:	eb41 0903 	adc.w	r9, r1, r3
2ffdf7c6:	f8dc 3000 	ldr.w	r3, [ip]
2ffdf7ca:	f013 0330 	ands.w	r3, r3, #48	; 0x30
2ffdf7ce:	d10d      	bne.n	2ffdf7ec <stm32_i2c_is_device_ready+0xc4>
2ffdf7d0:	ec51 0f0e 	mrrc	15, 0, r0, r1, cr14
2ffdf7d4:	4589      	cmp	r9, r1
2ffdf7d6:	bf08      	it	eq
2ffdf7d8:	4580      	cmpeq	r8, r0
2ffdf7da:	d2f4      	bcs.n	2ffdf7c6 <stm32_i2c_is_device_ready+0x9e>
2ffdf7dc:	69a2      	ldr	r2, [r4, #24]
2ffdf7de:	6163      	str	r3, [r4, #20]
2ffdf7e0:	f042 0220 	orr.w	r2, r2, #32
2ffdf7e4:	61a2      	str	r2, [r4, #24]
2ffdf7e6:	2220      	movs	r2, #32
2ffdf7e8:	6122      	str	r2, [r4, #16]
2ffdf7ea:	e7b7      	b.n	2ffdf75c <stm32_i2c_is_device_ready+0x34>
2ffdf7ec:	6992      	ldr	r2, [r2, #24]
2ffdf7ee:	e9cd 8900 	strd	r8, r9, [sp]
2ffdf7f2:	f012 0210 	ands.w	r2, r2, #16
2ffdf7f6:	d10b      	bne.n	2ffdf810 <stm32_i2c_is_device_ready+0xe8>
2ffdf7f8:	2120      	movs	r1, #32
2ffdf7fa:	4620      	mov	r0, r4
2ffdf7fc:	f7ff fa76 	bl	2ffdecec <i2c_wait_flag>
2ffdf800:	2800      	cmp	r0, #0
2ffdf802:	d1ab      	bne.n	2ffdf75c <stm32_i2c_is_device_ready+0x34>
2ffdf804:	6822      	ldr	r2, [r4, #0]
2ffdf806:	2320      	movs	r3, #32
2ffdf808:	2501      	movs	r5, #1
2ffdf80a:	61d3      	str	r3, [r2, #28]
2ffdf80c:	6123      	str	r3, [r4, #16]
2ffdf80e:	e7a6      	b.n	2ffdf75e <stm32_i2c_is_device_ready+0x36>
2ffdf810:	2200      	movs	r2, #0
2ffdf812:	2120      	movs	r1, #32
2ffdf814:	4620      	mov	r0, r4
2ffdf816:	f7ff fa69 	bl	2ffdecec <i2c_wait_flag>
2ffdf81a:	4602      	mov	r2, r0
2ffdf81c:	2800      	cmp	r0, #0
2ffdf81e:	d19d      	bne.n	2ffdf75c <stm32_i2c_is_device_ready+0x34>
2ffdf820:	6823      	ldr	r3, [r4, #0]
2ffdf822:	2110      	movs	r1, #16
2ffdf824:	42bd      	cmp	r5, r7
2ffdf826:	61d9      	str	r1, [r3, #28]
2ffdf828:	f04f 0120 	mov.w	r1, #32
2ffdf82c:	6823      	ldr	r3, [r4, #0]
2ffdf82e:	61d9      	str	r1, [r3, #28]
2ffdf830:	d10d      	bne.n	2ffdf84e <stm32_i2c_is_device_ready+0x126>
2ffdf832:	6820      	ldr	r0, [r4, #0]
2ffdf834:	6843      	ldr	r3, [r0, #4]
2ffdf836:	f443 4380 	orr.w	r3, r3, #16384	; 0x4000
2ffdf83a:	6043      	str	r3, [r0, #4]
2ffdf83c:	4620      	mov	r0, r4
2ffdf83e:	e9cd 8900 	strd	r8, r9, [sp]
2ffdf842:	f7ff fa53 	bl	2ffdecec <i2c_wait_flag>
2ffdf846:	2800      	cmp	r0, #0
2ffdf848:	d188      	bne.n	2ffdf75c <stm32_i2c_is_device_ready+0x34>
2ffdf84a:	6823      	ldr	r3, [r4, #0]
2ffdf84c:	61d9      	str	r1, [r3, #28]
2ffdf84e:	3501      	adds	r5, #1
2ffdf850:	42af      	cmp	r7, r5
2ffdf852:	d89a      	bhi.n	2ffdf78a <stm32_i2c_is_device_ready+0x62>
2ffdf854:	69a3      	ldr	r3, [r4, #24]
2ffdf856:	2500      	movs	r5, #0
2ffdf858:	6165      	str	r5, [r4, #20]
2ffdf85a:	f043 0320 	orr.w	r3, r3, #32
2ffdf85e:	61a3      	str	r3, [r4, #24]
2ffdf860:	2320      	movs	r3, #32
2ffdf862:	6123      	str	r3, [r4, #16]
2ffdf864:	e77b      	b.n	2ffdf75e <stm32_i2c_is_device_ready+0x36>
2ffdf866:	2500      	movs	r5, #0
2ffdf868:	e77e      	b.n	2ffdf768 <stm32_i2c_is_device_ready+0x40>
2ffdf86a:	bf00      	nop
2ffdf86c:	000f4240 	.word	0x000f4240

2ffdf870 <stm32_iwdg_refresh>:
2ffdf870:	b510      	push	{r4, lr}
2ffdf872:	4c0e      	ldr	r4, [pc, #56]	; (2ffdf8ac <stm32_iwdg_refresh+0x3c>)
2ffdf874:	6823      	ldr	r3, [r4, #0]
2ffdf876:	b14b      	cbz	r3, 2ffdf88c <stm32_iwdg_refresh+0x1c>
2ffdf878:	6860      	ldr	r0, [r4, #4]
2ffdf87a:	f7fe faa3 	bl	2ffdddc4 <stm32mp_clk_enable>
2ffdf87e:	6823      	ldr	r3, [r4, #0]
2ffdf880:	f64a 22aa 	movw	r2, #43690	; 0xaaaa
2ffdf884:	601a      	str	r2, [r3, #0]
2ffdf886:	6860      	ldr	r0, [r4, #4]
2ffdf888:	f7fe fa9f 	bl	2ffdddca <stm32mp_clk_disable>
2ffdf88c:	6923      	ldr	r3, [r4, #16]
2ffdf88e:	b15b      	cbz	r3, 2ffdf8a8 <stm32_iwdg_refresh+0x38>
2ffdf890:	6960      	ldr	r0, [r4, #20]
2ffdf892:	f7fe fa97 	bl	2ffdddc4 <stm32mp_clk_enable>
2ffdf896:	6923      	ldr	r3, [r4, #16]
2ffdf898:	f64a 22aa 	movw	r2, #43690	; 0xaaaa
2ffdf89c:	601a      	str	r2, [r3, #0]
2ffdf89e:	6960      	ldr	r0, [r4, #20]
2ffdf8a0:	e8bd 4010 	ldmia.w	sp!, {r4, lr}
2ffdf8a4:	f7fe ba91 	b.w	2ffdddca <stm32mp_clk_disable>
2ffdf8a8:	bd10      	pop	{r4, pc}
2ffdf8aa:	bf00      	nop
2ffdf8ac:	2ffe8000 	.word	0x2ffe8000

2ffdf8b0 <stm32_iwdg_init>:
2ffdf8b0:	e92d 43f0 	stmdb	sp!, {r4, r5, r6, r7, r8, r9, lr}
2ffdf8b4:	b087      	sub	sp, #28
2ffdf8b6:	a801      	add	r0, sp, #4
2ffdf8b8:	f000 fdd2 	bl	2ffe0460 <fdt_get_address>
2ffdf8bc:	b918      	cbnz	r0, 2ffdf8c6 <stm32_iwdg_init+0x16>
2ffdf8be:	f7fb fd27 	bl	2ffdb310 <console_flush>
2ffdf8c2:	f7f6 ecce 	blx	2ffd6260 <do_panic>
2ffdf8c6:	4a3a      	ldr	r2, [pc, #232]	; (2ffdf9b0 <stm32_iwdg_init+0x100>)
2ffdf8c8:	f04f 31ff 	mov.w	r1, #4294967295	; 0xffffffff
2ffdf8cc:	4e39      	ldr	r6, [pc, #228]	; (2ffdf9b4 <stm32_iwdg_init+0x104>)
2ffdf8ce:	a802      	add	r0, sp, #8
2ffdf8d0:	f8df 80ec 	ldr.w	r8, [pc, #236]	; 2ffdf9c0 <stm32_iwdg_init+0x110>
2ffdf8d4:	f000 fe9e 	bl	2ffe0614 <dt_get_node>
2ffdf8d8:	ea40 75e0 	orr.w	r5, r0, r0, asr #31
2ffdf8dc:	1c6b      	adds	r3, r5, #1
2ffdf8de:	d103      	bne.n	2ffdf8e8 <stm32_iwdg_init+0x38>
2ffdf8e0:	2000      	movs	r0, #0
2ffdf8e2:	b007      	add	sp, #28
2ffdf8e4:	e8bd 83f0 	ldmia.w	sp!, {r4, r5, r6, r7, r8, r9, pc}
2ffdf8e8:	9802      	ldr	r0, [sp, #8]
2ffdf8ea:	f7fc f8d9 	bl	2ffdbaa0 <stm32_iwdg_get_instance>
2ffdf8ee:	0104      	lsls	r4, r0, #4
2ffdf8f0:	4607      	mov	r7, r0
2ffdf8f2:	9b02      	ldr	r3, [sp, #8]
2ffdf8f4:	4642      	mov	r2, r8
2ffdf8f6:	eb06 1900 	add.w	r9, r6, r0, lsl #4
2ffdf8fa:	4629      	mov	r1, r5
2ffdf8fc:	5133      	str	r3, [r6, r4]
2ffdf8fe:	9b03      	ldr	r3, [sp, #12]
2ffdf900:	9801      	ldr	r0, [sp, #4]
2ffdf902:	f8c9 3004 	str.w	r3, [r9, #4]
2ffdf906:	2300      	movs	r3, #0
2ffdf908:	f001 fbc9 	bl	2ffe109e <fdt_getprop>
2ffdf90c:	b928      	cbnz	r0, 2ffdf91a <stm32_iwdg_init+0x6a>
2ffdf90e:	f899 3008 	ldrb.w	r3, [r9, #8]
2ffdf912:	f043 0302 	orr.w	r3, r3, #2
2ffdf916:	f889 3008 	strb.w	r3, [r9, #8]
2ffdf91a:	4a27      	ldr	r2, [pc, #156]	; (2ffdf9b8 <stm32_iwdg_init+0x108>)
2ffdf91c:	2300      	movs	r3, #0
2ffdf91e:	9801      	ldr	r0, [sp, #4]
2ffdf920:	4629      	mov	r1, r5
2ffdf922:	f001 fbbc 	bl	2ffe109e <fdt_getprop>
2ffdf926:	b920      	cbnz	r0, 2ffdf932 <stm32_iwdg_init+0x82>
2ffdf928:	1932      	adds	r2, r6, r4
2ffdf92a:	7a13      	ldrb	r3, [r2, #8]
2ffdf92c:	f043 0304 	orr.w	r3, r3, #4
2ffdf930:	7213      	strb	r3, [r2, #8]
2ffdf932:	4638      	mov	r0, r7
2ffdf934:	f7fc f8c8 	bl	2ffdbac8 <stm32_iwdg_get_otp_config>
2ffdf938:	9b05      	ldr	r3, [sp, #20]
2ffdf93a:	f010 0f01 	tst.w	r0, #1
2ffdf93e:	d029      	beq.n	2ffdf994 <stm32_iwdg_init+0xe4>
2ffdf940:	b923      	cbnz	r3, 2ffdf94c <stm32_iwdg_init+0x9c>
2ffdf942:	481e      	ldr	r0, [pc, #120]	; (2ffdf9bc <stm32_iwdg_init+0x10c>)
2ffdf944:	1c79      	adds	r1, r7, #1
2ffdf946:	f7fb fc45 	bl	2ffdb1d4 <tf_log>
2ffdf94a:	e7b8      	b.n	2ffdf8be <stm32_iwdg_init+0xe>
2ffdf94c:	1932      	adds	r2, r6, r4
2ffdf94e:	7a13      	ldrb	r3, [r2, #8]
2ffdf950:	f043 0301 	orr.w	r3, r3, #1
2ffdf954:	7213      	strb	r3, [r2, #8]
2ffdf956:	0781      	lsls	r1, r0, #30
2ffdf958:	bf41      	itttt	mi
2ffdf95a:	1932      	addmi	r2, r6, r4
2ffdf95c:	7a13      	ldrbmi	r3, [r2, #8]
2ffdf95e:	f043 0302 	orrmi.w	r3, r3, #2
2ffdf962:	7213      	strbmi	r3, [r2, #8]
2ffdf964:	0742      	lsls	r2, r0, #29
2ffdf966:	bf48      	it	mi
2ffdf968:	1932      	addmi	r2, r6, r4
2ffdf96a:	4434      	add	r4, r6
2ffdf96c:	bf48      	it	mi
2ffdf96e:	7a13      	ldrbmi	r3, [r2, #8]
2ffdf970:	6860      	ldr	r0, [r4, #4]
2ffdf972:	bf44      	itt	mi
2ffdf974:	f043 0304 	orrmi.w	r3, r3, #4
2ffdf978:	7213      	strbmi	r3, [r2, #8]
2ffdf97a:	f7fe fa23 	bl	2ffdddc4 <stm32mp_clk_enable>
2ffdf97e:	6860      	ldr	r0, [r4, #4]
2ffdf980:	f7fe fa23 	bl	2ffdddca <stm32mp_clk_disable>
2ffdf984:	7a21      	ldrb	r1, [r4, #8]
2ffdf986:	4638      	mov	r0, r7
2ffdf988:	f7fc f8c6 	bl	2ffdbb18 <stm32_iwdg_shadow_update>
2ffdf98c:	b140      	cbz	r0, 2ffdf9a0 <stm32_iwdg_init+0xf0>
2ffdf98e:	f04f 30ff 	mov.w	r0, #4294967295	; 0xffffffff
2ffdf992:	e7a6      	b.n	2ffdf8e2 <stm32_iwdg_init+0x32>
2ffdf994:	2b00      	cmp	r3, #0
2ffdf996:	d1de      	bne.n	2ffdf956 <stm32_iwdg_init+0xa6>
2ffdf998:	1930      	adds	r0, r6, r4
2ffdf99a:	2110      	movs	r1, #16
2ffdf99c:	f7f6 ed60 	blx	2ffd6460 <zero_normalmem>
2ffdf9a0:	4a03      	ldr	r2, [pc, #12]	; (2ffdf9b0 <stm32_iwdg_init+0x100>)
2ffdf9a2:	4629      	mov	r1, r5
2ffdf9a4:	a802      	add	r0, sp, #8
2ffdf9a6:	f000 fe35 	bl	2ffe0614 <dt_get_node>
2ffdf9aa:	ea40 75e0 	orr.w	r5, r0, r0, asr #31
2ffdf9ae:	e795      	b.n	2ffdf8dc <stm32_iwdg_init+0x2c>
2ffdf9b0:	2ffe48ec 	.word	0x2ffe48ec
2ffdf9b4:	2ffe8000 	.word	0x2ffe8000
2ffdf9b8:	2ffe4912 	.word	0x2ffe4912
2ffdf9bc:	2ffe492a 	.word	0x2ffe492a
2ffdf9c0:	2ffe48fd 	.word	0x2ffe48fd

2ffdf9c4 <dt_get_pmic_node>:
2ffdf9c4:	b510      	push	{r4, lr}
2ffdf9c6:	4c05      	ldr	r4, [pc, #20]	; (2ffdf9dc <dt_get_pmic_node+0x18>)
2ffdf9c8:	6823      	ldr	r3, [r4, #0]
2ffdf9ca:	3304      	adds	r3, #4
2ffdf9cc:	d103      	bne.n	2ffdf9d6 <dt_get_pmic_node+0x12>
2ffdf9ce:	4804      	ldr	r0, [pc, #16]	; (2ffdf9e0 <dt_get_pmic_node+0x1c>)
2ffdf9d0:	f000 fe42 	bl	2ffe0658 <dt_get_node_by_compatible>
2ffdf9d4:	6020      	str	r0, [r4, #0]
2ffdf9d6:	6820      	ldr	r0, [r4, #0]
2ffdf9d8:	bd10      	pop	{r4, pc}
2ffdf9da:	bf00      	nop
2ffdf9dc:	2ffe62c4 	.word	0x2ffe62c4
2ffdf9e0:	2ffe494f 	.word	0x2ffe494f

2ffdf9e4 <dt_pmic_get_regulator_voltage>:
2ffdf9e4:	b5f8      	push	{r3, r4, r5, r6, r7, lr}
2ffdf9e6:	4615      	mov	r5, r2
2ffdf9e8:	4a1d      	ldr	r2, [pc, #116]	; (2ffdfa60 <dt_pmic_get_regulator_voltage+0x7c>)
2ffdf9ea:	461c      	mov	r4, r3
2ffdf9ec:	2300      	movs	r3, #0
2ffdf9ee:	4606      	mov	r6, r0
2ffdf9f0:	460f      	mov	r7, r1
2ffdf9f2:	f001 fb54 	bl	2ffe109e <fdt_getprop>
2ffdf9f6:	b910      	cbnz	r0, 2ffdf9fe <dt_pmic_get_regulator_voltage+0x1a>
2ffdf9f8:	f04f 30ff 	mov.w	r0, #4294967295	; 0xffffffff
2ffdf9fc:	bdf8      	pop	{r3, r4, r5, r6, r7, pc}
2ffdf9fe:	b185      	cbz	r5, 2ffdfa22 <dt_pmic_get_regulator_voltage+0x3e>
2ffdfa00:	6802      	ldr	r2, [r0, #0]
2ffdfa02:	0e13      	lsrs	r3, r2, #24
2ffdfa04:	f3c2 2107 	ubfx	r1, r2, #8, #8
2ffdfa08:	ea43 6302 	orr.w	r3, r3, r2, lsl #24
2ffdfa0c:	f3c2 4207 	ubfx	r2, r2, #16, #8
2ffdfa10:	ea43 4301 	orr.w	r3, r3, r1, lsl #16
2ffdfa14:	ea43 2302 	orr.w	r3, r3, r2, lsl #8
2ffdfa18:	f44f 727a 	mov.w	r2, #1000	; 0x3e8
2ffdfa1c:	fbb3 f3f2 	udiv	r3, r3, r2
2ffdfa20:	802b      	strh	r3, [r5, #0]
2ffdfa22:	4a10      	ldr	r2, [pc, #64]	; (2ffdfa64 <dt_pmic_get_regulator_voltage+0x80>)
2ffdfa24:	2300      	movs	r3, #0
2ffdfa26:	4639      	mov	r1, r7
2ffdfa28:	4630      	mov	r0, r6
2ffdfa2a:	f001 fb38 	bl	2ffe109e <fdt_getprop>
2ffdfa2e:	2800      	cmp	r0, #0
2ffdfa30:	d0e2      	beq.n	2ffdf9f8 <dt_pmic_get_regulator_voltage+0x14>
2ffdfa32:	b194      	cbz	r4, 2ffdfa5a <dt_pmic_get_regulator_voltage+0x76>
2ffdfa34:	6802      	ldr	r2, [r0, #0]
2ffdfa36:	2000      	movs	r0, #0
2ffdfa38:	0e13      	lsrs	r3, r2, #24
2ffdfa3a:	f3c2 2107 	ubfx	r1, r2, #8, #8
2ffdfa3e:	ea43 6302 	orr.w	r3, r3, r2, lsl #24
2ffdfa42:	f3c2 4207 	ubfx	r2, r2, #16, #8
2ffdfa46:	ea43 4301 	orr.w	r3, r3, r1, lsl #16
2ffdfa4a:	ea43 2302 	orr.w	r3, r3, r2, lsl #8
2ffdfa4e:	f44f 727a 	mov.w	r2, #1000	; 0x3e8
2ffdfa52:	fbb3 f3f2 	udiv	r3, r3, r2
2ffdfa56:	8023      	strh	r3, [r4, #0]
2ffdfa58:	e7d0      	b.n	2ffdf9fc <dt_pmic_get_regulator_voltage+0x18>
2ffdfa5a:	4620      	mov	r0, r4
2ffdfa5c:	e7ce      	b.n	2ffdf9fc <dt_pmic_get_regulator_voltage+0x18>
2ffdfa5e:	bf00      	nop
2ffdfa60:	2ffe495a 	.word	0x2ffe495a
2ffdfa64:	2ffe4972 	.word	0x2ffe4972

2ffdfa68 <pmic_operate>:
2ffdfa68:	e92d 4ff7 	stmdb	sp!, {r0, r1, r2, r4, r5, r6, r7, r8, r9, sl, fp, lr}
2ffdfa6c:	4606      	mov	r6, r0
2ffdfa6e:	a801      	add	r0, sp, #4
2ffdfa70:	4688      	mov	r8, r1
2ffdfa72:	4691      	mov	r9, r2
2ffdfa74:	f000 fcf4 	bl	2ffe0460 <fdt_get_address>
2ffdfa78:	b928      	cbnz	r0, 2ffdfa86 <pmic_operate+0x1e>
2ffdfa7a:	f06f 0a01 	mvn.w	sl, #1
2ffdfa7e:	4650      	mov	r0, sl
2ffdfa80:	b003      	add	sp, #12
2ffdfa82:	e8bd 8ff0 	ldmia.w	sp!, {r4, r5, r6, r7, r8, r9, sl, fp, pc}
2ffdfa86:	f7ff ff9d 	bl	2ffdf9c4 <dt_get_pmic_node>
2ffdfa8a:	1e01      	subs	r1, r0, #0
2ffdfa8c:	dbf5      	blt.n	2ffdfa7a <pmic_operate+0x12>
2ffdfa8e:	4a4f      	ldr	r2, [pc, #316]	; (2ffdfbcc <pmic_operate+0x164>)
2ffdfa90:	9801      	ldr	r0, [sp, #4]
2ffdfa92:	f001 fa82 	bl	2ffe0f9a <fdt_subnode_offset>
2ffdfa96:	1e01      	subs	r1, r0, #0
2ffdfa98:	dbef      	blt.n	2ffdfa7a <pmic_operate+0x12>
2ffdfa9a:	9801      	ldr	r0, [sp, #4]
2ffdfa9c:	f06f 0a04 	mvn.w	sl, #4
2ffdfaa0:	f8df b13c 	ldr.w	fp, [pc, #316]	; 2ffdfbe0 <pmic_operate+0x178>
2ffdfaa4:	f001 f97f 	bl	2ffe0da6 <fdt_first_subnode>
2ffdfaa8:	4604      	mov	r4, r0
2ffdfaaa:	2c00      	cmp	r4, #0
2ffdfaac:	dbe7      	blt.n	2ffdfa7e <pmic_operate+0x16>
2ffdfaae:	9801      	ldr	r0, [sp, #4]
2ffdfab0:	2200      	movs	r2, #0
2ffdfab2:	4621      	mov	r1, r4
2ffdfab4:	f001 fa02 	bl	2ffe0ebc <fdt_get_name>
2ffdfab8:	4605      	mov	r5, r0
2ffdfaba:	b126      	cbz	r6, 2ffdfac6 <pmic_operate+0x5e>
2ffdfabc:	2e01      	cmp	r6, #1
2ffdfabe:	d020      	beq.n	2ffdfb02 <pmic_operate+0x9a>
2ffdfac0:	f06f 0a15 	mvn.w	sl, #21
2ffdfac4:	e7db      	b.n	2ffdfa7e <pmic_operate+0x16>
2ffdfac6:	f1b8 0f00 	cmp.w	r8, #0
2ffdfaca:	d104      	bne.n	2ffdfad6 <pmic_operate+0x6e>
2ffdfacc:	f240 110d 	movw	r1, #269	; 0x10d
2ffdfad0:	483f      	ldr	r0, [pc, #252]	; (2ffdfbd0 <pmic_operate+0x168>)
2ffdfad2:	f001 fc81 	bl	2ffe13d8 <__assert>
2ffdfad6:	f1b9 0f00 	cmp.w	r9, #0
2ffdfada:	d102      	bne.n	2ffdfae2 <pmic_operate+0x7a>
2ffdfadc:	f44f 7187 	mov.w	r1, #270	; 0x10e
2ffdfae0:	e7f6      	b.n	2ffdfad0 <pmic_operate+0x68>
2ffdfae2:	4641      	mov	r1, r8
2ffdfae4:	f001 fe93 	bl	2ffe180e <strcmp>
2ffdfae8:	b9e0      	cbnz	r0, 2ffdfb24 <pmic_operate+0xbc>
2ffdfaea:	9801      	ldr	r0, [sp, #4]
2ffdfaec:	4633      	mov	r3, r6
2ffdfaee:	464a      	mov	r2, r9
2ffdfaf0:	4621      	mov	r1, r4
2ffdfaf2:	f7ff ff77 	bl	2ffdf9e4 <dt_pmic_get_regulator_voltage>
2ffdfaf6:	f1b0 0a00 	subs.w	sl, r0, #0
2ffdfafa:	bfb8      	it	lt
2ffdfafc:	f06f 0a05 	mvnlt.w	sl, #5
2ffdfb00:	e7bd      	b.n	2ffdfa7e <pmic_operate+0x16>
2ffdfb02:	9f01      	ldr	r7, [sp, #4]
2ffdfb04:	2300      	movs	r3, #0
2ffdfb06:	4a33      	ldr	r2, [pc, #204]	; (2ffdfbd4 <pmic_operate+0x16c>)
2ffdfb08:	4621      	mov	r1, r4
2ffdfb0a:	4638      	mov	r0, r7
2ffdfb0c:	f001 fac7 	bl	2ffe109e <fdt_getprop>
2ffdfb10:	4603      	mov	r3, r0
2ffdfb12:	b968      	cbnz	r0, 2ffdfb30 <pmic_operate+0xc8>
2ffdfb14:	4a30      	ldr	r2, [pc, #192]	; (2ffdfbd8 <pmic_operate+0x170>)
2ffdfb16:	4621      	mov	r1, r4
2ffdfb18:	4638      	mov	r0, r7
2ffdfb1a:	f001 fac0 	bl	2ffe109e <fdt_getprop>
2ffdfb1e:	b938      	cbnz	r0, 2ffdfb30 <pmic_operate+0xc8>
2ffdfb20:	f04f 0a00 	mov.w	sl, #0
2ffdfb24:	9801      	ldr	r0, [sp, #4]
2ffdfb26:	4621      	mov	r1, r4
2ffdfb28:	f001 f950 	bl	2ffe0dcc <fdt_next_subnode>
2ffdfb2c:	4604      	mov	r4, r0
2ffdfb2e:	e7bc      	b.n	2ffdfaaa <pmic_operate+0x42>
2ffdfb30:	4a2a      	ldr	r2, [pc, #168]	; (2ffdfbdc <pmic_operate+0x174>)
2ffdfb32:	2300      	movs	r3, #0
2ffdfb34:	4621      	mov	r1, r4
2ffdfb36:	4638      	mov	r0, r7
2ffdfb38:	f001 fab1 	bl	2ffe109e <fdt_getprop>
2ffdfb3c:	bb88      	cbnz	r0, 2ffdfba2 <pmic_operate+0x13a>
2ffdfb3e:	2300      	movs	r3, #0
2ffdfb40:	465a      	mov	r2, fp
2ffdfb42:	4621      	mov	r1, r4
2ffdfb44:	4638      	mov	r0, r7
2ffdfb46:	f001 faaa 	bl	2ffe109e <fdt_getprop>
2ffdfb4a:	bb88      	cbnz	r0, 2ffdfbb0 <pmic_operate+0x148>
2ffdfb4c:	f10d 0302 	add.w	r3, sp, #2
2ffdfb50:	466a      	mov	r2, sp
2ffdfb52:	4621      	mov	r1, r4
2ffdfb54:	4638      	mov	r0, r7
2ffdfb56:	f7ff ff45 	bl	2ffdf9e4 <dt_pmic_get_regulator_voltage>
2ffdfb5a:	2800      	cmp	r0, #0
2ffdfb5c:	dbe0      	blt.n	2ffdfb20 <pmic_operate+0xb8>
2ffdfb5e:	4628      	mov	r0, r5
2ffdfb60:	f000 fa56 	bl	2ffe0010 <stpmic1_regulator_voltage_get>
2ffdfb64:	f1b0 0a00 	subs.w	sl, r0, #0
2ffdfb68:	db89      	blt.n	2ffdfa7e <pmic_operate+0x16>
2ffdfb6a:	f8bd 1000 	ldrh.w	r1, [sp]
2ffdfb6e:	fa1f f08a 	uxth.w	r0, sl
2ffdfb72:	f8bd 2002 	ldrh.w	r2, [sp, #2]
2ffdfb76:	4288      	cmp	r0, r1
2ffdfb78:	bf28      	it	cs
2ffdfb7a:	2100      	movcs	r1, #0
2ffdfb7c:	4290      	cmp	r0, r2
2ffdfb7e:	bf88      	it	hi
2ffdfb80:	4611      	movhi	r1, r2
2ffdfb82:	b9e1      	cbnz	r1, 2ffdfbbe <pmic_operate+0x156>
2ffdfb84:	4628      	mov	r0, r5
2ffdfb86:	f000 fa2f 	bl	2ffdffe8 <stpmic1_is_regulator_enabled>
2ffdfb8a:	4607      	mov	r7, r0
2ffdfb8c:	2800      	cmp	r0, #0
2ffdfb8e:	d1c7      	bne.n	2ffdfb20 <pmic_operate+0xb8>
2ffdfb90:	4628      	mov	r0, r5
2ffdfb92:	f000 faba 	bl	2ffe010a <stpmic1_regulator_enable>
2ffdfb96:	f1b0 0a00 	subs.w	sl, r0, #0
2ffdfb9a:	f6ff af70 	blt.w	2ffdfa7e <pmic_operate+0x16>
2ffdfb9e:	46ba      	mov	sl, r7
2ffdfba0:	e7c0      	b.n	2ffdfb24 <pmic_operate+0xbc>
2ffdfba2:	4628      	mov	r0, r5
2ffdfba4:	f000 faea 	bl	2ffe017c <stpmic1_regulator_pull_down_set>
2ffdfba8:	f1b0 0a00 	subs.w	sl, r0, #0
2ffdfbac:	dac7      	bge.n	2ffdfb3e <pmic_operate+0xd6>
2ffdfbae:	e766      	b.n	2ffdfa7e <pmic_operate+0x16>
2ffdfbb0:	4628      	mov	r0, r5
2ffdfbb2:	f000 faf5 	bl	2ffe01a0 <stpmic1_regulator_mask_reset_set>
2ffdfbb6:	f1b0 0a00 	subs.w	sl, r0, #0
2ffdfbba:	dac7      	bge.n	2ffdfb4c <pmic_operate+0xe4>
2ffdfbbc:	e75f      	b.n	2ffdfa7e <pmic_operate+0x16>
2ffdfbbe:	4628      	mov	r0, r5
2ffdfbc0:	f000 faae 	bl	2ffe0120 <stpmic1_regulator_voltage_set>
2ffdfbc4:	f1b0 0a00 	subs.w	sl, r0, #0
2ffdfbc8:	dadc      	bge.n	2ffdfb84 <pmic_operate+0x11c>
2ffdfbca:	e758      	b.n	2ffdfa7e <pmic_operate+0x16>
2ffdfbcc:	2ffe498a 	.word	0x2ffe498a
2ffdfbd0:	2ffe4995 	.word	0x2ffe4995
2ffdfbd4:	2ffe49b4 	.word	0x2ffe49b4
2ffdfbd8:	2ffe49c6 	.word	0x2ffe49c6
2ffdfbdc:	2ffe49da 	.word	0x2ffe49da
2ffdfbe0:	2ffe49ee 	.word	0x2ffe49ee

2ffdfbe4 <dt_pmic_status>:
2ffdfbe4:	b510      	push	{r4, lr}
2ffdfbe6:	4c08      	ldr	r4, [pc, #32]	; (2ffdfc08 <dt_pmic_status+0x24>)
2ffdfbe8:	6820      	ldr	r0, [r4, #0]
2ffdfbea:	f110 0f0f 	cmn.w	r0, #15
2ffdfbee:	d106      	bne.n	2ffdfbfe <dt_pmic_status+0x1a>
2ffdfbf0:	f7ff fee8 	bl	2ffdf9c4 <dt_get_pmic_node>
2ffdfbf4:	2800      	cmp	r0, #0
2ffdfbf6:	dc03      	bgt.n	2ffdfc00 <dt_pmic_status+0x1c>
2ffdfbf8:	f04f 30ff 	mov.w	r0, #4294967295	; 0xffffffff
2ffdfbfc:	6020      	str	r0, [r4, #0]
2ffdfbfe:	bd10      	pop	{r4, pc}
2ffdfc00:	f000 fc4a 	bl	2ffe0498 <fdt_get_status>
2ffdfc04:	e7fa      	b.n	2ffdfbfc <dt_pmic_status+0x18>
2ffdfc06:	bf00      	nop
2ffdfc08:	2ffe62c8 	.word	0x2ffe62c8

2ffdfc0c <pmic_configure_boot_on_regulators>:
2ffdfc0c:	2200      	movs	r2, #0
2ffdfc0e:	2001      	movs	r0, #1
2ffdfc10:	4611      	mov	r1, r2
2ffdfc12:	f7ff bf29 	b.w	2ffdfa68 <pmic_operate>
	...

2ffdfc18 <dt_pmic_find_supply>:
2ffdfc18:	e92d 41f3 	stmdb	sp!, {r0, r1, r4, r5, r6, r7, r8, lr}
2ffdfc1c:	4606      	mov	r6, r0
2ffdfc1e:	a801      	add	r0, sp, #4
2ffdfc20:	460f      	mov	r7, r1
2ffdfc22:	f000 fc1d 	bl	2ffe0460 <fdt_get_address>
2ffdfc26:	b928      	cbnz	r0, 2ffdfc34 <dt_pmic_find_supply+0x1c>
2ffdfc28:	f04f 35ff 	mov.w	r5, #4294967295	; 0xffffffff
2ffdfc2c:	4628      	mov	r0, r5
2ffdfc2e:	b002      	add	sp, #8
2ffdfc30:	e8bd 81f0 	ldmia.w	sp!, {r4, r5, r6, r7, r8, pc}
2ffdfc34:	f7ff fec6 	bl	2ffdf9c4 <dt_get_pmic_node>
2ffdfc38:	1e01      	subs	r1, r0, #0
2ffdfc3a:	dbf5      	blt.n	2ffdfc28 <dt_pmic_find_supply+0x10>
2ffdfc3c:	4a13      	ldr	r2, [pc, #76]	; (2ffdfc8c <dt_pmic_find_supply+0x74>)
2ffdfc3e:	9801      	ldr	r0, [sp, #4]
2ffdfc40:	f001 f9ab 	bl	2ffe0f9a <fdt_subnode_offset>
2ffdfc44:	1e01      	subs	r1, r0, #0
2ffdfc46:	dbef      	blt.n	2ffdfc28 <dt_pmic_find_supply+0x10>
2ffdfc48:	9801      	ldr	r0, [sp, #4]
2ffdfc4a:	f8df 8044 	ldr.w	r8, [pc, #68]	; 2ffdfc90 <dt_pmic_find_supply+0x78>
2ffdfc4e:	f001 f8aa 	bl	2ffe0da6 <fdt_first_subnode>
2ffdfc52:	4604      	mov	r4, r0
2ffdfc54:	2c00      	cmp	r4, #0
2ffdfc56:	dbe7      	blt.n	2ffdfc28 <dt_pmic_find_supply+0x10>
2ffdfc58:	9801      	ldr	r0, [sp, #4]
2ffdfc5a:	2300      	movs	r3, #0
2ffdfc5c:	4642      	mov	r2, r8
2ffdfc5e:	4621      	mov	r1, r4
2ffdfc60:	f001 fa1d 	bl	2ffe109e <fdt_getprop>
2ffdfc64:	b158      	cbz	r0, 2ffdfc7e <dt_pmic_find_supply+0x66>
2ffdfc66:	4639      	mov	r1, r7
2ffdfc68:	f001 fdd1 	bl	2ffe180e <strcmp>
2ffdfc6c:	4605      	mov	r5, r0
2ffdfc6e:	b930      	cbnz	r0, 2ffdfc7e <dt_pmic_find_supply+0x66>
2ffdfc70:	4602      	mov	r2, r0
2ffdfc72:	4621      	mov	r1, r4
2ffdfc74:	9801      	ldr	r0, [sp, #4]
2ffdfc76:	f001 f921 	bl	2ffe0ebc <fdt_get_name>
2ffdfc7a:	6030      	str	r0, [r6, #0]
2ffdfc7c:	e7d6      	b.n	2ffdfc2c <dt_pmic_find_supply+0x14>
2ffdfc7e:	9801      	ldr	r0, [sp, #4]
2ffdfc80:	4621      	mov	r1, r4
2ffdfc82:	f001 f8a3 	bl	2ffe0dcc <fdt_next_subnode>
2ffdfc86:	4604      	mov	r4, r0
2ffdfc88:	e7e4      	b.n	2ffdfc54 <dt_pmic_find_supply+0x3c>
2ffdfc8a:	bf00      	nop
2ffdfc8c:	2ffe498a 	.word	0x2ffe498a
2ffdfc90:	2ffe49fc 	.word	0x2ffe49fc

2ffdfc94 <initialize_pmic_i2c>:
2ffdfc94:	b5f0      	push	{r4, r5, r6, r7, lr}
2ffdfc96:	b091      	sub	sp, #68	; 0x44
2ffdfc98:	4d3d      	ldr	r5, [pc, #244]	; (2ffdfd90 <initialize_pmic_i2c+0xfc>)
2ffdfc9a:	682c      	ldr	r4, [r5, #0]
2ffdfc9c:	1c63      	adds	r3, r4, #1
2ffdfc9e:	d132      	bne.n	2ffdfd06 <initialize_pmic_i2c+0x72>
2ffdfca0:	a804      	add	r0, sp, #16
2ffdfca2:	f000 fbdd 	bl	2ffe0460 <fdt_get_address>
2ffdfca6:	b318      	cbz	r0, 2ffdfcf0 <initialize_pmic_i2c+0x5c>
2ffdfca8:	f7ff fe8c 	bl	2ffdf9c4 <dt_get_pmic_node>
2ffdfcac:	1e06      	subs	r6, r0, #0
2ffdfcae:	db6d      	blt.n	2ffdfd8c <initialize_pmic_i2c+0xf8>
2ffdfcb0:	4a38      	ldr	r2, [pc, #224]	; (2ffdfd94 <initialize_pmic_i2c+0x100>)
2ffdfcb2:	2300      	movs	r3, #0
2ffdfcb4:	9804      	ldr	r0, [sp, #16]
2ffdfcb6:	4631      	mov	r1, r6
2ffdfcb8:	f001 f9f1 	bl	2ffe109e <fdt_getprop>
2ffdfcbc:	b1c0      	cbz	r0, 2ffdfcf0 <initialize_pmic_i2c+0x5c>
2ffdfcbe:	6802      	ldr	r2, [r0, #0]
2ffdfcc0:	0e13      	lsrs	r3, r2, #24
2ffdfcc2:	f3c2 2107 	ubfx	r1, r2, #8, #8
2ffdfcc6:	ea43 6302 	orr.w	r3, r3, r2, lsl #24
2ffdfcca:	f3c2 4207 	ubfx	r2, r2, #16, #8
2ffdfcce:	ea43 4301 	orr.w	r3, r3, r1, lsl #16
2ffdfcd2:	ea43 2302 	orr.w	r3, r3, r2, lsl #8
2ffdfcd6:	4a30      	ldr	r2, [pc, #192]	; (2ffdfd98 <initialize_pmic_i2c+0x104>)
2ffdfcd8:	005b      	lsls	r3, r3, #1
2ffdfcda:	6013      	str	r3, [r2, #0]
2ffdfcdc:	f5b3 3f80 	cmp.w	r3, #65536	; 0x10000
2ffdfce0:	d20e      	bcs.n	2ffdfd00 <initialize_pmic_i2c+0x6c>
2ffdfce2:	9804      	ldr	r0, [sp, #16]
2ffdfce4:	4631      	mov	r1, r6
2ffdfce6:	f001 fabc 	bl	2ffe1262 <fdt_parent_offset>
2ffdfcea:	6028      	str	r0, [r5, #0]
2ffdfcec:	2800      	cmp	r0, #0
2ffdfcee:	da0a      	bge.n	2ffdfd06 <initialize_pmic_i2c+0x72>
2ffdfcf0:	482a      	ldr	r0, [pc, #168]	; (2ffdfd9c <initialize_pmic_i2c+0x108>)
2ffdfcf2:	4621      	mov	r1, r4
2ffdfcf4:	f7fb fa6e 	bl	2ffdb1d4 <tf_log>
2ffdfcf8:	f7fb fb0a 	bl	2ffdb310 <console_flush>
2ffdfcfc:	f7f6 eab0 	blx	2ffd6260 <do_panic>
2ffdfd00:	f06f 040e 	mvn.w	r4, #14
2ffdfd04:	e7f4      	b.n	2ffdfcf0 <initialize_pmic_i2c+0x5c>
2ffdfd06:	6829      	ldr	r1, [r5, #0]
2ffdfd08:	4668      	mov	r0, sp
2ffdfd0a:	f000 fc3f 	bl	2ffe058c <dt_fill_device_info>
2ffdfd0e:	9b00      	ldr	r3, [sp, #0]
2ffdfd10:	b333      	cbz	r3, 2ffdfd60 <initialize_pmic_i2c+0xcc>
2ffdfd12:	6828      	ldr	r0, [r5, #0]
2ffdfd14:	a904      	add	r1, sp, #16
2ffdfd16:	f7ff fa97 	bl	2ffdf248 <stm32_i2c_get_setup_from_fdt>
2ffdfd1a:	1e04      	subs	r4, r0, #0
2ffdfd1c:	dbe8      	blt.n	2ffdfcf0 <initialize_pmic_i2c+0x5c>
2ffdfd1e:	d135      	bne.n	2ffdfd8c <initialize_pmic_i2c+0xf8>
2ffdfd20:	4d1f      	ldr	r5, [pc, #124]	; (2ffdfda0 <initialize_pmic_i2c+0x10c>)
2ffdfd22:	2701      	movs	r7, #1
2ffdfd24:	9b00      	ldr	r3, [sp, #0]
2ffdfd26:	a904      	add	r1, sp, #16
2ffdfd28:	4e1b      	ldr	r6, [pc, #108]	; (2ffdfd98 <initialize_pmic_i2c+0x104>)
2ffdfd2a:	4628      	mov	r0, r5
2ffdfd2c:	602b      	str	r3, [r5, #0]
2ffdfd2e:	9b03      	ldr	r3, [sp, #12]
2ffdfd30:	612c      	str	r4, [r5, #16]
2ffdfd32:	606b      	str	r3, [r5, #4]
2ffdfd34:	9b01      	ldr	r3, [sp, #4]
2ffdfd36:	9705      	str	r7, [sp, #20]
2ffdfd38:	60ab      	str	r3, [r5, #8]
2ffdfd3a:	6833      	ldr	r3, [r6, #0]
2ffdfd3c:	e9cd 4406 	strd	r4, r4, [sp, #24]
2ffdfd40:	9304      	str	r3, [sp, #16]
2ffdfd42:	e9cd 4408 	strd	r4, r4, [sp, #32]
2ffdfd46:	940a      	str	r4, [sp, #40]	; 0x28
2ffdfd48:	970e      	str	r7, [sp, #56]	; 0x38
2ffdfd4a:	f88d 403c 	strb.w	r4, [sp, #60]	; 0x3c
2ffdfd4e:	f7ff faab 	bl	2ffdf2a8 <stm32_i2c_init>
2ffdfd52:	4602      	mov	r2, r0
2ffdfd54:	b138      	cbz	r0, 2ffdfd66 <initialize_pmic_i2c+0xd2>
2ffdfd56:	6829      	ldr	r1, [r5, #0]
2ffdfd58:	4812      	ldr	r0, [pc, #72]	; (2ffdfda4 <initialize_pmic_i2c+0x110>)
2ffdfd5a:	f7fb fa3b 	bl	2ffdb1d4 <tf_log>
2ffdfd5e:	e7cb      	b.n	2ffdfcf8 <initialize_pmic_i2c+0x64>
2ffdfd60:	f04f 34ff 	mov.w	r4, #4294967295	; 0xffffffff
2ffdfd64:	e7c4      	b.n	2ffdfcf0 <initialize_pmic_i2c+0x5c>
2ffdfd66:	8831      	ldrh	r1, [r6, #0]
2ffdfd68:	2319      	movs	r3, #25
2ffdfd6a:	463a      	mov	r2, r7
2ffdfd6c:	4628      	mov	r0, r5
2ffdfd6e:	f7ff fcdb 	bl	2ffdf728 <stm32_i2c_is_device_ready>
2ffdfd72:	4604      	mov	r4, r0
2ffdfd74:	b918      	cbnz	r0, 2ffdfd7e <initialize_pmic_i2c+0xea>
2ffdfd76:	480c      	ldr	r0, [pc, #48]	; (2ffdfda8 <initialize_pmic_i2c+0x114>)
2ffdfd78:	f7fb fa2c 	bl	2ffdb1d4 <tf_log>
2ffdfd7c:	e7bc      	b.n	2ffdfcf8 <initialize_pmic_i2c+0x64>
2ffdfd7e:	8831      	ldrh	r1, [r6, #0]
2ffdfd80:	4628      	mov	r0, r5
2ffdfd82:	f000 fa1b 	bl	2ffe01bc <stpmic1_bind_i2c>
2ffdfd86:	4620      	mov	r0, r4
2ffdfd88:	b011      	add	sp, #68	; 0x44
2ffdfd8a:	bdf0      	pop	{r4, r5, r6, r7, pc}
2ffdfd8c:	2400      	movs	r4, #0
2ffdfd8e:	e7fa      	b.n	2ffdfd86 <initialize_pmic_i2c+0xf2>
2ffdfd90:	2ffe62c0 	.word	0x2ffe62c0
2ffdfd94:	2ffe2e1b 	.word	0x2ffe2e1b
2ffdfd98:	2ffe8044 	.word	0x2ffe8044
2ffdfd9c:	2ffe4a0b 	.word	0x2ffe4a0b
2ffdfda0:	2ffe8020 	.word	0x2ffe8020
2ffdfda4:	2ffe4a29 	.word	0x2ffe4a29
2ffdfda8:	2ffe4a49 	.word	0x2ffe4a49

2ffdfdac <initialize_pmic>:
2ffdfdac:	b508      	push	{r3, lr}
2ffdfdae:	f7ff ff71 	bl	2ffdfc94 <initialize_pmic_i2c>
2ffdfdb2:	b118      	cbz	r0, 2ffdfdbc <initialize_pmic+0x10>
2ffdfdb4:	e8bd 4008 	ldmia.w	sp!, {r3, lr}
2ffdfdb8:	f7ff bf14 	b.w	2ffdfbe4 <dt_pmic_status>
2ffdfdbc:	bd08      	pop	{r3, pc}

2ffdfdbe <configure_pmic>:
2ffdfdbe:	b508      	push	{r3, lr}
2ffdfdc0:	f7ff ff24 	bl	2ffdfc0c <pmic_configure_boot_on_regulators>
2ffdfdc4:	2800      	cmp	r0, #0
2ffdfdc6:	da03      	bge.n	2ffdfdd0 <configure_pmic+0x12>
2ffdfdc8:	f7fb faa2 	bl	2ffdb310 <console_flush>
2ffdfdcc:	f7f6 ea48 	blx	2ffd6260 <do_panic>
2ffdfdd0:	bd08      	pop	{r3, pc}
	...

2ffdfdd4 <print_pmic_info_and_debug>:
2ffdfdd4:	b507      	push	{r0, r1, r2, lr}
2ffdfdd6:	a801      	add	r0, sp, #4
2ffdfdd8:	f000 f9fb 	bl	2ffe01d2 <stpmic1_get_version>
2ffdfddc:	b130      	cbz	r0, 2ffdfdec <print_pmic_info_and_debug+0x18>
2ffdfdde:	4808      	ldr	r0, [pc, #32]	; (2ffdfe00 <print_pmic_info_and_debug+0x2c>)
2ffdfde0:	f7fb f9f8 	bl	2ffdb1d4 <tf_log>
2ffdfde4:	f7fb fa94 	bl	2ffdb310 <console_flush>
2ffdfde8:	f7f6 ea3a 	blx	2ffd6260 <do_panic>
2ffdfdec:	9901      	ldr	r1, [sp, #4]
2ffdfdee:	4805      	ldr	r0, [pc, #20]	; (2ffdfe04 <print_pmic_info_and_debug+0x30>)
2ffdfdf0:	f7fb f9f0 	bl	2ffdb1d4 <tf_log>
2ffdfdf4:	f000 f9ec 	bl	2ffe01d0 <stpmic1_dump_regulators>
2ffdfdf8:	b003      	add	sp, #12
2ffdfdfa:	f85d fb04 	ldr.w	pc, [sp], #4
2ffdfdfe:	bf00      	nop
2ffdfe00:	2ffe4a60 	.word	0x2ffe4a60
2ffdfe04:	2ffe4a78 	.word	0x2ffe4a78

2ffdfe08 <pmic_ddr_power_init>:
2ffdfe08:	b537      	push	{r0, r1, r2, r4, r5, lr}
2ffdfe0a:	4605      	mov	r5, r0
2ffdfe0c:	494f      	ldr	r1, [pc, #316]	; (2ffdff4c <pmic_ddr_power_init+0x144>)
2ffdfe0e:	aa01      	add	r2, sp, #4
2ffdfe10:	2000      	movs	r0, #0
2ffdfe12:	f7ff fe29 	bl	2ffdfa68 <pmic_operate>
2ffdfe16:	4604      	mov	r4, r0
2ffdfe18:	b120      	cbz	r0, 2ffdfe24 <pmic_ddr_power_init+0x1c>
2ffdfe1a:	f04f 34ff 	mov.w	r4, #4294967295	; 0xffffffff
2ffdfe1e:	4620      	mov	r0, r4
2ffdfe20:	b003      	add	sp, #12
2ffdfe22:	bd30      	pop	{r4, r5, pc}
2ffdfe24:	2d00      	cmp	r5, #0
2ffdfe26:	d054      	beq.n	2ffdfed2 <pmic_ddr_power_init+0xca>
2ffdfe28:	3d01      	subs	r5, #1
2ffdfe2a:	2d01      	cmp	r5, #1
2ffdfe2c:	d8f7      	bhi.n	2ffdfe1e <pmic_ddr_power_init+0x16>
2ffdfe2e:	f10d 0103 	add.w	r1, sp, #3
2ffdfe32:	2022      	movs	r0, #34	; 0x22
2ffdfe34:	f000 f8c4 	bl	2ffdffc0 <stpmic1_register_read>
2ffdfe38:	4604      	mov	r4, r0
2ffdfe3a:	2800      	cmp	r0, #0
2ffdfe3c:	d1ef      	bne.n	2ffdfe1e <pmic_ddr_power_init+0x16>
2ffdfe3e:	f89d 5003 	ldrb.w	r5, [sp, #3]
2ffdfe42:	f10d 0103 	add.w	r1, sp, #3
2ffdfe46:	2027      	movs	r0, #39	; 0x27
2ffdfe48:	f000 f8ba 	bl	2ffdffc0 <stpmic1_register_read>
2ffdfe4c:	4604      	mov	r4, r0
2ffdfe4e:	2800      	cmp	r0, #0
2ffdfe50:	d1e5      	bne.n	2ffdfe1e <pmic_ddr_power_init+0x16>
2ffdfe52:	f89d 3003 	ldrb.w	r3, [sp, #3]
2ffdfe56:	f005 059c 	and.w	r5, r5, #156	; 0x9c
2ffdfe5a:	2d9c      	cmp	r5, #156	; 0x9c
2ffdfe5c:	f04f 0027 	mov.w	r0, #39	; 0x27
2ffdfe60:	f003 0303 	and.w	r3, r3, #3
2ffdfe64:	bf08      	it	eq
2ffdfe66:	f063 037f 	orneq	r3, r3, #127	; 0x7f
2ffdfe6a:	f88d 3003 	strb.w	r3, [sp, #3]
2ffdfe6e:	f89d 1003 	ldrb.w	r1, [sp, #3]
2ffdfe72:	f000 f907 	bl	2ffe0084 <stpmic1_register_write>
2ffdfe76:	4604      	mov	r4, r0
2ffdfe78:	2800      	cmp	r0, #0
2ffdfe7a:	d1d0      	bne.n	2ffdfe1e <pmic_ddr_power_init+0x16>
2ffdfe7c:	4934      	ldr	r1, [pc, #208]	; (2ffdff50 <pmic_ddr_power_init+0x148>)
2ffdfe7e:	f10d 0206 	add.w	r2, sp, #6
2ffdfe82:	f7ff fdf1 	bl	2ffdfa68 <pmic_operate>
2ffdfe86:	2800      	cmp	r0, #0
2ffdfe88:	d1c7      	bne.n	2ffdfe1a <pmic_ddr_power_init+0x12>
2ffdfe8a:	f8bd 1006 	ldrh.w	r1, [sp, #6]
2ffdfe8e:	4830      	ldr	r0, [pc, #192]	; (2ffdff50 <pmic_ddr_power_init+0x148>)
2ffdfe90:	f000 f946 	bl	2ffe0120 <stpmic1_regulator_voltage_set>
2ffdfe94:	4604      	mov	r4, r0
2ffdfe96:	2800      	cmp	r0, #0
2ffdfe98:	d1c1      	bne.n	2ffdfe1e <pmic_ddr_power_init+0x16>
2ffdfe9a:	f8bd 1004 	ldrh.w	r1, [sp, #4]
2ffdfe9e:	482b      	ldr	r0, [pc, #172]	; (2ffdff4c <pmic_ddr_power_init+0x144>)
2ffdfea0:	f000 f93e 	bl	2ffe0120 <stpmic1_regulator_voltage_set>
2ffdfea4:	4604      	mov	r4, r0
2ffdfea6:	2800      	cmp	r0, #0
2ffdfea8:	d1b9      	bne.n	2ffdfe1e <pmic_ddr_power_init+0x16>
2ffdfeaa:	4829      	ldr	r0, [pc, #164]	; (2ffdff50 <pmic_ddr_power_init+0x148>)
2ffdfeac:	f000 f92d 	bl	2ffe010a <stpmic1_regulator_enable>
2ffdfeb0:	4604      	mov	r4, r0
2ffdfeb2:	2800      	cmp	r0, #0
2ffdfeb4:	d1b3      	bne.n	2ffdfe1e <pmic_ddr_power_init+0x16>
2ffdfeb6:	2001      	movs	r0, #1
2ffdfeb8:	f7fc fdf2 	bl	2ffdcaa0 <mdelay>
2ffdfebc:	4823      	ldr	r0, [pc, #140]	; (2ffdff4c <pmic_ddr_power_init+0x144>)
2ffdfebe:	f000 f924 	bl	2ffe010a <stpmic1_regulator_enable>
2ffdfec2:	4604      	mov	r4, r0
2ffdfec4:	2800      	cmp	r0, #0
2ffdfec6:	d1aa      	bne.n	2ffdfe1e <pmic_ddr_power_init+0x16>
2ffdfec8:	2001      	movs	r0, #1
2ffdfeca:	f7fc fde9 	bl	2ffdcaa0 <mdelay>
2ffdfece:	4821      	ldr	r0, [pc, #132]	; (2ffdff54 <pmic_ddr_power_init+0x14c>)
2ffdfed0:	e031      	b.n	2ffdff36 <pmic_ddr_power_init+0x12e>
2ffdfed2:	f10d 0103 	add.w	r1, sp, #3
2ffdfed6:	2027      	movs	r0, #39	; 0x27
2ffdfed8:	f000 f872 	bl	2ffdffc0 <stpmic1_register_read>
2ffdfedc:	4604      	mov	r4, r0
2ffdfede:	2800      	cmp	r0, #0
2ffdfee0:	d19d      	bne.n	2ffdfe1e <pmic_ddr_power_init+0x16>
2ffdfee2:	f89d 1003 	ldrb.w	r1, [sp, #3]
2ffdfee6:	2027      	movs	r0, #39	; 0x27
2ffdfee8:	f001 0103 	and.w	r1, r1, #3
2ffdfeec:	f041 017c 	orr.w	r1, r1, #124	; 0x7c
2ffdfef0:	f88d 1003 	strb.w	r1, [sp, #3]
2ffdfef4:	f000 f8c6 	bl	2ffe0084 <stpmic1_register_write>
2ffdfef8:	4604      	mov	r4, r0
2ffdfefa:	2800      	cmp	r0, #0
2ffdfefc:	d18f      	bne.n	2ffdfe1e <pmic_ddr_power_init+0x16>
2ffdfefe:	f8bd 1004 	ldrh.w	r1, [sp, #4]
2ffdff02:	4812      	ldr	r0, [pc, #72]	; (2ffdff4c <pmic_ddr_power_init+0x144>)
2ffdff04:	f000 f90c 	bl	2ffe0120 <stpmic1_regulator_voltage_set>
2ffdff08:	4604      	mov	r4, r0
2ffdff0a:	2800      	cmp	r0, #0
2ffdff0c:	d187      	bne.n	2ffdfe1e <pmic_ddr_power_init+0x16>
2ffdff0e:	480f      	ldr	r0, [pc, #60]	; (2ffdff4c <pmic_ddr_power_init+0x144>)
2ffdff10:	f000 f8fb 	bl	2ffe010a <stpmic1_regulator_enable>
2ffdff14:	4604      	mov	r4, r0
2ffdff16:	2800      	cmp	r0, #0
2ffdff18:	d181      	bne.n	2ffdfe1e <pmic_ddr_power_init+0x16>
2ffdff1a:	2001      	movs	r0, #1
2ffdff1c:	f7fc fdc0 	bl	2ffdcaa0 <mdelay>
2ffdff20:	480c      	ldr	r0, [pc, #48]	; (2ffdff54 <pmic_ddr_power_init+0x14c>)
2ffdff22:	f000 f8f2 	bl	2ffe010a <stpmic1_regulator_enable>
2ffdff26:	4604      	mov	r4, r0
2ffdff28:	2800      	cmp	r0, #0
2ffdff2a:	f47f af78 	bne.w	2ffdfe1e <pmic_ddr_power_init+0x16>
2ffdff2e:	2001      	movs	r0, #1
2ffdff30:	f7fc fdb6 	bl	2ffdcaa0 <mdelay>
2ffdff34:	4806      	ldr	r0, [pc, #24]	; (2ffdff50 <pmic_ddr_power_init+0x148>)
2ffdff36:	f000 f8e8 	bl	2ffe010a <stpmic1_regulator_enable>
2ffdff3a:	4604      	mov	r4, r0
2ffdff3c:	2800      	cmp	r0, #0
2ffdff3e:	f47f af6e 	bne.w	2ffdfe1e <pmic_ddr_power_init+0x16>
2ffdff42:	2001      	movs	r0, #1
2ffdff44:	f7fc fdac 	bl	2ffdcaa0 <mdelay>
2ffdff48:	e769      	b.n	2ffdfe1e <pmic_ddr_power_init+0x16>
2ffdff4a:	bf00      	nop
2ffdff4c:	2ffe4a91 	.word	0x2ffe4a91
2ffdff50:	2ffe4aa0 	.word	0x2ffe4aa0
2ffdff54:	2ffe4a97 	.word	0x2ffe4a97

2ffdff58 <get_regulator_data>:
2ffdff58:	e92d 41f0 	stmdb	sp!, {r4, r5, r6, r7, r8, lr}
2ffdff5c:	4606      	mov	r6, r0
2ffdff5e:	4c0c      	ldr	r4, [pc, #48]	; (2ffdff90 <get_regulator_data+0x38>)
2ffdff60:	2500      	movs	r5, #0
2ffdff62:	012f      	lsls	r7, r5, #4
2ffdff64:	f857 8004 	ldr.w	r8, [r7, r4]
2ffdff68:	4640      	mov	r0, r8
2ffdff6a:	f001 fc5c 	bl	2ffe1826 <strlen>
2ffdff6e:	4602      	mov	r2, r0
2ffdff70:	4641      	mov	r1, r8
2ffdff72:	4630      	mov	r0, r6
2ffdff74:	f001 fc5f 	bl	2ffe1836 <strncmp>
2ffdff78:	b910      	cbnz	r0, 2ffdff80 <get_regulator_data+0x28>
2ffdff7a:	19e0      	adds	r0, r4, r7
2ffdff7c:	e8bd 81f0 	ldmia.w	sp!, {r4, r5, r6, r7, r8, pc}
2ffdff80:	3501      	adds	r5, #1
2ffdff82:	2d0e      	cmp	r5, #14
2ffdff84:	d1ed      	bne.n	2ffdff62 <get_regulator_data+0xa>
2ffdff86:	f7fb f9c3 	bl	2ffdb310 <console_flush>
2ffdff8a:	f7f6 e96a 	blx	2ffd6260 <do_panic>
2ffdff8e:	bf00      	nop
2ffdff90:	2ffe4dc0 	.word	0x2ffe4dc0

2ffdff94 <voltage_to_index>:
2ffdff94:	b538      	push	{r3, r4, r5, lr}
2ffdff96:	460c      	mov	r4, r1
2ffdff98:	f7ff ffde 	bl	2ffdff58 <get_regulator_data>
2ffdff9c:	7a01      	ldrb	r1, [r0, #8]
2ffdff9e:	4602      	mov	r2, r0
2ffdffa0:	2300      	movs	r3, #0
2ffdffa2:	b2d8      	uxtb	r0, r3
2ffdffa4:	4281      	cmp	r1, r0
2ffdffa6:	d803      	bhi.n	2ffdffb0 <voltage_to_index+0x1c>
2ffdffa8:	f7fb f9b2 	bl	2ffdb310 <console_flush>
2ffdffac:	f7f6 e958 	blx	2ffd6260 <do_panic>
2ffdffb0:	6855      	ldr	r5, [r2, #4]
2ffdffb2:	f835 5013 	ldrh.w	r5, [r5, r3, lsl #1]
2ffdffb6:	3301      	adds	r3, #1
2ffdffb8:	42a5      	cmp	r5, r4
2ffdffba:	d1f2      	bne.n	2ffdffa2 <voltage_to_index+0xe>
2ffdffbc:	bd38      	pop	{r3, r4, r5, pc}
	...

2ffdffc0 <stpmic1_register_read>:
2ffdffc0:	b51f      	push	{r0, r1, r2, r3, r4, lr}
2ffdffc2:	2319      	movs	r3, #25
2ffdffc4:	9302      	str	r3, [sp, #8]
2ffdffc6:	2301      	movs	r3, #1
2ffdffc8:	e9cd 1300 	strd	r1, r3, [sp]
2ffdffcc:	4904      	ldr	r1, [pc, #16]	; (2ffdffe0 <stpmic1_register_read+0x20>)
2ffdffce:	4602      	mov	r2, r0
2ffdffd0:	4804      	ldr	r0, [pc, #16]	; (2ffdffe4 <stpmic1_register_read+0x24>)
2ffdffd2:	8809      	ldrh	r1, [r1, #0]
2ffdffd4:	6800      	ldr	r0, [r0, #0]
2ffdffd6:	f7ff fb9d 	bl	2ffdf714 <stm32_i2c_mem_read>
2ffdffda:	b005      	add	sp, #20
2ffdffdc:	f85d fb04 	ldr.w	pc, [sp], #4
2ffdffe0:	2ffe8054 	.word	0x2ffe8054
2ffdffe4:	2ffe8048 	.word	0x2ffe8048

2ffdffe8 <stpmic1_is_regulator_enabled>:
2ffdffe8:	b507      	push	{r0, r1, r2, lr}
2ffdffea:	f7ff ffb5 	bl	2ffdff58 <get_regulator_data>
2ffdffee:	7a40      	ldrb	r0, [r0, #9]
2ffdfff0:	f10d 0107 	add.w	r1, sp, #7
2ffdfff4:	f7ff ffe4 	bl	2ffdffc0 <stpmic1_register_read>
2ffdfff8:	b118      	cbz	r0, 2ffe0002 <stpmic1_is_regulator_enabled+0x1a>
2ffdfffa:	f7fb f989 	bl	2ffdb310 <console_flush>
2ffdfffe:	f7f6 e930 	blx	2ffd6260 <do_panic>
2ffe0002:	f89d 0007 	ldrb.w	r0, [sp, #7]
2ffe0006:	f000 0001 	and.w	r0, r0, #1
2ffe000a:	b003      	add	sp, #12
2ffe000c:	f85d fb04 	ldr.w	pc, [sp], #4

2ffe0010 <stpmic1_regulator_voltage_get>:
2ffe0010:	b537      	push	{r0, r1, r2, r4, r5, lr}
2ffe0012:	4605      	mov	r5, r0
2ffe0014:	f7ff ffa0 	bl	2ffdff58 <get_regulator_data>
2ffe0018:	4917      	ldr	r1, [pc, #92]	; (2ffe0078 <stpmic1_regulator_voltage_get+0x68>)
2ffe001a:	4604      	mov	r4, r0
2ffe001c:	2204      	movs	r2, #4
2ffe001e:	4628      	mov	r0, r5
2ffe0020:	f001 fc09 	bl	2ffe1836 <strncmp>
2ffe0024:	b328      	cbz	r0, 2ffe0072 <stpmic1_regulator_voltage_get+0x62>
2ffe0026:	4915      	ldr	r1, [pc, #84]	; (2ffe007c <stpmic1_regulator_voltage_get+0x6c>)
2ffe0028:	2203      	movs	r2, #3
2ffe002a:	4628      	mov	r0, r5
2ffe002c:	f001 fc03 	bl	2ffe1836 <strncmp>
2ffe0030:	b110      	cbz	r0, 2ffe0038 <stpmic1_regulator_voltage_get+0x28>
2ffe0032:	2000      	movs	r0, #0
2ffe0034:	b003      	add	sp, #12
2ffe0036:	bd30      	pop	{r4, r5, pc}
2ffe0038:	4911      	ldr	r1, [pc, #68]	; (2ffe0080 <stpmic1_regulator_voltage_get+0x70>)
2ffe003a:	2204      	movs	r2, #4
2ffe003c:	4628      	mov	r0, r5
2ffe003e:	f001 fbfa 	bl	2ffe1836 <strncmp>
2ffe0042:	2800      	cmp	r0, #0
2ffe0044:	d0f5      	beq.n	2ffe0032 <stpmic1_regulator_voltage_get+0x22>
2ffe0046:	257c      	movs	r5, #124	; 0x7c
2ffe0048:	7a60      	ldrb	r0, [r4, #9]
2ffe004a:	f10d 0107 	add.w	r1, sp, #7
2ffe004e:	f7ff ffb7 	bl	2ffdffc0 <stpmic1_register_read>
2ffe0052:	2800      	cmp	r0, #0
2ffe0054:	dbee      	blt.n	2ffe0034 <stpmic1_regulator_voltage_get+0x24>
2ffe0056:	f89d 3007 	ldrb.w	r3, [sp, #7]
2ffe005a:	401d      	ands	r5, r3
2ffe005c:	7a23      	ldrb	r3, [r4, #8]
2ffe005e:	08aa      	lsrs	r2, r5, #2
2ffe0060:	ebb3 0f95 	cmp.w	r3, r5, lsr #2
2ffe0064:	bf32      	itee	cc
2ffe0066:	f06f 0021 	mvncc.w	r0, #33	; 0x21
2ffe006a:	6863      	ldrcs	r3, [r4, #4]
2ffe006c:	f833 0012 	ldrhcs.w	r0, [r3, r2, lsl #1]
2ffe0070:	e7e0      	b.n	2ffe0034 <stpmic1_regulator_voltage_get+0x24>
2ffe0072:	25fc      	movs	r5, #252	; 0xfc
2ffe0074:	e7e8      	b.n	2ffe0048 <stpmic1_regulator_voltage_get+0x38>
2ffe0076:	bf00      	nop
2ffe0078:	2ffe4aa5 	.word	0x2ffe4aa5
2ffe007c:	2ffe4aaa 	.word	0x2ffe4aaa
2ffe0080:	2ffe4aae 	.word	0x2ffe4aae

2ffe0084 <stpmic1_register_write>:
2ffe0084:	b510      	push	{r4, lr}
2ffe0086:	b088      	sub	sp, #32
2ffe0088:	f10d 0217 	add.w	r2, sp, #23
2ffe008c:	2319      	movs	r3, #25
2ffe008e:	9200      	str	r2, [sp, #0]
2ffe0090:	4604      	mov	r4, r0
2ffe0092:	f88d 1017 	strb.w	r1, [sp, #23]
2ffe0096:	4602      	mov	r2, r0
2ffe0098:	490e      	ldr	r1, [pc, #56]	; (2ffe00d4 <stpmic1_register_write+0x50>)
2ffe009a:	480f      	ldr	r0, [pc, #60]	; (2ffe00d8 <stpmic1_register_write+0x54>)
2ffe009c:	9302      	str	r3, [sp, #8]
2ffe009e:	2301      	movs	r3, #1
2ffe00a0:	9301      	str	r3, [sp, #4]
2ffe00a2:	8809      	ldrh	r1, [r1, #0]
2ffe00a4:	6800      	ldr	r0, [r0, #0]
2ffe00a6:	f7ff fb27 	bl	2ffdf6f8 <stm32_i2c_mem_write>
2ffe00aa:	b988      	cbnz	r0, 2ffe00d0 <stpmic1_register_write+0x4c>
2ffe00ac:	2c1b      	cmp	r4, #27
2ffe00ae:	d00f      	beq.n	2ffe00d0 <stpmic1_register_write+0x4c>
2ffe00b0:	2c40      	cmp	r4, #64	; 0x40
2ffe00b2:	d80d      	bhi.n	2ffe00d0 <stpmic1_register_write+0x4c>
2ffe00b4:	f10d 011f 	add.w	r1, sp, #31
2ffe00b8:	4620      	mov	r0, r4
2ffe00ba:	f7ff ff81 	bl	2ffdffc0 <stpmic1_register_read>
2ffe00be:	b938      	cbnz	r0, 2ffe00d0 <stpmic1_register_write+0x4c>
2ffe00c0:	f89d 201f 	ldrb.w	r2, [sp, #31]
2ffe00c4:	f89d 3017 	ldrb.w	r3, [sp, #23]
2ffe00c8:	429a      	cmp	r2, r3
2ffe00ca:	bf18      	it	ne
2ffe00cc:	f06f 0004 	mvnne.w	r0, #4
2ffe00d0:	b008      	add	sp, #32
2ffe00d2:	bd10      	pop	{r4, pc}
2ffe00d4:	2ffe8054 	.word	0x2ffe8054
2ffe00d8:	2ffe8048 	.word	0x2ffe8048

2ffe00dc <stpmic1_register_update>:
2ffe00dc:	b573      	push	{r0, r1, r4, r5, r6, lr}
2ffe00de:	460e      	mov	r6, r1
2ffe00e0:	f10d 0107 	add.w	r1, sp, #7
2ffe00e4:	4605      	mov	r5, r0
2ffe00e6:	4614      	mov	r4, r2
2ffe00e8:	f7ff ff6a 	bl	2ffdffc0 <stpmic1_register_read>
2ffe00ec:	b958      	cbnz	r0, 2ffe0106 <stpmic1_register_update+0x2a>
2ffe00ee:	f89d 3007 	ldrb.w	r3, [sp, #7]
2ffe00f2:	4628      	mov	r0, r5
2ffe00f4:	ea04 0106 	and.w	r1, r4, r6
2ffe00f8:	ea23 0304 	bic.w	r3, r3, r4
2ffe00fc:	4319      	orrs	r1, r3
2ffe00fe:	f88d 1007 	strb.w	r1, [sp, #7]
2ffe0102:	f7ff ffbf 	bl	2ffe0084 <stpmic1_register_write>
2ffe0106:	b002      	add	sp, #8
2ffe0108:	bd70      	pop	{r4, r5, r6, pc}

2ffe010a <stpmic1_regulator_enable>:
2ffe010a:	b508      	push	{r3, lr}
2ffe010c:	f7ff ff24 	bl	2ffdff58 <get_regulator_data>
2ffe0110:	7a40      	ldrb	r0, [r0, #9]
2ffe0112:	2201      	movs	r2, #1
2ffe0114:	e8bd 4008 	ldmia.w	sp!, {r3, lr}
2ffe0118:	4611      	mov	r1, r2
2ffe011a:	f7ff bfdf 	b.w	2ffe00dc <stpmic1_register_update>
	...

2ffe0120 <stpmic1_regulator_voltage_set>:
2ffe0120:	b570      	push	{r4, r5, r6, lr}
2ffe0122:	4604      	mov	r4, r0
2ffe0124:	f7ff ff36 	bl	2ffdff94 <voltage_to_index>
2ffe0128:	4605      	mov	r5, r0
2ffe012a:	4620      	mov	r0, r4
2ffe012c:	f7ff ff14 	bl	2ffdff58 <get_regulator_data>
2ffe0130:	490f      	ldr	r1, [pc, #60]	; (2ffe0170 <stpmic1_regulator_voltage_set+0x50>)
2ffe0132:	4606      	mov	r6, r0
2ffe0134:	2204      	movs	r2, #4
2ffe0136:	4620      	mov	r0, r4
2ffe0138:	f001 fb7d 	bl	2ffe1836 <strncmp>
2ffe013c:	b1a0      	cbz	r0, 2ffe0168 <stpmic1_regulator_voltage_set+0x48>
2ffe013e:	490d      	ldr	r1, [pc, #52]	; (2ffe0174 <stpmic1_regulator_voltage_set+0x54>)
2ffe0140:	2203      	movs	r2, #3
2ffe0142:	4620      	mov	r0, r4
2ffe0144:	f001 fb77 	bl	2ffe1836 <strncmp>
2ffe0148:	b980      	cbnz	r0, 2ffe016c <stpmic1_regulator_voltage_set+0x4c>
2ffe014a:	490b      	ldr	r1, [pc, #44]	; (2ffe0178 <stpmic1_regulator_voltage_set+0x58>)
2ffe014c:	2204      	movs	r2, #4
2ffe014e:	4620      	mov	r0, r4
2ffe0150:	f001 fb71 	bl	2ffe1836 <strncmp>
2ffe0154:	b150      	cbz	r0, 2ffe016c <stpmic1_regulator_voltage_set+0x4c>
2ffe0156:	227c      	movs	r2, #124	; 0x7c
2ffe0158:	00a9      	lsls	r1, r5, #2
2ffe015a:	7a70      	ldrb	r0, [r6, #9]
2ffe015c:	f001 01fc 	and.w	r1, r1, #252	; 0xfc
2ffe0160:	e8bd 4070 	ldmia.w	sp!, {r4, r5, r6, lr}
2ffe0164:	f7ff bfba 	b.w	2ffe00dc <stpmic1_register_update>
2ffe0168:	22fc      	movs	r2, #252	; 0xfc
2ffe016a:	e7f5      	b.n	2ffe0158 <stpmic1_regulator_voltage_set+0x38>
2ffe016c:	2000      	movs	r0, #0
2ffe016e:	bd70      	pop	{r4, r5, r6, pc}
2ffe0170:	2ffe4aa5 	.word	0x2ffe4aa5
2ffe0174:	2ffe4aaa 	.word	0x2ffe4aaa
2ffe0178:	2ffe4aae 	.word	0x2ffe4aae

2ffe017c <stpmic1_regulator_pull_down_set>:
2ffe017c:	b508      	push	{r3, lr}
2ffe017e:	f7ff feeb 	bl	2ffdff58 <get_regulator_data>
2ffe0182:	4603      	mov	r3, r0
2ffe0184:	7ac0      	ldrb	r0, [r0, #11]
2ffe0186:	b150      	cbz	r0, 2ffe019e <stpmic1_regulator_pull_down_set+0x22>
2ffe0188:	7b1b      	ldrb	r3, [r3, #12]
2ffe018a:	2203      	movs	r2, #3
2ffe018c:	2101      	movs	r1, #1
2ffe018e:	409a      	lsls	r2, r3
2ffe0190:	4099      	lsls	r1, r3
2ffe0192:	b2d2      	uxtb	r2, r2
2ffe0194:	e8bd 4008 	ldmia.w	sp!, {r3, lr}
2ffe0198:	b2c9      	uxtb	r1, r1
2ffe019a:	f7ff bf9f 	b.w	2ffe00dc <stpmic1_register_update>
2ffe019e:	bd08      	pop	{r3, pc}

2ffe01a0 <stpmic1_regulator_mask_reset_set>:
2ffe01a0:	b508      	push	{r3, lr}
2ffe01a2:	f7ff fed9 	bl	2ffdff58 <get_regulator_data>
2ffe01a6:	7b83      	ldrb	r3, [r0, #14]
2ffe01a8:	2201      	movs	r2, #1
2ffe01aa:	7b40      	ldrb	r0, [r0, #13]
2ffe01ac:	409a      	lsls	r2, r3
2ffe01ae:	b2d2      	uxtb	r2, r2
2ffe01b0:	e8bd 4008 	ldmia.w	sp!, {r3, lr}
2ffe01b4:	4611      	mov	r1, r2
2ffe01b6:	f7ff bf91 	b.w	2ffe00dc <stpmic1_register_update>
	...

2ffe01bc <stpmic1_bind_i2c>:
2ffe01bc:	4b02      	ldr	r3, [pc, #8]	; (2ffe01c8 <stpmic1_bind_i2c+0xc>)
2ffe01be:	6018      	str	r0, [r3, #0]
2ffe01c0:	4b02      	ldr	r3, [pc, #8]	; (2ffe01cc <stpmic1_bind_i2c+0x10>)
2ffe01c2:	8019      	strh	r1, [r3, #0]
2ffe01c4:	4770      	bx	lr
2ffe01c6:	bf00      	nop
2ffe01c8:	2ffe8048 	.word	0x2ffe8048
2ffe01cc:	2ffe8054 	.word	0x2ffe8054

2ffe01d0 <stpmic1_dump_regulators>:
2ffe01d0:	4770      	bx	lr

2ffe01d2 <stpmic1_get_version>:
2ffe01d2:	b513      	push	{r0, r1, r4, lr}
2ffe01d4:	4604      	mov	r4, r0
2ffe01d6:	f10d 0107 	add.w	r1, sp, #7
2ffe01da:	2006      	movs	r0, #6
2ffe01dc:	f7ff fef0 	bl	2ffdffc0 <stpmic1_register_read>
2ffe01e0:	2800      	cmp	r0, #0
2ffe01e2:	bfa2      	ittt	ge
2ffe01e4:	2000      	movge	r0, #0
2ffe01e6:	f89d 3007 	ldrbge.w	r3, [sp, #7]
2ffe01ea:	6023      	strge	r3, [r4, #0]
2ffe01ec:	b002      	add	sp, #8
2ffe01ee:	bd10      	pop	{r4, pc}

2ffe01f0 <stm32mp_reset_assert_to>:
2ffe01f0:	e92d 4ff7 	stmdb	sp!, {r0, r1, r2, r4, r5, r6, r7, r8, r9, sl, fp, lr}
2ffe01f4:	f000 031f 	and.w	r3, r0, #31
2ffe01f8:	9101      	str	r1, [sp, #4]
2ffe01fa:	4604      	mov	r4, r0
2ffe01fc:	2501      	movs	r5, #1
2ffe01fe:	0964      	lsrs	r4, r4, #5
2ffe0200:	409d      	lsls	r5, r3
2ffe0202:	f7fb f9b7 	bl	2ffdb574 <stm32mp_rcc_base>
2ffe0206:	9901      	ldr	r1, [sp, #4]
2ffe0208:	4682      	mov	sl, r0
2ffe020a:	eb00 0b84 	add.w	fp, r0, r4, lsl #2
2ffe020e:	f840 5024 	str.w	r5, [r0, r4, lsl #2]
2ffe0212:	b309      	cbz	r1, 2ffe0258 <stm32mp_reset_assert_to+0x68>
2ffe0214:	ee1e 0f10 	mrc	15, 0, r0, cr14, cr0, {0}
2ffe0218:	ec57 6f0e 	mrrc	15, 0, r6, r7, cr14
2ffe021c:	4a0f      	ldr	r2, [pc, #60]	; (2ffe025c <stm32mp_reset_assert_to+0x6c>)
2ffe021e:	2300      	movs	r3, #0
2ffe0220:	fba1 0100 	umull	r0, r1, r1, r0
2ffe0224:	f000 eca2 	blx	2ffe0b6c <__aeabi_uldivmod>
2ffe0228:	eb10 0806 	adds.w	r8, r0, r6
2ffe022c:	eb41 0907 	adc.w	r9, r1, r7
2ffe0230:	f8db 3000 	ldr.w	r3, [fp]
2ffe0234:	421d      	tst	r5, r3
2ffe0236:	d105      	bne.n	2ffe0244 <stm32mp_reset_assert_to+0x54>
2ffe0238:	ec53 2f0e 	mrrc	15, 0, r2, r3, cr14
2ffe023c:	4599      	cmp	r9, r3
2ffe023e:	bf08      	it	eq
2ffe0240:	4590      	cmpeq	r8, r2
2ffe0242:	d2f5      	bcs.n	2ffe0230 <stm32mp_reset_assert_to+0x40>
2ffe0244:	f85a 3024 	ldr.w	r3, [sl, r4, lsl #2]
2ffe0248:	421d      	tst	r5, r3
2ffe024a:	bf14      	ite	ne
2ffe024c:	2000      	movne	r0, #0
2ffe024e:	f06f 003b 	mvneq.w	r0, #59	; 0x3b
2ffe0252:	b003      	add	sp, #12
2ffe0254:	e8bd 8ff0 	ldmia.w	sp!, {r4, r5, r6, r7, r8, r9, sl, fp, pc}
2ffe0258:	4608      	mov	r0, r1
2ffe025a:	e7fa      	b.n	2ffe0252 <stm32mp_reset_assert_to+0x62>
2ffe025c:	000f4240 	.word	0x000f4240

2ffe0260 <stm32mp_reset_deassert_to>:
2ffe0260:	e92d 4ff7 	stmdb	sp!, {r0, r1, r2, r4, r5, r6, r7, r8, r9, sl, fp, lr}
2ffe0264:	4604      	mov	r4, r0
2ffe0266:	9101      	str	r1, [sp, #4]
2ffe0268:	f000 031f 	and.w	r3, r0, #31
2ffe026c:	0964      	lsrs	r4, r4, #5
2ffe026e:	2501      	movs	r5, #1
2ffe0270:	3401      	adds	r4, #1
2ffe0272:	409d      	lsls	r5, r3
2ffe0274:	f7fb f97e 	bl	2ffdb574 <stm32mp_rcc_base>
2ffe0278:	9901      	ldr	r1, [sp, #4]
2ffe027a:	4682      	mov	sl, r0
2ffe027c:	eb00 0b84 	add.w	fp, r0, r4, lsl #2
2ffe0280:	f840 5024 	str.w	r5, [r0, r4, lsl #2]
2ffe0284:	b309      	cbz	r1, 2ffe02ca <stm32mp_reset_deassert_to+0x6a>
2ffe0286:	ee1e 0f10 	mrc	15, 0, r0, cr14, cr0, {0}
2ffe028a:	ec57 6f0e 	mrrc	15, 0, r6, r7, cr14
2ffe028e:	4a10      	ldr	r2, [pc, #64]	; (2ffe02d0 <stm32mp_reset_deassert_to+0x70>)
2ffe0290:	2300      	movs	r3, #0
2ffe0292:	fba1 0100 	umull	r0, r1, r1, r0
2ffe0296:	f000 ec6a 	blx	2ffe0b6c <__aeabi_uldivmod>
2ffe029a:	eb10 0806 	adds.w	r8, r0, r6
2ffe029e:	eb41 0907 	adc.w	r9, r1, r7
2ffe02a2:	f8db 3000 	ldr.w	r3, [fp]
2ffe02a6:	421d      	tst	r5, r3
2ffe02a8:	d005      	beq.n	2ffe02b6 <stm32mp_reset_deassert_to+0x56>
2ffe02aa:	ec53 2f0e 	mrrc	15, 0, r2, r3, cr14
2ffe02ae:	4599      	cmp	r9, r3
2ffe02b0:	bf08      	it	eq
2ffe02b2:	4590      	cmpeq	r8, r2
2ffe02b4:	d2f5      	bcs.n	2ffe02a2 <stm32mp_reset_deassert_to+0x42>
2ffe02b6:	f85a 3024 	ldr.w	r3, [sl, r4, lsl #2]
2ffe02ba:	421d      	tst	r5, r3
2ffe02bc:	bf0c      	ite	eq
2ffe02be:	2000      	moveq	r0, #0
2ffe02c0:	f06f 003b 	mvnne.w	r0, #59	; 0x3b
2ffe02c4:	b003      	add	sp, #12
2ffe02c6:	e8bd 8ff0 	ldmia.w	sp!, {r4, r5, r6, r7, r8, r9, sl, fp, pc}
2ffe02ca:	4608      	mov	r0, r1
2ffe02cc:	e7fa      	b.n	2ffe02c4 <stm32mp_reset_deassert_to+0x64>
2ffe02ce:	bf00      	nop
2ffe02d0:	000f4240 	.word	0x000f4240

2ffe02d4 <fdt32_to_cpu>:
2ffe02d4:	ba00      	rev	r0, r0
2ffe02d6:	4770      	bx	lr

2ffe02d8 <fdt_get_node_parent_address_cells>:
2ffe02d8:	4601      	mov	r1, r0
2ffe02da:	b508      	push	{r3, lr}
2ffe02dc:	4806      	ldr	r0, [pc, #24]	; (2ffe02f8 <fdt_get_node_parent_address_cells+0x20>)
2ffe02de:	f000 ffc0 	bl	2ffe1262 <fdt_parent_offset>
2ffe02e2:	1e01      	subs	r1, r0, #0
2ffe02e4:	db04      	blt.n	2ffe02f0 <fdt_get_node_parent_address_cells+0x18>
2ffe02e6:	e8bd 4008 	ldmia.w	sp!, {r3, lr}
2ffe02ea:	4803      	ldr	r0, [pc, #12]	; (2ffe02f8 <fdt_get_node_parent_address_cells+0x20>)
2ffe02ec:	f000 bd84 	b.w	2ffe0df8 <fdt_address_cells>
2ffe02f0:	f04f 30ff 	mov.w	r0, #4294967295	; 0xffffffff
2ffe02f4:	bd08      	pop	{r3, pc}
2ffe02f6:	bf00      	nop
2ffe02f8:	2ffcb000 	.word	0x2ffcb000

2ffe02fc <dt_get_stdout_node_offset>:
2ffe02fc:	4919      	ldr	r1, [pc, #100]	; (2ffe0364 <dt_get_stdout_node_offset+0x68>)
2ffe02fe:	481a      	ldr	r0, [pc, #104]	; (2ffe0368 <dt_get_stdout_node_offset+0x6c>)
2ffe0300:	b570      	push	{r4, r5, r6, lr}
2ffe0302:	f000 ff5e 	bl	2ffe11c2 <fdt_path_offset>
2ffe0306:	1e01      	subs	r1, r0, #0
2ffe0308:	da05      	bge.n	2ffe0316 <dt_get_stdout_node_offset+0x1a>
2ffe030a:	4918      	ldr	r1, [pc, #96]	; (2ffe036c <dt_get_stdout_node_offset+0x70>)
2ffe030c:	4816      	ldr	r0, [pc, #88]	; (2ffe0368 <dt_get_stdout_node_offset+0x6c>)
2ffe030e:	f000 ff58 	bl	2ffe11c2 <fdt_path_offset>
2ffe0312:	1e01      	subs	r1, r0, #0
2ffe0314:	db23      	blt.n	2ffe035e <dt_get_stdout_node_offset+0x62>
2ffe0316:	4a16      	ldr	r2, [pc, #88]	; (2ffe0370 <dt_get_stdout_node_offset+0x74>)
2ffe0318:	2300      	movs	r3, #0
2ffe031a:	4813      	ldr	r0, [pc, #76]	; (2ffe0368 <dt_get_stdout_node_offset+0x6c>)
2ffe031c:	f000 febf 	bl	2ffe109e <fdt_getprop>
2ffe0320:	4604      	mov	r4, r0
2ffe0322:	b1e0      	cbz	r0, 2ffe035e <dt_get_stdout_node_offset+0x62>
2ffe0324:	213a      	movs	r1, #58	; 0x3a
2ffe0326:	f001 fa67 	bl	2ffe17f8 <strchr>
2ffe032a:	b9a8      	cbnz	r0, 2ffe0358 <dt_get_stdout_node_offset+0x5c>
2ffe032c:	4621      	mov	r1, r4
2ffe032e:	e00e      	b.n	2ffe034e <dt_get_stdout_node_offset+0x52>
2ffe0330:	3501      	adds	r5, #1
2ffe0332:	1961      	adds	r1, r4, r5
2ffe0334:	2201      	movs	r2, #1
2ffe0336:	4630      	mov	r0, r6
2ffe0338:	f001 fa7d 	bl	2ffe1836 <strncmp>
2ffe033c:	2800      	cmp	r0, #0
2ffe033e:	d1f7      	bne.n	2ffe0330 <dt_get_stdout_node_offset+0x34>
2ffe0340:	4809      	ldr	r0, [pc, #36]	; (2ffe0368 <dt_get_stdout_node_offset+0x6c>)
2ffe0342:	4621      	mov	r1, r4
2ffe0344:	462a      	mov	r2, r5
2ffe0346:	f000 fedd 	bl	2ffe1104 <fdt_get_alias_namelen>
2ffe034a:	4601      	mov	r1, r0
2ffe034c:	b138      	cbz	r0, 2ffe035e <dt_get_stdout_node_offset+0x62>
2ffe034e:	e8bd 4070 	ldmia.w	sp!, {r4, r5, r6, lr}
2ffe0352:	4805      	ldr	r0, [pc, #20]	; (2ffe0368 <dt_get_stdout_node_offset+0x6c>)
2ffe0354:	f000 bf35 	b.w	2ffe11c2 <fdt_path_offset>
2ffe0358:	4e06      	ldr	r6, [pc, #24]	; (2ffe0374 <dt_get_stdout_node_offset+0x78>)
2ffe035a:	2500      	movs	r5, #0
2ffe035c:	e7e9      	b.n	2ffe0332 <dt_get_stdout_node_offset+0x36>
2ffe035e:	f04f 30ff 	mov.w	r0, #4294967295	; 0xffffffff
2ffe0362:	bd70      	pop	{r4, r5, r6, pc}
2ffe0364:	2ffe4ea2 	.word	0x2ffe4ea2
2ffe0368:	2ffcb000 	.word	0x2ffcb000
2ffe036c:	2ffe4eb1 	.word	0x2ffe4eb1
2ffe0370:	2ffe4eb9 	.word	0x2ffe4eb9
2ffe0374:	2ffe4ec5 	.word	0x2ffe4ec5

2ffe0378 <dt_get_opp_freqvolt_from_subnode>:
2ffe0378:	e92d 43f8 	stmdb	sp!, {r3, r4, r5, r6, r7, r8, r9, lr}
2ffe037c:	4604      	mov	r4, r0
2ffe037e:	4688      	mov	r8, r1
2ffe0380:	4615      	mov	r5, r2
2ffe0382:	4a2c      	ldr	r2, [pc, #176]	; (2ffe0434 <dt_get_opp_freqvolt_from_subnode+0xbc>)
2ffe0384:	4601      	mov	r1, r0
2ffe0386:	482c      	ldr	r0, [pc, #176]	; (2ffe0438 <dt_get_opp_freqvolt_from_subnode+0xc0>)
2ffe0388:	2300      	movs	r3, #0
2ffe038a:	f000 fe88 	bl	2ffe109e <fdt_getprop>
2ffe038e:	b948      	cbnz	r0, 2ffe03a4 <dt_get_opp_freqvolt_from_subnode+0x2c>
2ffe0390:	4a2a      	ldr	r2, [pc, #168]	; (2ffe043c <dt_get_opp_freqvolt_from_subnode+0xc4>)
2ffe0392:	2300      	movs	r3, #0
2ffe0394:	4828      	ldr	r0, [pc, #160]	; (2ffe0438 <dt_get_opp_freqvolt_from_subnode+0xc0>)
2ffe0396:	4621      	mov	r1, r4
2ffe0398:	f000 fe81 	bl	2ffe109e <fdt_getprop>
2ffe039c:	b968      	cbnz	r0, 2ffe03ba <dt_get_opp_freqvolt_from_subnode+0x42>
2ffe039e:	f04f 30ff 	mov.w	r0, #4294967295	; 0xffffffff
2ffe03a2:	e008      	b.n	2ffe03b6 <dt_get_opp_freqvolt_from_subnode+0x3e>
2ffe03a4:	6800      	ldr	r0, [r0, #0]
2ffe03a6:	f7ff ff95 	bl	2ffe02d4 <fdt32_to_cpu>
2ffe03aa:	f7fb fa53 	bl	2ffdb854 <stm32mp_supports_cpu_opp>
2ffe03ae:	2800      	cmp	r0, #0
2ffe03b0:	d1ee      	bne.n	2ffe0390 <dt_get_opp_freqvolt_from_subnode+0x18>
2ffe03b2:	f06f 000e 	mvn.w	r0, #14
2ffe03b6:	e8bd 83f8 	ldmia.w	sp!, {r3, r4, r5, r6, r7, r8, r9, pc}
2ffe03ba:	e9d0 0300 	ldrd	r0, r3, [r0]
2ffe03be:	0202      	lsls	r2, r0, #8
2ffe03c0:	0a06      	lsrs	r6, r0, #8
2ffe03c2:	f402 027f 	and.w	r2, r2, #16711680	; 0xff0000
2ffe03c6:	ea42 6200 	orr.w	r2, r2, r0, lsl #24
2ffe03ca:	f406 467f 	and.w	r6, r6, #65280	; 0xff00
2ffe03ce:	4332      	orrs	r2, r6
2ffe03d0:	0e19      	lsrs	r1, r3, #24
2ffe03d2:	021e      	lsls	r6, r3, #8
2ffe03d4:	ea41 6103 	orr.w	r1, r1, r3, lsl #24
2ffe03d8:	f406 067f 	and.w	r6, r6, #16711680	; 0xff0000
2ffe03dc:	0a1b      	lsrs	r3, r3, #8
2ffe03de:	4331      	orrs	r1, r6
2ffe03e0:	f403 437f 	and.w	r3, r3, #65280	; 0xff00
2ffe03e4:	ea41 0603 	orr.w	r6, r1, r3
2ffe03e8:	2300      	movs	r3, #0
2ffe03ea:	ea42 6710 	orr.w	r7, r2, r0, lsr #24
2ffe03ee:	f44f 727a 	mov.w	r2, #1000	; 0x3e8
2ffe03f2:	4630      	mov	r0, r6
2ffe03f4:	4639      	mov	r1, r7
2ffe03f6:	f000 ebba 	blx	2ffe0b6c <__aeabi_uldivmod>
2ffe03fa:	f5b7 7f7a 	cmp.w	r7, #1000	; 0x3e8
2ffe03fe:	4681      	mov	r9, r0
2ffe0400:	bf08      	it	eq
2ffe0402:	2e00      	cmpeq	r6, #0
2ffe0404:	d2d5      	bcs.n	2ffe03b2 <dt_get_opp_freqvolt_from_subnode+0x3a>
2ffe0406:	4a0e      	ldr	r2, [pc, #56]	; (2ffe0440 <dt_get_opp_freqvolt_from_subnode+0xc8>)
2ffe0408:	2300      	movs	r3, #0
2ffe040a:	480b      	ldr	r0, [pc, #44]	; (2ffe0438 <dt_get_opp_freqvolt_from_subnode+0xc0>)
2ffe040c:	4621      	mov	r1, r4
2ffe040e:	f000 fe46 	bl	2ffe109e <fdt_getprop>
2ffe0412:	2800      	cmp	r0, #0
2ffe0414:	d0c3      	beq.n	2ffe039e <dt_get_opp_freqvolt_from_subnode+0x26>
2ffe0416:	6800      	ldr	r0, [r0, #0]
2ffe0418:	f7ff ff5c 	bl	2ffe02d4 <fdt32_to_cpu>
2ffe041c:	f1b0 7f7a 	cmp.w	r0, #65536000	; 0x3e80000
2ffe0420:	f44f 737a 	mov.w	r3, #1000	; 0x3e8
2ffe0424:	fbb0 f3f3 	udiv	r3, r0, r3
2ffe0428:	d2c3      	bcs.n	2ffe03b2 <dt_get_opp_freqvolt_from_subnode+0x3a>
2ffe042a:	f8c8 9000 	str.w	r9, [r8]
2ffe042e:	2000      	movs	r0, #0
2ffe0430:	602b      	str	r3, [r5, #0]
2ffe0432:	e7c0      	b.n	2ffe03b6 <dt_get_opp_freqvolt_from_subnode+0x3e>
2ffe0434:	2ffe4ec7 	.word	0x2ffe4ec7
2ffe0438:	2ffcb000 	.word	0x2ffcb000
2ffe043c:	2ffe4ed8 	.word	0x2ffe4ed8
2ffe0440:	2ffe4edf 	.word	0x2ffe4edf

2ffe0444 <dt_open_and_check>:
2ffe0444:	b508      	push	{r3, lr}
2ffe0446:	4804      	ldr	r0, [pc, #16]	; (2ffe0458 <dt_open_and_check+0x14>)
2ffe0448:	f000 fba4 	bl	2ffe0b94 <fdt_check_header>
2ffe044c:	b910      	cbnz	r0, 2ffe0454 <dt_open_and_check+0x10>
2ffe044e:	4b03      	ldr	r3, [pc, #12]	; (2ffe045c <dt_open_and_check+0x18>)
2ffe0450:	2201      	movs	r2, #1
2ffe0452:	601a      	str	r2, [r3, #0]
2ffe0454:	bd08      	pop	{r3, pc}
2ffe0456:	bf00      	nop
2ffe0458:	2ffcb000 	.word	0x2ffcb000
2ffe045c:	2ffe804c 	.word	0x2ffe804c

2ffe0460 <fdt_get_address>:
2ffe0460:	4a03      	ldr	r2, [pc, #12]	; (2ffe0470 <fdt_get_address+0x10>)
2ffe0462:	4603      	mov	r3, r0
2ffe0464:	6810      	ldr	r0, [r2, #0]
2ffe0466:	2801      	cmp	r0, #1
2ffe0468:	bf04      	itt	eq
2ffe046a:	4a02      	ldreq	r2, [pc, #8]	; (2ffe0474 <fdt_get_address+0x14>)
2ffe046c:	601a      	streq	r2, [r3, #0]
2ffe046e:	4770      	bx	lr
2ffe0470:	2ffe804c 	.word	0x2ffe804c
2ffe0474:	2ffcb000 	.word	0x2ffcb000

2ffe0478 <fdt_check_node>:
2ffe0478:	b507      	push	{r0, r1, r2, lr}
2ffe047a:	4601      	mov	r1, r0
2ffe047c:	4805      	ldr	r0, [pc, #20]	; (2ffe0494 <fdt_check_node+0x1c>)
2ffe047e:	aa01      	add	r2, sp, #4
2ffe0480:	f000 fd1c 	bl	2ffe0ebc <fdt_get_name>
2ffe0484:	b110      	cbz	r0, 2ffe048c <fdt_check_node+0x14>
2ffe0486:	9801      	ldr	r0, [sp, #4]
2ffe0488:	43c0      	mvns	r0, r0
2ffe048a:	0fc0      	lsrs	r0, r0, #31
2ffe048c:	b003      	add	sp, #12
2ffe048e:	f85d fb04 	ldr.w	pc, [sp], #4
2ffe0492:	bf00      	nop
2ffe0494:	2ffcb000 	.word	0x2ffcb000

2ffe0498 <fdt_get_status>:
2ffe0498:	b537      	push	{r0, r1, r2, r4, r5, lr}
2ffe049a:	4605      	mov	r5, r0
2ffe049c:	4a13      	ldr	r2, [pc, #76]	; (2ffe04ec <fdt_get_status+0x54>)
2ffe049e:	4601      	mov	r1, r0
2ffe04a0:	4813      	ldr	r0, [pc, #76]	; (2ffe04f0 <fdt_get_status+0x58>)
2ffe04a2:	ab01      	add	r3, sp, #4
2ffe04a4:	f000 fdfb 	bl	2ffe109e <fdt_getprop>
2ffe04a8:	b198      	cbz	r0, 2ffe04d2 <fdt_get_status+0x3a>
2ffe04aa:	9a01      	ldr	r2, [sp, #4]
2ffe04ac:	4911      	ldr	r1, [pc, #68]	; (2ffe04f4 <fdt_get_status+0x5c>)
2ffe04ae:	f001 f9c2 	bl	2ffe1836 <strncmp>
2ffe04b2:	fab0 f480 	clz	r4, r0
2ffe04b6:	0964      	lsrs	r4, r4, #5
2ffe04b8:	4a0f      	ldr	r2, [pc, #60]	; (2ffe04f8 <fdt_get_status+0x60>)
2ffe04ba:	ab01      	add	r3, sp, #4
2ffe04bc:	480c      	ldr	r0, [pc, #48]	; (2ffe04f0 <fdt_get_status+0x58>)
2ffe04be:	4629      	mov	r1, r5
2ffe04c0:	f000 fded 	bl	2ffe109e <fdt_getprop>
2ffe04c4:	b938      	cbnz	r0, 2ffe04d6 <fdt_get_status+0x3e>
2ffe04c6:	2c01      	cmp	r4, #1
2ffe04c8:	bf08      	it	eq
2ffe04ca:	2403      	moveq	r4, #3
2ffe04cc:	4620      	mov	r0, r4
2ffe04ce:	b003      	add	sp, #12
2ffe04d0:	bd30      	pop	{r4, r5, pc}
2ffe04d2:	2401      	movs	r4, #1
2ffe04d4:	e7f0      	b.n	2ffe04b8 <fdt_get_status+0x20>
2ffe04d6:	9a01      	ldr	r2, [sp, #4]
2ffe04d8:	4906      	ldr	r1, [pc, #24]	; (2ffe04f4 <fdt_get_status+0x5c>)
2ffe04da:	f001 f9ac 	bl	2ffe1836 <strncmp>
2ffe04de:	2800      	cmp	r0, #0
2ffe04e0:	d1f4      	bne.n	2ffe04cc <fdt_get_status+0x34>
2ffe04e2:	f044 0402 	orr.w	r4, r4, #2
2ffe04e6:	b2e4      	uxtb	r4, r4
2ffe04e8:	e7f0      	b.n	2ffe04cc <fdt_get_status+0x34>
2ffe04ea:	bf00      	nop
2ffe04ec:	2ffe4ef9 	.word	0x2ffe4ef9
2ffe04f0:	2ffcb000 	.word	0x2ffcb000
2ffe04f4:	2ffe4eed 	.word	0x2ffe4eed
2ffe04f8:	2ffe4ef2 	.word	0x2ffe4ef2

2ffe04fc <fdt_read_uint32_default>:
2ffe04fc:	b513      	push	{r0, r1, r4, lr}
2ffe04fe:	4614      	mov	r4, r2
2ffe0500:	ab01      	add	r3, sp, #4
2ffe0502:	460a      	mov	r2, r1
2ffe0504:	4601      	mov	r1, r0
2ffe0506:	4806      	ldr	r0, [pc, #24]	; (2ffe0520 <fdt_read_uint32_default+0x24>)
2ffe0508:	f000 fdc9 	bl	2ffe109e <fdt_getprop>
2ffe050c:	b128      	cbz	r0, 2ffe051a <fdt_read_uint32_default+0x1e>
2ffe050e:	6800      	ldr	r0, [r0, #0]
2ffe0510:	b002      	add	sp, #8
2ffe0512:	e8bd 4010 	ldmia.w	sp!, {r4, lr}
2ffe0516:	f7ff bedd 	b.w	2ffe02d4 <fdt32_to_cpu>
2ffe051a:	4620      	mov	r0, r4
2ffe051c:	b002      	add	sp, #8
2ffe051e:	bd10      	pop	{r4, pc}
2ffe0520:	2ffcb000 	.word	0x2ffcb000

2ffe0524 <fdt_read_uint32_array>:
2ffe0524:	b537      	push	{r0, r1, r2, r4, r5, lr}
2ffe0526:	4615      	mov	r5, r2
2ffe0528:	461c      	mov	r4, r3
2ffe052a:	460a      	mov	r2, r1
2ffe052c:	ab01      	add	r3, sp, #4
2ffe052e:	4601      	mov	r1, r0
2ffe0530:	480f      	ldr	r0, [pc, #60]	; (2ffe0570 <fdt_read_uint32_array+0x4c>)
2ffe0532:	f000 fdb4 	bl	2ffe109e <fdt_getprop>
2ffe0536:	4601      	mov	r1, r0
2ffe0538:	b198      	cbz	r0, 2ffe0562 <fdt_read_uint32_array+0x3e>
2ffe053a:	9a01      	ldr	r2, [sp, #4]
2ffe053c:	00a3      	lsls	r3, r4, #2
2ffe053e:	ebb2 0f84 	cmp.w	r2, r4, lsl #2
2ffe0542:	d111      	bne.n	2ffe0568 <fdt_read_uint32_array+0x44>
2ffe0544:	089c      	lsrs	r4, r3, #2
2ffe0546:	2300      	movs	r3, #0
2ffe0548:	429c      	cmp	r4, r3
2ffe054a:	d102      	bne.n	2ffe0552 <fdt_read_uint32_array+0x2e>
2ffe054c:	2000      	movs	r0, #0
2ffe054e:	b003      	add	sp, #12
2ffe0550:	bd30      	pop	{r4, r5, pc}
2ffe0552:	f851 0023 	ldr.w	r0, [r1, r3, lsl #2]
2ffe0556:	f7ff febd 	bl	2ffe02d4 <fdt32_to_cpu>
2ffe055a:	f845 0023 	str.w	r0, [r5, r3, lsl #2]
2ffe055e:	3301      	adds	r3, #1
2ffe0560:	e7f2      	b.n	2ffe0548 <fdt_read_uint32_array+0x24>
2ffe0562:	f04f 30ff 	mov.w	r0, #4294967295	; 0xffffffff
2ffe0566:	e7f2      	b.n	2ffe054e <fdt_read_uint32_array+0x2a>
2ffe0568:	f06f 000b 	mvn.w	r0, #11
2ffe056c:	e7ef      	b.n	2ffe054e <fdt_read_uint32_array+0x2a>
2ffe056e:	bf00      	nop
2ffe0570:	2ffcb000 	.word	0x2ffcb000

2ffe0574 <dt_set_stdout_pinctrl>:
2ffe0574:	b508      	push	{r3, lr}
2ffe0576:	f7ff fec1 	bl	2ffe02fc <dt_get_stdout_node_offset>
2ffe057a:	2800      	cmp	r0, #0
2ffe057c:	db03      	blt.n	2ffe0586 <dt_set_stdout_pinctrl+0x12>
2ffe057e:	e8bd 4008 	ldmia.w	sp!, {r3, lr}
2ffe0582:	f7fe ba9b 	b.w	2ffdeabc <dt_set_pinctrl_config>
2ffe0586:	f04f 30ff 	mov.w	r0, #4294967295	; 0xffffffff
2ffe058a:	bd08      	pop	{r3, pc}

2ffe058c <dt_fill_device_info>:
2ffe058c:	b538      	push	{r3, r4, r5, lr}
2ffe058e:	4605      	mov	r5, r0
2ffe0590:	4608      	mov	r0, r1
2ffe0592:	460c      	mov	r4, r1
2ffe0594:	f7ff fea0 	bl	2ffe02d8 <fdt_get_node_parent_address_cells>
2ffe0598:	2801      	cmp	r0, #1
2ffe059a:	d004      	beq.n	2ffe05a6 <dt_fill_device_info+0x1a>
2ffe059c:	4818      	ldr	r0, [pc, #96]	; (2ffe0600 <dt_fill_device_info+0x74>)
2ffe059e:	f240 1149 	movw	r1, #329	; 0x149
2ffe05a2:	f000 ff19 	bl	2ffe13d8 <__assert>
2ffe05a6:	4a17      	ldr	r2, [pc, #92]	; (2ffe0604 <dt_fill_device_info+0x78>)
2ffe05a8:	2300      	movs	r3, #0
2ffe05aa:	4817      	ldr	r0, [pc, #92]	; (2ffe0608 <dt_fill_device_info+0x7c>)
2ffe05ac:	4621      	mov	r1, r4
2ffe05ae:	f000 fd76 	bl	2ffe109e <fdt_getprop>
2ffe05b2:	b110      	cbz	r0, 2ffe05ba <dt_fill_device_info+0x2e>
2ffe05b4:	6800      	ldr	r0, [r0, #0]
2ffe05b6:	f7ff fe8d 	bl	2ffe02d4 <fdt32_to_cpu>
2ffe05ba:	6028      	str	r0, [r5, #0]
2ffe05bc:	2300      	movs	r3, #0
2ffe05be:	4a13      	ldr	r2, [pc, #76]	; (2ffe060c <dt_fill_device_info+0x80>)
2ffe05c0:	4621      	mov	r1, r4
2ffe05c2:	4811      	ldr	r0, [pc, #68]	; (2ffe0608 <dt_fill_device_info+0x7c>)
2ffe05c4:	f000 fd6b 	bl	2ffe109e <fdt_getprop>
2ffe05c8:	b198      	cbz	r0, 2ffe05f2 <dt_fill_device_info+0x66>
2ffe05ca:	6840      	ldr	r0, [r0, #4]
2ffe05cc:	f7ff fe82 	bl	2ffe02d4 <fdt32_to_cpu>
2ffe05d0:	6068      	str	r0, [r5, #4]
2ffe05d2:	2300      	movs	r3, #0
2ffe05d4:	4a0e      	ldr	r2, [pc, #56]	; (2ffe0610 <dt_fill_device_info+0x84>)
2ffe05d6:	4621      	mov	r1, r4
2ffe05d8:	480b      	ldr	r0, [pc, #44]	; (2ffe0608 <dt_fill_device_info+0x7c>)
2ffe05da:	f000 fd60 	bl	2ffe109e <fdt_getprop>
2ffe05de:	b158      	cbz	r0, 2ffe05f8 <dt_fill_device_info+0x6c>
2ffe05e0:	6840      	ldr	r0, [r0, #4]
2ffe05e2:	f7ff fe77 	bl	2ffe02d4 <fdt32_to_cpu>
2ffe05e6:	60a8      	str	r0, [r5, #8]
2ffe05e8:	4620      	mov	r0, r4
2ffe05ea:	f7ff ff55 	bl	2ffe0498 <fdt_get_status>
2ffe05ee:	60e8      	str	r0, [r5, #12]
2ffe05f0:	bd38      	pop	{r3, r4, r5, pc}
2ffe05f2:	f04f 30ff 	mov.w	r0, #4294967295	; 0xffffffff
2ffe05f6:	e7eb      	b.n	2ffe05d0 <dt_fill_device_info+0x44>
2ffe05f8:	f04f 30ff 	mov.w	r0, #4294967295	; 0xffffffff
2ffe05fc:	e7f3      	b.n	2ffe05e6 <dt_fill_device_info+0x5a>
2ffe05fe:	bf00      	nop
2ffe0600:	2ffe4f00 	.word	0x2ffe4f00
2ffe0604:	2ffe2e1b 	.word	0x2ffe2e1b
2ffe0608:	2ffcb000 	.word	0x2ffcb000
2ffe060c:	2ffe401a 	.word	0x2ffe401a
2ffe0610:	2ffe4f26 	.word	0x2ffe4f26

2ffe0614 <dt_get_node>:
2ffe0614:	b538      	push	{r3, r4, r5, lr}
2ffe0616:	4605      	mov	r5, r0
2ffe0618:	4806      	ldr	r0, [pc, #24]	; (2ffe0634 <dt_get_node+0x20>)
2ffe061a:	f000 febd 	bl	2ffe1398 <fdt_node_offset_by_compatible>
2ffe061e:	1e04      	subs	r4, r0, #0
2ffe0620:	db05      	blt.n	2ffe062e <dt_get_node+0x1a>
2ffe0622:	4621      	mov	r1, r4
2ffe0624:	4628      	mov	r0, r5
2ffe0626:	f7ff ffb1 	bl	2ffe058c <dt_fill_device_info>
2ffe062a:	4620      	mov	r0, r4
2ffe062c:	bd38      	pop	{r3, r4, r5, pc}
2ffe062e:	f04f 34ff 	mov.w	r4, #4294967295	; 0xffffffff
2ffe0632:	e7fa      	b.n	2ffe062a <dt_get_node+0x16>
2ffe0634:	2ffcb000 	.word	0x2ffcb000

2ffe0638 <dt_get_stdout_uart_info>:
2ffe0638:	b538      	push	{r3, r4, r5, lr}
2ffe063a:	4605      	mov	r5, r0
2ffe063c:	f7ff fe5e 	bl	2ffe02fc <dt_get_stdout_node_offset>
2ffe0640:	1e04      	subs	r4, r0, #0
2ffe0642:	db05      	blt.n	2ffe0650 <dt_get_stdout_uart_info+0x18>
2ffe0644:	4621      	mov	r1, r4
2ffe0646:	4628      	mov	r0, r5
2ffe0648:	f7ff ffa0 	bl	2ffe058c <dt_fill_device_info>
2ffe064c:	4620      	mov	r0, r4
2ffe064e:	bd38      	pop	{r3, r4, r5, pc}
2ffe0650:	f04f 34ff 	mov.w	r4, #4294967295	; 0xffffffff
2ffe0654:	e7fa      	b.n	2ffe064c <dt_get_stdout_uart_info+0x14>
	...

2ffe0658 <dt_get_node_by_compatible>:
2ffe0658:	b538      	push	{r3, r4, r5, lr}
2ffe065a:	4602      	mov	r2, r0
2ffe065c:	4605      	mov	r5, r0
2ffe065e:	f04f 31ff 	mov.w	r1, #4294967295	; 0xffffffff
2ffe0662:	4805      	ldr	r0, [pc, #20]	; (2ffe0678 <dt_get_node_by_compatible+0x20>)
2ffe0664:	f000 fe98 	bl	2ffe1398 <fdt_node_offset_by_compatible>
2ffe0668:	1e04      	subs	r4, r0, #0
2ffe066a:	da03      	bge.n	2ffe0674 <dt_get_node_by_compatible+0x1c>
2ffe066c:	4803      	ldr	r0, [pc, #12]	; (2ffe067c <dt_get_node_by_compatible+0x24>)
2ffe066e:	4629      	mov	r1, r5
2ffe0670:	f7fa fdb0 	bl	2ffdb1d4 <tf_log>
2ffe0674:	4620      	mov	r0, r4
2ffe0676:	bd38      	pop	{r3, r4, r5, pc}
2ffe0678:	2ffcb000 	.word	0x2ffcb000
2ffe067c:	2ffe4f2d 	.word	0x2ffe4f2d

2ffe0680 <dt_match_instance_by_compatible>:
2ffe0680:	e92d 41f0 	stmdb	sp!, {r4, r5, r6, r7, r8, lr}
2ffe0684:	4602      	mov	r2, r0
2ffe0686:	f8df 8060 	ldr.w	r8, [pc, #96]	; 2ffe06e8 <dt_match_instance_by_compatible+0x68>
2ffe068a:	4605      	mov	r5, r0
2ffe068c:	4814      	ldr	r0, [pc, #80]	; (2ffe06e0 <dt_match_instance_by_compatible+0x60>)
2ffe068e:	460e      	mov	r6, r1
2ffe0690:	4f13      	ldr	r7, [pc, #76]	; (2ffe06e0 <dt_match_instance_by_compatible+0x60>)
2ffe0692:	f04f 31ff 	mov.w	r1, #4294967295	; 0xffffffff
2ffe0696:	f000 fe7f 	bl	2ffe1398 <fdt_node_offset_by_compatible>
2ffe069a:	4604      	mov	r4, r0
2ffe069c:	1c63      	adds	r3, r4, #1
2ffe069e:	d102      	bne.n	2ffe06a6 <dt_match_instance_by_compatible+0x26>
2ffe06a0:	4620      	mov	r0, r4
2ffe06a2:	e8bd 81f0 	ldmia.w	sp!, {r4, r5, r6, r7, r8, pc}
2ffe06a6:	4620      	mov	r0, r4
2ffe06a8:	f7ff fe16 	bl	2ffe02d8 <fdt_get_node_parent_address_cells>
2ffe06ac:	2801      	cmp	r0, #1
2ffe06ae:	d004      	beq.n	2ffe06ba <dt_match_instance_by_compatible+0x3a>
2ffe06b0:	480c      	ldr	r0, [pc, #48]	; (2ffe06e4 <dt_match_instance_by_compatible+0x64>)
2ffe06b2:	f44f 71d4 	mov.w	r1, #424	; 0x1a8
2ffe06b6:	f000 fe8f 	bl	2ffe13d8 <__assert>
2ffe06ba:	2300      	movs	r3, #0
2ffe06bc:	4642      	mov	r2, r8
2ffe06be:	4621      	mov	r1, r4
2ffe06c0:	4638      	mov	r0, r7
2ffe06c2:	f000 fcec 	bl	2ffe109e <fdt_getprop>
2ffe06c6:	b120      	cbz	r0, 2ffe06d2 <dt_match_instance_by_compatible+0x52>
2ffe06c8:	6800      	ldr	r0, [r0, #0]
2ffe06ca:	f7ff fe03 	bl	2ffe02d4 <fdt32_to_cpu>
2ffe06ce:	42b0      	cmp	r0, r6
2ffe06d0:	d0e6      	beq.n	2ffe06a0 <dt_match_instance_by_compatible+0x20>
2ffe06d2:	4621      	mov	r1, r4
2ffe06d4:	462a      	mov	r2, r5
2ffe06d6:	4638      	mov	r0, r7
2ffe06d8:	f000 fe5e 	bl	2ffe1398 <fdt_node_offset_by_compatible>
2ffe06dc:	4604      	mov	r4, r0
2ffe06de:	e7dd      	b.n	2ffe069c <dt_match_instance_by_compatible+0x1c>
2ffe06e0:	2ffcb000 	.word	0x2ffcb000
2ffe06e4:	2ffe4f00 	.word	0x2ffe4f00
2ffe06e8:	2ffe2e1b 	.word	0x2ffe2e1b

2ffe06ec <dt_get_ddr_size>:
2ffe06ec:	4806      	ldr	r0, [pc, #24]	; (2ffe0708 <dt_get_ddr_size+0x1c>)
2ffe06ee:	b508      	push	{r3, lr}
2ffe06f0:	f7ff ffb2 	bl	2ffe0658 <dt_get_node_by_compatible>
2ffe06f4:	2800      	cmp	r0, #0
2ffe06f6:	db05      	blt.n	2ffe0704 <dt_get_ddr_size+0x18>
2ffe06f8:	e8bd 4008 	ldmia.w	sp!, {r3, lr}
2ffe06fc:	4903      	ldr	r1, [pc, #12]	; (2ffe070c <dt_get_ddr_size+0x20>)
2ffe06fe:	2200      	movs	r2, #0
2ffe0700:	f7ff befc 	b.w	2ffe04fc <fdt_read_uint32_default>
2ffe0704:	2000      	movs	r0, #0
2ffe0706:	bd08      	pop	{r3, pc}
2ffe0708:	2ffe2e68 	.word	0x2ffe2e68
2ffe070c:	2ffe2e85 	.word	0x2ffe2e85

2ffe0710 <dt_get_max_opp_freqvolt>:
2ffe0710:	e92d 43f7 	stmdb	sp!, {r0, r1, r2, r4, r5, r6, r7, r8, r9, lr}
2ffe0714:	460d      	mov	r5, r1
2ffe0716:	4607      	mov	r7, r0
2ffe0718:	b920      	cbnz	r0, 2ffe0724 <dt_get_max_opp_freqvolt+0x14>
2ffe071a:	f44f 7106 	mov.w	r1, #536	; 0x218
2ffe071e:	481b      	ldr	r0, [pc, #108]	; (2ffe078c <dt_get_max_opp_freqvolt+0x7c>)
2ffe0720:	f000 fe5a 	bl	2ffe13d8 <__assert>
2ffe0724:	b911      	cbnz	r1, 2ffe072c <dt_get_max_opp_freqvolt+0x1c>
2ffe0726:	f240 2119 	movw	r1, #537	; 0x219
2ffe072a:	e7f8      	b.n	2ffe071e <dt_get_max_opp_freqvolt+0xe>
2ffe072c:	4818      	ldr	r0, [pc, #96]	; (2ffe0790 <dt_get_max_opp_freqvolt+0x80>)
2ffe072e:	f7ff ff93 	bl	2ffe0658 <dt_get_node_by_compatible>
2ffe0732:	2800      	cmp	r0, #0
2ffe0734:	db12      	blt.n	2ffe075c <dt_get_max_opp_freqvolt+0x4c>
2ffe0736:	f8df 905c 	ldr.w	r9, [pc, #92]	; 2ffe0794 <dt_get_max_opp_freqvolt+0x84>
2ffe073a:	4601      	mov	r1, r0
2ffe073c:	4815      	ldr	r0, [pc, #84]	; (2ffe0794 <dt_get_max_opp_freqvolt+0x84>)
2ffe073e:	2600      	movs	r6, #0
2ffe0740:	46b0      	mov	r8, r6
2ffe0742:	f000 fb30 	bl	2ffe0da6 <fdt_first_subnode>
2ffe0746:	4604      	mov	r4, r0
2ffe0748:	2c00      	cmp	r4, #0
2ffe074a:	da0a      	bge.n	2ffe0762 <dt_get_max_opp_freqvolt+0x52>
2ffe074c:	f1b8 0f00 	cmp.w	r8, #0
2ffe0750:	d018      	beq.n	2ffe0784 <dt_get_max_opp_freqvolt+0x74>
2ffe0752:	b1be      	cbz	r6, 2ffe0784 <dt_get_max_opp_freqvolt+0x74>
2ffe0754:	f8c7 8000 	str.w	r8, [r7]
2ffe0758:	2000      	movs	r0, #0
2ffe075a:	602e      	str	r6, [r5, #0]
2ffe075c:	b003      	add	sp, #12
2ffe075e:	e8bd 83f0 	ldmia.w	sp!, {r4, r5, r6, r7, r8, r9, pc}
2ffe0762:	aa01      	add	r2, sp, #4
2ffe0764:	4669      	mov	r1, sp
2ffe0766:	4620      	mov	r0, r4
2ffe0768:	f7ff fe06 	bl	2ffe0378 <dt_get_opp_freqvolt_from_subnode>
2ffe076c:	b920      	cbnz	r0, 2ffe0778 <dt_get_max_opp_freqvolt+0x68>
2ffe076e:	9b00      	ldr	r3, [sp, #0]
2ffe0770:	4543      	cmp	r3, r8
2ffe0772:	bf84      	itt	hi
2ffe0774:	4698      	movhi	r8, r3
2ffe0776:	9e01      	ldrhi	r6, [sp, #4]
2ffe0778:	4621      	mov	r1, r4
2ffe077a:	4648      	mov	r0, r9
2ffe077c:	f000 fb26 	bl	2ffe0dcc <fdt_next_subnode>
2ffe0780:	4604      	mov	r4, r0
2ffe0782:	e7e1      	b.n	2ffe0748 <dt_get_max_opp_freqvolt+0x38>
2ffe0784:	f04f 30ff 	mov.w	r0, #4294967295	; 0xffffffff
2ffe0788:	e7e8      	b.n	2ffe075c <dt_get_max_opp_freqvolt+0x4c>
2ffe078a:	bf00      	nop
2ffe078c:	2ffe4f00 	.word	0x2ffe4f00
2ffe0790:	2ffe4f49 	.word	0x2ffe4f49
2ffe0794:	2ffcb000 	.word	0x2ffcb000

2ffe0798 <dt_get_pwr_vdd_voltage>:
2ffe0798:	4810      	ldr	r0, [pc, #64]	; (2ffe07dc <dt_get_pwr_vdd_voltage+0x44>)
2ffe079a:	b508      	push	{r3, lr}
2ffe079c:	f7ff ff5c 	bl	2ffe0658 <dt_get_node_by_compatible>
2ffe07a0:	1e01      	subs	r1, r0, #0
2ffe07a2:	db19      	blt.n	2ffe07d8 <dt_get_pwr_vdd_voltage+0x40>
2ffe07a4:	4a0e      	ldr	r2, [pc, #56]	; (2ffe07e0 <dt_get_pwr_vdd_voltage+0x48>)
2ffe07a6:	2300      	movs	r3, #0
2ffe07a8:	480e      	ldr	r0, [pc, #56]	; (2ffe07e4 <dt_get_pwr_vdd_voltage+0x4c>)
2ffe07aa:	f000 fc78 	bl	2ffe109e <fdt_getprop>
2ffe07ae:	b198      	cbz	r0, 2ffe07d8 <dt_get_pwr_vdd_voltage+0x40>
2ffe07b0:	6800      	ldr	r0, [r0, #0]
2ffe07b2:	f7ff fd8f 	bl	2ffe02d4 <fdt32_to_cpu>
2ffe07b6:	4601      	mov	r1, r0
2ffe07b8:	480a      	ldr	r0, [pc, #40]	; (2ffe07e4 <dt_get_pwr_vdd_voltage+0x4c>)
2ffe07ba:	f000 fd62 	bl	2ffe1282 <fdt_node_offset_by_phandle>
2ffe07be:	1e01      	subs	r1, r0, #0
2ffe07c0:	db0a      	blt.n	2ffe07d8 <dt_get_pwr_vdd_voltage+0x40>
2ffe07c2:	4a09      	ldr	r2, [pc, #36]	; (2ffe07e8 <dt_get_pwr_vdd_voltage+0x50>)
2ffe07c4:	2300      	movs	r3, #0
2ffe07c6:	4807      	ldr	r0, [pc, #28]	; (2ffe07e4 <dt_get_pwr_vdd_voltage+0x4c>)
2ffe07c8:	f000 fc69 	bl	2ffe109e <fdt_getprop>
2ffe07cc:	b120      	cbz	r0, 2ffe07d8 <dt_get_pwr_vdd_voltage+0x40>
2ffe07ce:	e8bd 4008 	ldmia.w	sp!, {r3, lr}
2ffe07d2:	6800      	ldr	r0, [r0, #0]
2ffe07d4:	f7ff bd7e 	b.w	2ffe02d4 <fdt32_to_cpu>
2ffe07d8:	2000      	movs	r0, #0
2ffe07da:	bd08      	pop	{r3, pc}
2ffe07dc:	2ffe4f5d 	.word	0x2ffe4f5d
2ffe07e0:	2ffe4f71 	.word	0x2ffe4f71
2ffe07e4:	2ffcb000 	.word	0x2ffcb000
2ffe07e8:	2ffe495a 	.word	0x2ffe495a

2ffe07ec <dt_get_cpu_regulator_name>:
2ffe07ec:	490f      	ldr	r1, [pc, #60]	; (2ffe082c <dt_get_cpu_regulator_name+0x40>)
2ffe07ee:	4810      	ldr	r0, [pc, #64]	; (2ffe0830 <dt_get_cpu_regulator_name+0x44>)
2ffe07f0:	b510      	push	{r4, lr}
2ffe07f2:	f000 fce6 	bl	2ffe11c2 <fdt_path_offset>
2ffe07f6:	1e01      	subs	r1, r0, #0
2ffe07f8:	db15      	blt.n	2ffe0826 <dt_get_cpu_regulator_name+0x3a>
2ffe07fa:	4a0e      	ldr	r2, [pc, #56]	; (2ffe0834 <dt_get_cpu_regulator_name+0x48>)
2ffe07fc:	2300      	movs	r3, #0
2ffe07fe:	480c      	ldr	r0, [pc, #48]	; (2ffe0830 <dt_get_cpu_regulator_name+0x44>)
2ffe0800:	f000 fc4d 	bl	2ffe109e <fdt_getprop>
2ffe0804:	b178      	cbz	r0, 2ffe0826 <dt_get_cpu_regulator_name+0x3a>
2ffe0806:	6800      	ldr	r0, [r0, #0]
2ffe0808:	f7ff fd64 	bl	2ffe02d4 <fdt32_to_cpu>
2ffe080c:	4601      	mov	r1, r0
2ffe080e:	4808      	ldr	r0, [pc, #32]	; (2ffe0830 <dt_get_cpu_regulator_name+0x44>)
2ffe0810:	f000 fd37 	bl	2ffe1282 <fdt_node_offset_by_phandle>
2ffe0814:	1e01      	subs	r1, r0, #0
2ffe0816:	db06      	blt.n	2ffe0826 <dt_get_cpu_regulator_name+0x3a>
2ffe0818:	e8bd 4010 	ldmia.w	sp!, {r4, lr}
2ffe081c:	4a06      	ldr	r2, [pc, #24]	; (2ffe0838 <dt_get_cpu_regulator_name+0x4c>)
2ffe081e:	2300      	movs	r3, #0
2ffe0820:	4803      	ldr	r0, [pc, #12]	; (2ffe0830 <dt_get_cpu_regulator_name+0x44>)
2ffe0822:	f000 bc3c 	b.w	2ffe109e <fdt_getprop>
2ffe0826:	2000      	movs	r0, #0
2ffe0828:	bd10      	pop	{r4, pc}
2ffe082a:	bf00      	nop
2ffe082c:	2ffe4f7c 	.word	0x2ffe4f7c
2ffe0830:	2ffcb000 	.word	0x2ffcb000
2ffe0834:	2ffe4f88 	.word	0x2ffe4f88
2ffe0838:	2ffe49fc 	.word	0x2ffe49fc

2ffe083c <dt_get_board_model>:
2ffe083c:	4907      	ldr	r1, [pc, #28]	; (2ffe085c <dt_get_board_model+0x20>)
2ffe083e:	4808      	ldr	r0, [pc, #32]	; (2ffe0860 <dt_get_board_model+0x24>)
2ffe0840:	b510      	push	{r4, lr}
2ffe0842:	f000 fcbe 	bl	2ffe11c2 <fdt_path_offset>
2ffe0846:	1e01      	subs	r1, r0, #0
2ffe0848:	db06      	blt.n	2ffe0858 <dt_get_board_model+0x1c>
2ffe084a:	e8bd 4010 	ldmia.w	sp!, {r4, lr}
2ffe084e:	4a05      	ldr	r2, [pc, #20]	; (2ffe0864 <dt_get_board_model+0x28>)
2ffe0850:	2300      	movs	r3, #0
2ffe0852:	4803      	ldr	r0, [pc, #12]	; (2ffe0860 <dt_get_board_model+0x24>)
2ffe0854:	f000 bc23 	b.w	2ffe109e <fdt_getprop>
2ffe0858:	2000      	movs	r0, #0
2ffe085a:	bd10      	pop	{r4, pc}
2ffe085c:	2ffe4f93 	.word	0x2ffe4f93
2ffe0860:	2ffcb000 	.word	0x2ffcb000
2ffe0864:	2ffe4f95 	.word	0x2ffe4f95

2ffe0868 <stm32mp_lock_shregs>:
2ffe0868:	b508      	push	{r3, lr}
2ffe086a:	f7fa fe86 	bl	2ffdb57a <stm32mp_lock_available>
2ffe086e:	b120      	cbz	r0, 2ffe087a <stm32mp_lock_shregs+0x12>
2ffe0870:	e8bd 4008 	ldmia.w	sp!, {r3, lr}
2ffe0874:	4801      	ldr	r0, [pc, #4]	; (2ffe087c <stm32mp_lock_shregs+0x14>)
2ffe0876:	f004 bd4f 	b.w	2ffe5318 <__spin_lock_from_thumb>
2ffe087a:	bd08      	pop	{r3, pc}
2ffe087c:	2ffe8050 	.word	0x2ffe8050

2ffe0880 <stm32mp_unlock_shregs>:
2ffe0880:	b508      	push	{r3, lr}
2ffe0882:	f7fa fe7a 	bl	2ffdb57a <stm32mp_lock_available>
2ffe0886:	b120      	cbz	r0, 2ffe0892 <stm32mp_unlock_shregs+0x12>
2ffe0888:	e8bd 4008 	ldmia.w	sp!, {r3, lr}
2ffe088c:	4801      	ldr	r0, [pc, #4]	; (2ffe0894 <stm32mp_unlock_shregs+0x14>)
2ffe088e:	f004 bd2b 	b.w	2ffe52e8 <__spin_unlock_from_thumb>
2ffe0892:	bd08      	pop	{r3, pc}
2ffe0894:	2ffe8050 	.word	0x2ffe8050

2ffe0898 <stm32mp_mmio_clrbits_32_shregs>:
2ffe0898:	b538      	push	{r3, r4, r5, lr}
2ffe089a:	4604      	mov	r4, r0
2ffe089c:	460d      	mov	r5, r1
2ffe089e:	f7ff ffe3 	bl	2ffe0868 <stm32mp_lock_shregs>
2ffe08a2:	6823      	ldr	r3, [r4, #0]
2ffe08a4:	ea23 0305 	bic.w	r3, r3, r5
2ffe08a8:	6023      	str	r3, [r4, #0]
2ffe08aa:	e8bd 4038 	ldmia.w	sp!, {r3, r4, r5, lr}
2ffe08ae:	f7ff bfe7 	b.w	2ffe0880 <stm32mp_unlock_shregs>

2ffe08b2 <stm32mp_mmio_setbits_32_shregs>:
2ffe08b2:	b538      	push	{r3, r4, r5, lr}
2ffe08b4:	4605      	mov	r5, r0
2ffe08b6:	460c      	mov	r4, r1
2ffe08b8:	f7ff ffd6 	bl	2ffe0868 <stm32mp_lock_shregs>
2ffe08bc:	6829      	ldr	r1, [r5, #0]
2ffe08be:	430c      	orrs	r4, r1
2ffe08c0:	602c      	str	r4, [r5, #0]
2ffe08c2:	e8bd 4038 	ldmia.w	sp!, {r3, r4, r5, lr}
2ffe08c6:	f7ff bfdb 	b.w	2ffe0880 <stm32mp_unlock_shregs>

2ffe08ca <stm32_get_zdata_from_context>:
2ffe08ca:	b510      	push	{r4, lr}
2ffe08cc:	2063      	movs	r0, #99	; 0x63
2ffe08ce:	f7fd fa79 	bl	2ffdddc4 <stm32mp_clk_enable>
2ffe08d2:	f04f 43a8 	mov.w	r3, #1409286144	; 0x54000000
2ffe08d6:	2063      	movs	r0, #99	; 0x63
2ffe08d8:	f8d3 4160 	ldr.w	r4, [r3, #352]	; 0x160
2ffe08dc:	f7fd fa75 	bl	2ffdddca <stm32mp_clk_disable>
2ffe08e0:	f024 4470 	bic.w	r4, r4, #4026531840	; 0xf0000000
2ffe08e4:	4620      	mov	r0, r4
2ffe08e6:	bd10      	pop	{r4, pc}

2ffe08e8 <stm32_get_pll1_settings_from_context>:
2ffe08e8:	b508      	push	{r3, lr}
2ffe08ea:	2063      	movs	r0, #99	; 0x63
2ffe08ec:	f7fd fa6a 	bl	2ffdddc4 <stm32mp_clk_enable>
2ffe08f0:	4804      	ldr	r0, [pc, #16]	; (2ffe0904 <stm32_get_pll1_settings_from_context+0x1c>)
2ffe08f2:	214c      	movs	r1, #76	; 0x4c
2ffe08f4:	f7fd fbb4 	bl	2ffde060 <stm32mp1_clk_lp_load_opp_pll1_settings>
2ffe08f8:	2063      	movs	r0, #99	; 0x63
2ffe08fa:	f7fd fa66 	bl	2ffdddca <stm32mp_clk_disable>
2ffe08fe:	2000      	movs	r0, #0
2ffe0900:	bd08      	pop	{r3, pc}
2ffe0902:	bf00      	nop
2ffe0904:	540001b0 	.word	0x540001b0

2ffe0908 <stm32_save_boot_interface>:
2ffe0908:	b538      	push	{r3, r4, r5, lr}
2ffe090a:	4605      	mov	r5, r0
2ffe090c:	2041      	movs	r0, #65	; 0x41
2ffe090e:	460c      	mov	r4, r1
2ffe0910:	f004 040f 	and.w	r4, r4, #15
2ffe0914:	f7fd fa56 	bl	2ffdddc4 <stm32mp_clk_enable>
2ffe0918:	4a06      	ldr	r2, [pc, #24]	; (2ffe0934 <stm32_save_boot_interface+0x2c>)
2ffe091a:	ea44 1005 	orr.w	r0, r4, r5, lsl #4
2ffe091e:	6813      	ldr	r3, [r2, #0]
2ffe0920:	f423 447f 	bic.w	r4, r3, #65280	; 0xff00
2ffe0924:	ea44 2000 	orr.w	r0, r4, r0, lsl #8
2ffe0928:	6010      	str	r0, [r2, #0]
2ffe092a:	2041      	movs	r0, #65	; 0x41
2ffe092c:	f7fd fa4d 	bl	2ffdddca <stm32mp_clk_disable>
2ffe0930:	2000      	movs	r0, #0
2ffe0932:	bd38      	pop	{r3, r4, r5, pc}
2ffe0934:	5c00a150 	.word	0x5c00a150

2ffe0938 <stm32_restore_ddr_training_area>:
2ffe0938:	b508      	push	{r3, lr}
2ffe093a:	2063      	movs	r0, #99	; 0x63
2ffe093c:	f7fd fa42 	bl	2ffdddc4 <stm32mp_clk_enable>
2ffe0940:	4906      	ldr	r1, [pc, #24]	; (2ffe095c <stm32_restore_ddr_training_area+0x24>)
2ffe0942:	2240      	movs	r2, #64	; 0x40
2ffe0944:	f04f 4040 	mov.w	r0, #3221225472	; 0xc0000000
2ffe0948:	f000 fd6e 	bl	2ffe1428 <memcpy>
2ffe094c:	f3bf 8f4f 	dsb	sy
2ffe0950:	2063      	movs	r0, #99	; 0x63
2ffe0952:	e8bd 4008 	ldmia.w	sp!, {r3, lr}
2ffe0956:	f7fd ba38 	b.w	2ffdddca <stm32mp_clk_disable>
2ffe095a:	bf00      	nop
2ffe095c:	54000170 	.word	0x54000170

2ffe0960 <stm32mp1_dbgmcu_init>:
2ffe0960:	b508      	push	{r3, lr}
2ffe0962:	f7fc f9b9 	bl	2ffdccd8 <bsec_read_debug_conf>
2ffe0966:	0543      	lsls	r3, r0, #21
2ffe0968:	d405      	bmi.n	2ffe0976 <stm32mp1_dbgmcu_init+0x16>
2ffe096a:	4806      	ldr	r0, [pc, #24]	; (2ffe0984 <stm32mp1_dbgmcu_init+0x24>)
2ffe096c:	f7fa fc32 	bl	2ffdb1d4 <tf_log>
2ffe0970:	f04f 30ff 	mov.w	r0, #4294967295	; 0xffffffff
2ffe0974:	bd08      	pop	{r3, pc}
2ffe0976:	4a04      	ldr	r2, [pc, #16]	; (2ffe0988 <stm32mp1_dbgmcu_init+0x28>)
2ffe0978:	2000      	movs	r0, #0
2ffe097a:	6813      	ldr	r3, [r2, #0]
2ffe097c:	f443 7380 	orr.w	r3, r3, #256	; 0x100
2ffe0980:	6013      	str	r3, [r2, #0]
2ffe0982:	e7f7      	b.n	2ffe0974 <stm32mp1_dbgmcu_init+0x14>
2ffe0984:	2ffe4f9b 	.word	0x2ffe4f9b
2ffe0988:	5000080c 	.word	0x5000080c

2ffe098c <stm32mp1_dbgmcu_get_chip_version>:
2ffe098c:	b510      	push	{r4, lr}
2ffe098e:	4604      	mov	r4, r0
2ffe0990:	b918      	cbnz	r0, 2ffe099a <stm32mp1_dbgmcu_get_chip_version+0xe>
2ffe0992:	4807      	ldr	r0, [pc, #28]	; (2ffe09b0 <stm32mp1_dbgmcu_get_chip_version+0x24>)
2ffe0994:	2139      	movs	r1, #57	; 0x39
2ffe0996:	f000 fd1f 	bl	2ffe13d8 <__assert>
2ffe099a:	f7ff ffe1 	bl	2ffe0960 <stm32mp1_dbgmcu_init>
2ffe099e:	b920      	cbnz	r0, 2ffe09aa <stm32mp1_dbgmcu_get_chip_version+0x1e>
2ffe09a0:	4b04      	ldr	r3, [pc, #16]	; (2ffe09b4 <stm32mp1_dbgmcu_get_chip_version+0x28>)
2ffe09a2:	681b      	ldr	r3, [r3, #0]
2ffe09a4:	0c1b      	lsrs	r3, r3, #16
2ffe09a6:	6023      	str	r3, [r4, #0]
2ffe09a8:	bd10      	pop	{r4, pc}
2ffe09aa:	f04f 30ff 	mov.w	r0, #4294967295	; 0xffffffff
2ffe09ae:	e7fb      	b.n	2ffe09a8 <stm32mp1_dbgmcu_get_chip_version+0x1c>
2ffe09b0:	2ffe4fd1 	.word	0x2ffe4fd1
2ffe09b4:	50081000 	.word	0x50081000

2ffe09b8 <stm32mp1_dbgmcu_get_chip_dev_id>:
2ffe09b8:	b510      	push	{r4, lr}
2ffe09ba:	4604      	mov	r4, r0
2ffe09bc:	b918      	cbnz	r0, 2ffe09c6 <stm32mp1_dbgmcu_get_chip_dev_id+0xe>
2ffe09be:	4808      	ldr	r0, [pc, #32]	; (2ffe09e0 <stm32mp1_dbgmcu_get_chip_dev_id+0x28>)
2ffe09c0:	214c      	movs	r1, #76	; 0x4c
2ffe09c2:	f000 fd09 	bl	2ffe13d8 <__assert>
2ffe09c6:	f7ff ffcb 	bl	2ffe0960 <stm32mp1_dbgmcu_init>
2ffe09ca:	b928      	cbnz	r0, 2ffe09d8 <stm32mp1_dbgmcu_get_chip_dev_id+0x20>
2ffe09cc:	4b05      	ldr	r3, [pc, #20]	; (2ffe09e4 <stm32mp1_dbgmcu_get_chip_dev_id+0x2c>)
2ffe09ce:	681b      	ldr	r3, [r3, #0]
2ffe09d0:	f3c3 030b 	ubfx	r3, r3, #0, #12
2ffe09d4:	6023      	str	r3, [r4, #0]
2ffe09d6:	bd10      	pop	{r4, pc}
2ffe09d8:	f04f 30ff 	mov.w	r0, #4294967295	; 0xffffffff
2ffe09dc:	e7fb      	b.n	2ffe09d6 <stm32mp1_dbgmcu_get_chip_dev_id+0x1e>
2ffe09de:	bf00      	nop
2ffe09e0:	2ffe4fd1 	.word	0x2ffe4fd1
2ffe09e4:	50081000 	.word	0x50081000

2ffe09e8 <stm32mp1_dbgmcu_freeze_iwdg2>:
2ffe09e8:	b510      	push	{r4, lr}
2ffe09ea:	f7ff ffb9 	bl	2ffe0960 <stm32mp1_dbgmcu_init>
2ffe09ee:	4604      	mov	r4, r0
2ffe09f0:	b958      	cbnz	r0, 2ffe0a0a <stm32mp1_dbgmcu_freeze_iwdg2+0x22>
2ffe09f2:	f7fc f971 	bl	2ffdccd8 <bsec_read_debug_conf>
2ffe09f6:	f010 0f60 	tst.w	r0, #96	; 0x60
2ffe09fa:	d004      	beq.n	2ffe0a06 <stm32mp1_dbgmcu_freeze_iwdg2+0x1e>
2ffe09fc:	4a04      	ldr	r2, [pc, #16]	; (2ffe0a10 <stm32mp1_dbgmcu_freeze_iwdg2+0x28>)
2ffe09fe:	6813      	ldr	r3, [r2, #0]
2ffe0a00:	f043 0304 	orr.w	r3, r3, #4
2ffe0a04:	6013      	str	r3, [r2, #0]
2ffe0a06:	4620      	mov	r0, r4
2ffe0a08:	bd10      	pop	{r4, pc}
2ffe0a0a:	f04f 34ff 	mov.w	r4, #4294967295	; 0xffffffff
2ffe0a0e:	e7fa      	b.n	2ffe0a06 <stm32mp1_dbgmcu_freeze_iwdg2+0x1e>
2ffe0a10:	5008102c 	.word	0x5008102c

2ffe0a14 <stm32mp1_arch_security_setup>:
2ffe0a14:	b51f      	push	{r0, r1, r2, r3, r4, lr}
2ffe0a16:	2042      	movs	r0, #66	; 0x42
2ffe0a18:	f7fd f9d4 	bl	2ffdddc4 <stm32mp_clk_enable>
2ffe0a1c:	2071      	movs	r0, #113	; 0x71
2ffe0a1e:	f7fd f9d1 	bl	2ffdddc4 <stm32mp_clk_enable>
2ffe0a22:	480e      	ldr	r0, [pc, #56]	; (2ffe0a5c <stm32mp1_arch_security_setup+0x48>)
2ffe0a24:	f7fb ff28 	bl	2ffdc878 <tzc400_init>
2ffe0a28:	f7fb ffe6 	bl	2ffdc9f8 <tzc400_disable_filters>
2ffe0a2c:	4b0c      	ldr	r3, [pc, #48]	; (2ffe0a60 <stm32mp1_arch_security_setup+0x4c>)
2ffe0a2e:	f04f 32ff 	mov.w	r2, #4294967295	; 0xffffffff
2ffe0a32:	2101      	movs	r1, #1
2ffe0a34:	2003      	movs	r0, #3
2ffe0a36:	9303      	str	r3, [sp, #12]
2ffe0a38:	2300      	movs	r3, #0
2ffe0a3a:	9302      	str	r3, [sp, #8]
2ffe0a3c:	2300      	movs	r3, #0
2ffe0a3e:	e9cd 2300 	strd	r2, r3, [sp]
2ffe0a42:	f04f 4240 	mov.w	r2, #3221225472	; 0xc0000000
2ffe0a46:	2300      	movs	r3, #0
2ffe0a48:	f7fb ff44 	bl	2ffdc8d4 <tzc400_configure_region>
2ffe0a4c:	2001      	movs	r0, #1
2ffe0a4e:	f7fb ff01 	bl	2ffdc854 <tzc400_set_action>
2ffe0a52:	b005      	add	sp, #20
2ffe0a54:	f85d eb04 	ldr.w	lr, [sp], #4
2ffe0a58:	f7fb bf9a 	b.w	2ffdc990 <tzc400_enable_filters>
2ffe0a5c:	5c006000 	.word	0x5c006000
2ffe0a60:	02010201 	.word	0x02010201

2ffe0a64 <stm32mp1_syscfg_enable_io_compensation>:
2ffe0a64:	b5f8      	push	{r3, r4, r5, r6, r7, lr}
2ffe0a66:	2033      	movs	r0, #51	; 0x33
2ffe0a68:	f7fd f9b2 	bl	2ffdddd0 <stm32mp1_clk_force_enable>
2ffe0a6c:	4a13      	ldr	r2, [pc, #76]	; (2ffe0abc <stm32mp1_syscfg_enable_io_compensation+0x58>)
2ffe0a6e:	6813      	ldr	r3, [r2, #0]
2ffe0a70:	f043 0301 	orr.w	r3, r3, #1
2ffe0a74:	6013      	str	r3, [r2, #0]
2ffe0a76:	ee1e 0f10 	mrc	15, 0, r0, cr14, cr0, {0}
2ffe0a7a:	ec55 4f0e 	mrrc	15, 0, r4, r5, cr14
2ffe0a7e:	4a10      	ldr	r2, [pc, #64]	; (2ffe0ac0 <stm32mp1_syscfg_enable_io_compensation+0x5c>)
2ffe0a80:	f242 7110 	movw	r1, #10000	; 0x2710
2ffe0a84:	2300      	movs	r3, #0
2ffe0a86:	fba0 0101 	umull	r0, r1, r0, r1
2ffe0a8a:	f000 e870 	blx	2ffe0b6c <__aeabi_uldivmod>
2ffe0a8e:	4b0d      	ldr	r3, [pc, #52]	; (2ffe0ac4 <stm32mp1_syscfg_enable_io_compensation+0x60>)
2ffe0a90:	1906      	adds	r6, r0, r4
2ffe0a92:	eb41 0705 	adc.w	r7, r1, r5
2ffe0a96:	461c      	mov	r4, r3
2ffe0a98:	681a      	ldr	r2, [r3, #0]
2ffe0a9a:	05d2      	lsls	r2, r2, #23
2ffe0a9c:	d408      	bmi.n	2ffe0ab0 <stm32mp1_syscfg_enable_io_compensation+0x4c>
2ffe0a9e:	ec51 0f0e 	mrrc	15, 0, r0, r1, cr14
2ffe0aa2:	428f      	cmp	r7, r1
2ffe0aa4:	bf08      	it	eq
2ffe0aa6:	4286      	cmpeq	r6, r0
2ffe0aa8:	d2f6      	bcs.n	2ffe0a98 <stm32mp1_syscfg_enable_io_compensation+0x34>
2ffe0aaa:	4807      	ldr	r0, [pc, #28]	; (2ffe0ac8 <stm32mp1_syscfg_enable_io_compensation+0x64>)
2ffe0aac:	f7fa fb92 	bl	2ffdb1d4 <tf_log>
2ffe0ab0:	6823      	ldr	r3, [r4, #0]
2ffe0ab2:	f023 0302 	bic.w	r3, r3, #2
2ffe0ab6:	6023      	str	r3, [r4, #0]
2ffe0ab8:	bdf8      	pop	{r3, r4, r5, r6, r7, pc}
2ffe0aba:	bf00      	nop
2ffe0abc:	50020024 	.word	0x50020024
2ffe0ac0:	000f4240 	.word	0x000f4240
2ffe0ac4:	50020020 	.word	0x50020020
2ffe0ac8:	2ffe4ff4 	.word	0x2ffe4ff4

2ffe0acc <stm32mp1_syscfg_init>:
2ffe0acc:	4b1d      	ldr	r3, [pc, #116]	; (2ffe0b44 <stm32mp1_syscfg_init+0x78>)
2ffe0ace:	f44f 7200 	mov.w	r2, #512	; 0x200
2ffe0ad2:	b513      	push	{r0, r1, r4, lr}
2ffe0ad4:	601a      	str	r2, [r3, #0]
2ffe0ad6:	4a1c      	ldr	r2, [pc, #112]	; (2ffe0b48 <stm32mp1_syscfg_init+0x7c>)
2ffe0ad8:	481c      	ldr	r0, [pc, #112]	; (2ffe0b4c <stm32mp1_syscfg_init+0x80>)
2ffe0ada:	6813      	ldr	r3, [r2, #0]
2ffe0adc:	6811      	ldr	r1, [r2, #0]
2ffe0ade:	011b      	lsls	r3, r3, #4
2ffe0ae0:	f021 0170 	bic.w	r1, r1, #112	; 0x70
2ffe0ae4:	f003 0370 	and.w	r3, r3, #112	; 0x70
2ffe0ae8:	430b      	orrs	r3, r1
2ffe0aea:	a901      	add	r1, sp, #4
2ffe0aec:	6013      	str	r3, [r2, #0]
2ffe0aee:	f7fa fe67 	bl	2ffdb7c0 <stm32_get_otp_value>
2ffe0af2:	b118      	cbz	r0, 2ffe0afc <stm32mp1_syscfg_init+0x30>
2ffe0af4:	f7fa fc0c 	bl	2ffdb310 <console_flush>
2ffe0af8:	f7f5 ebb2 	blx	2ffd6260 <do_panic>
2ffe0afc:	9c01      	ldr	r4, [sp, #4]
2ffe0afe:	f7ff fe4b 	bl	2ffe0798 <dt_get_pwr_vdd_voltage>
2ffe0b02:	b930      	cbnz	r0, 2ffe0b12 <stm32mp1_syscfg_init+0x46>
2ffe0b04:	4812      	ldr	r0, [pc, #72]	; (2ffe0b50 <stm32mp1_syscfg_init+0x84>)
2ffe0b06:	f7fa fb65 	bl	2ffdb1d4 <tf_log>
2ffe0b0a:	f7ff ffab 	bl	2ffe0a64 <stm32mp1_syscfg_enable_io_compensation>
2ffe0b0e:	b002      	add	sp, #8
2ffe0b10:	bd10      	pop	{r4, pc}
2ffe0b12:	4a10      	ldr	r2, [pc, #64]	; (2ffe0b54 <stm32mp1_syscfg_init+0x88>)
2ffe0b14:	f404 5400 	and.w	r4, r4, #8192	; 0x2000
2ffe0b18:	4290      	cmp	r0, r2
2ffe0b1a:	d206      	bcs.n	2ffe0b2a <stm32mp1_syscfg_init+0x5e>
2ffe0b1c:	4a0e      	ldr	r2, [pc, #56]	; (2ffe0b58 <stm32mp1_syscfg_init+0x8c>)
2ffe0b1e:	211f      	movs	r1, #31
2ffe0b20:	6011      	str	r1, [r2, #0]
2ffe0b22:	2c00      	cmp	r4, #0
2ffe0b24:	d1f1      	bne.n	2ffe0b0a <stm32mp1_syscfg_init+0x3e>
2ffe0b26:	480d      	ldr	r0, [pc, #52]	; (2ffe0b5c <stm32mp1_syscfg_init+0x90>)
2ffe0b28:	e7ed      	b.n	2ffe0b06 <stm32mp1_syscfg_init+0x3a>
2ffe0b2a:	2c00      	cmp	r4, #0
2ffe0b2c:	d0ed      	beq.n	2ffe0b0a <stm32mp1_syscfg_init+0x3e>
2ffe0b2e:	480c      	ldr	r0, [pc, #48]	; (2ffe0b60 <stm32mp1_syscfg_init+0x94>)
2ffe0b30:	f7fa fb50 	bl	2ffdb1d4 <tf_log>
2ffe0b34:	480b      	ldr	r0, [pc, #44]	; (2ffe0b64 <stm32mp1_syscfg_init+0x98>)
2ffe0b36:	f7fa fb4d 	bl	2ffdb1d4 <tf_log>
2ffe0b3a:	480b      	ldr	r0, [pc, #44]	; (2ffe0b68 <stm32mp1_syscfg_init+0x9c>)
2ffe0b3c:	f7fa fb4a 	bl	2ffdb1d4 <tf_log>
2ffe0b40:	e7d8      	b.n	2ffe0af4 <stm32mp1_syscfg_init+0x28>
2ffe0b42:	bf00      	nop
2ffe0b44:	5002001c 	.word	0x5002001c
2ffe0b48:	50020000 	.word	0x50020000
2ffe0b4c:	2ffe3bc8 	.word	0x2ffe3bc8
2ffe0b50:	2ffe5015 	.word	0x2ffe5015
2ffe0b54:	002932e0 	.word	0x002932e0
2ffe0b58:	50020018 	.word	0x50020018
2ffe0b5c:	2ffe5022 	.word	0x2ffe5022
2ffe0b60:	2ffe5050 	.word	0x2ffe5050
2ffe0b64:	2ffe5067 	.word	0x2ffe5067
2ffe0b68:	2ffe5088 	.word	0x2ffe5088

2ffe0b6c <__aeabi_uldivmod>:
2ffe0b6c:	e92d4040 	push	{r6, lr}
2ffe0b70:	e24dd010 	sub	sp, sp, #16
2ffe0b74:	e28d6008 	add	r6, sp, #8
2ffe0b78:	e58d6000 	str	r6, [sp]
2ffe0b7c:	faffea07 	blx	2ffdb3a0 <__udivmoddi4>
2ffe0b80:	e59d2008 	ldr	r2, [sp, #8]
2ffe0b84:	e59d300c 	ldr	r3, [sp, #12]
2ffe0b88:	e28dd010 	add	sp, sp, #16
2ffe0b8c:	e8bd8040 	pop	{r6, pc}

2ffe0b90 <fdt32_to_cpu>:
2ffe0b90:	ba00      	rev	r0, r0
2ffe0b92:	4770      	bx	lr

2ffe0b94 <fdt_check_header>:
2ffe0b94:	b508      	push	{r3, lr}
2ffe0b96:	4603      	mov	r3, r0
2ffe0b98:	6800      	ldr	r0, [r0, #0]
2ffe0b9a:	f7ff fff9 	bl	2ffe0b90 <fdt32_to_cpu>
2ffe0b9e:	4a11      	ldr	r2, [pc, #68]	; (2ffe0be4 <fdt_check_header+0x50>)
2ffe0ba0:	4290      	cmp	r0, r2
2ffe0ba2:	d10d      	bne.n	2ffe0bc0 <fdt_check_header+0x2c>
2ffe0ba4:	6958      	ldr	r0, [r3, #20]
2ffe0ba6:	f7ff fff3 	bl	2ffe0b90 <fdt32_to_cpu>
2ffe0baa:	2801      	cmp	r0, #1
2ffe0bac:	d914      	bls.n	2ffe0bd8 <fdt_check_header+0x44>
2ffe0bae:	6998      	ldr	r0, [r3, #24]
2ffe0bb0:	f7ff ffee 	bl	2ffe0b90 <fdt32_to_cpu>
2ffe0bb4:	2811      	cmp	r0, #17
2ffe0bb6:	bf94      	ite	ls
2ffe0bb8:	2000      	movls	r0, #0
2ffe0bba:	f06f 0009 	mvnhi.w	r0, #9
2ffe0bbe:	bd08      	pop	{r3, pc}
2ffe0bc0:	4a09      	ldr	r2, [pc, #36]	; (2ffe0be8 <fdt_check_header+0x54>)
2ffe0bc2:	4290      	cmp	r0, r2
2ffe0bc4:	d10b      	bne.n	2ffe0bde <fdt_check_header+0x4a>
2ffe0bc6:	6a58      	ldr	r0, [r3, #36]	; 0x24
2ffe0bc8:	f7ff ffe2 	bl	2ffe0b90 <fdt32_to_cpu>
2ffe0bcc:	2800      	cmp	r0, #0
2ffe0bce:	bf14      	ite	ne
2ffe0bd0:	2000      	movne	r0, #0
2ffe0bd2:	f06f 0006 	mvneq.w	r0, #6
2ffe0bd6:	e7f2      	b.n	2ffe0bbe <fdt_check_header+0x2a>
2ffe0bd8:	f06f 0009 	mvn.w	r0, #9
2ffe0bdc:	e7ef      	b.n	2ffe0bbe <fdt_check_header+0x2a>
2ffe0bde:	f06f 0008 	mvn.w	r0, #8
2ffe0be2:	e7ec      	b.n	2ffe0bbe <fdt_check_header+0x2a>
2ffe0be4:	d00dfeed 	.word	0xd00dfeed
2ffe0be8:	2ff20112 	.word	0x2ff20112

2ffe0bec <fdt_offset_ptr>:
2ffe0bec:	b538      	push	{r3, r4, r5, lr}
2ffe0bee:	4603      	mov	r3, r0
2ffe0bf0:	6880      	ldr	r0, [r0, #8]
2ffe0bf2:	f7ff ffcd 	bl	2ffe0b90 <fdt32_to_cpu>
2ffe0bf6:	1844      	adds	r4, r0, r1
2ffe0bf8:	d201      	bcs.n	2ffe0bfe <fdt_offset_ptr+0x12>
2ffe0bfa:	18a5      	adds	r5, r4, r2
2ffe0bfc:	d301      	bcc.n	2ffe0c02 <fdt_offset_ptr+0x16>
2ffe0bfe:	2000      	movs	r0, #0
2ffe0c00:	e011      	b.n	2ffe0c26 <fdt_offset_ptr+0x3a>
2ffe0c02:	6858      	ldr	r0, [r3, #4]
2ffe0c04:	f7ff ffc4 	bl	2ffe0b90 <fdt32_to_cpu>
2ffe0c08:	4285      	cmp	r5, r0
2ffe0c0a:	d8f8      	bhi.n	2ffe0bfe <fdt_offset_ptr+0x12>
2ffe0c0c:	6958      	ldr	r0, [r3, #20]
2ffe0c0e:	f7ff ffbf 	bl	2ffe0b90 <fdt32_to_cpu>
2ffe0c12:	2810      	cmp	r0, #16
2ffe0c14:	d906      	bls.n	2ffe0c24 <fdt_offset_ptr+0x38>
2ffe0c16:	1889      	adds	r1, r1, r2
2ffe0c18:	d2f1      	bcs.n	2ffe0bfe <fdt_offset_ptr+0x12>
2ffe0c1a:	6a58      	ldr	r0, [r3, #36]	; 0x24
2ffe0c1c:	f7ff ffb8 	bl	2ffe0b90 <fdt32_to_cpu>
2ffe0c20:	4281      	cmp	r1, r0
2ffe0c22:	d8ec      	bhi.n	2ffe0bfe <fdt_offset_ptr+0x12>
2ffe0c24:	1918      	adds	r0, r3, r4
2ffe0c26:	bd38      	pop	{r3, r4, r5, pc}

2ffe0c28 <fdt_next_tag>:
2ffe0c28:	f06f 0307 	mvn.w	r3, #7
2ffe0c2c:	e92d 41f0 	stmdb	sp!, {r4, r5, r6, r7, r8, lr}
2ffe0c30:	4690      	mov	r8, r2
2ffe0c32:	6013      	str	r3, [r2, #0]
2ffe0c34:	2204      	movs	r2, #4
2ffe0c36:	4606      	mov	r6, r0
2ffe0c38:	460f      	mov	r7, r1
2ffe0c3a:	f7ff ffd7 	bl	2ffe0bec <fdt_offset_ptr>
2ffe0c3e:	b908      	cbnz	r0, 2ffe0c44 <fdt_next_tag+0x1c>
2ffe0c40:	2509      	movs	r5, #9
2ffe0c42:	e038      	b.n	2ffe0cb6 <fdt_next_tag+0x8e>
2ffe0c44:	6800      	ldr	r0, [r0, #0]
2ffe0c46:	1d3c      	adds	r4, r7, #4
2ffe0c48:	f7ff ffa2 	bl	2ffe0b90 <fdt32_to_cpu>
2ffe0c4c:	f06f 030a 	mvn.w	r3, #10
2ffe0c50:	4605      	mov	r5, r0
2ffe0c52:	f8c8 3000 	str.w	r3, [r8]
2ffe0c56:	1e43      	subs	r3, r0, #1
2ffe0c58:	2b08      	cmp	r3, #8
2ffe0c5a:	d8f1      	bhi.n	2ffe0c40 <fdt_next_tag+0x18>
2ffe0c5c:	a201      	add	r2, pc, #4	; (adr r2, 2ffe0c64 <fdt_next_tag+0x3c>)
2ffe0c5e:	f852 f023 	ldr.w	pc, [r2, r3, lsl #2]
2ffe0c62:	bf00      	nop
2ffe0c64:	2ffe0c89 	.word	0x2ffe0c89
2ffe0c68:	2ffe0c9f 	.word	0x2ffe0c9f
2ffe0c6c:	2ffe0cbd 	.word	0x2ffe0cbd
2ffe0c70:	2ffe0c9f 	.word	0x2ffe0c9f
2ffe0c74:	2ffe0c41 	.word	0x2ffe0c41
2ffe0c78:	2ffe0c41 	.word	0x2ffe0c41
2ffe0c7c:	2ffe0c41 	.word	0x2ffe0c41
2ffe0c80:	2ffe0c41 	.word	0x2ffe0c41
2ffe0c84:	2ffe0c9f 	.word	0x2ffe0c9f
2ffe0c88:	4621      	mov	r1, r4
2ffe0c8a:	2201      	movs	r2, #1
2ffe0c8c:	4414      	add	r4, r2
2ffe0c8e:	4630      	mov	r0, r6
2ffe0c90:	f7ff ffac 	bl	2ffe0bec <fdt_offset_ptr>
2ffe0c94:	2800      	cmp	r0, #0
2ffe0c96:	d0d3      	beq.n	2ffe0c40 <fdt_next_tag+0x18>
2ffe0c98:	7803      	ldrb	r3, [r0, #0]
2ffe0c9a:	2b00      	cmp	r3, #0
2ffe0c9c:	d1f4      	bne.n	2ffe0c88 <fdt_next_tag+0x60>
2ffe0c9e:	1be2      	subs	r2, r4, r7
2ffe0ca0:	4639      	mov	r1, r7
2ffe0ca2:	4630      	mov	r0, r6
2ffe0ca4:	f7ff ffa2 	bl	2ffe0bec <fdt_offset_ptr>
2ffe0ca8:	2800      	cmp	r0, #0
2ffe0caa:	d0c9      	beq.n	2ffe0c40 <fdt_next_tag+0x18>
2ffe0cac:	3403      	adds	r4, #3
2ffe0cae:	f024 0403 	bic.w	r4, r4, #3
2ffe0cb2:	f8c8 4000 	str.w	r4, [r8]
2ffe0cb6:	4628      	mov	r0, r5
2ffe0cb8:	e8bd 81f0 	ldmia.w	sp!, {r4, r5, r6, r7, r8, pc}
2ffe0cbc:	2204      	movs	r2, #4
2ffe0cbe:	4621      	mov	r1, r4
2ffe0cc0:	4630      	mov	r0, r6
2ffe0cc2:	f7ff ff93 	bl	2ffe0bec <fdt_offset_ptr>
2ffe0cc6:	2800      	cmp	r0, #0
2ffe0cc8:	d0ba      	beq.n	2ffe0c40 <fdt_next_tag+0x18>
2ffe0cca:	6800      	ldr	r0, [r0, #0]
2ffe0ccc:	f7ff ff60 	bl	2ffe0b90 <fdt32_to_cpu>
2ffe0cd0:	f107 020c 	add.w	r2, r7, #12
2ffe0cd4:	4603      	mov	r3, r0
2ffe0cd6:	1884      	adds	r4, r0, r2
2ffe0cd8:	6970      	ldr	r0, [r6, #20]
2ffe0cda:	f7ff ff59 	bl	2ffe0b90 <fdt32_to_cpu>
2ffe0cde:	280f      	cmp	r0, #15
2ffe0ce0:	d8dd      	bhi.n	2ffe0c9e <fdt_next_tag+0x76>
2ffe0ce2:	2b07      	cmp	r3, #7
2ffe0ce4:	d9db      	bls.n	2ffe0c9e <fdt_next_tag+0x76>
2ffe0ce6:	0753      	lsls	r3, r2, #29
2ffe0ce8:	bf18      	it	ne
2ffe0cea:	3404      	addne	r4, #4
2ffe0cec:	e7d7      	b.n	2ffe0c9e <fdt_next_tag+0x76>
2ffe0cee:	bf00      	nop

2ffe0cf0 <fdt_check_node_offset_>:
2ffe0cf0:	1e0b      	subs	r3, r1, #0
2ffe0cf2:	b507      	push	{r0, r1, r2, lr}
2ffe0cf4:	9101      	str	r1, [sp, #4]
2ffe0cf6:	da04      	bge.n	2ffe0d02 <fdt_check_node_offset_+0x12>
2ffe0cf8:	f06f 0003 	mvn.w	r0, #3
2ffe0cfc:	b003      	add	sp, #12
2ffe0cfe:	f85d fb04 	ldr.w	pc, [sp], #4
2ffe0d02:	079b      	lsls	r3, r3, #30
2ffe0d04:	d1f8      	bne.n	2ffe0cf8 <fdt_check_node_offset_+0x8>
2ffe0d06:	aa01      	add	r2, sp, #4
2ffe0d08:	f7ff ff8e 	bl	2ffe0c28 <fdt_next_tag>
2ffe0d0c:	2801      	cmp	r0, #1
2ffe0d0e:	d1f3      	bne.n	2ffe0cf8 <fdt_check_node_offset_+0x8>
2ffe0d10:	9801      	ldr	r0, [sp, #4]
2ffe0d12:	e7f3      	b.n	2ffe0cfc <fdt_check_node_offset_+0xc>

2ffe0d14 <fdt_check_prop_offset_>:
2ffe0d14:	1e0b      	subs	r3, r1, #0
2ffe0d16:	b507      	push	{r0, r1, r2, lr}
2ffe0d18:	9101      	str	r1, [sp, #4]
2ffe0d1a:	da04      	bge.n	2ffe0d26 <fdt_check_prop_offset_+0x12>
2ffe0d1c:	f06f 0003 	mvn.w	r0, #3
2ffe0d20:	b003      	add	sp, #12
2ffe0d22:	f85d fb04 	ldr.w	pc, [sp], #4
2ffe0d26:	079b      	lsls	r3, r3, #30
2ffe0d28:	d1f8      	bne.n	2ffe0d1c <fdt_check_prop_offset_+0x8>
2ffe0d2a:	aa01      	add	r2, sp, #4
2ffe0d2c:	f7ff ff7c 	bl	2ffe0c28 <fdt_next_tag>
2ffe0d30:	2803      	cmp	r0, #3
2ffe0d32:	d1f3      	bne.n	2ffe0d1c <fdt_check_prop_offset_+0x8>
2ffe0d34:	9801      	ldr	r0, [sp, #4]
2ffe0d36:	e7f3      	b.n	2ffe0d20 <fdt_check_prop_offset_+0xc>

2ffe0d38 <fdt_next_node>:
2ffe0d38:	2300      	movs	r3, #0
2ffe0d3a:	4299      	cmp	r1, r3
2ffe0d3c:	b573      	push	{r0, r1, r4, r5, r6, lr}
2ffe0d3e:	4606      	mov	r6, r0
2ffe0d40:	9301      	str	r3, [sp, #4]
2ffe0d42:	4615      	mov	r5, r2
2ffe0d44:	db05      	blt.n	2ffe0d52 <fdt_next_node+0x1a>
2ffe0d46:	f7ff ffd3 	bl	2ffe0cf0 <fdt_check_node_offset_>
2ffe0d4a:	9001      	str	r0, [sp, #4]
2ffe0d4c:	2800      	cmp	r0, #0
2ffe0d4e:	4604      	mov	r4, r0
2ffe0d50:	db0f      	blt.n	2ffe0d72 <fdt_next_node+0x3a>
2ffe0d52:	9c01      	ldr	r4, [sp, #4]
2ffe0d54:	aa01      	add	r2, sp, #4
2ffe0d56:	4630      	mov	r0, r6
2ffe0d58:	4621      	mov	r1, r4
2ffe0d5a:	f7ff ff65 	bl	2ffe0c28 <fdt_next_tag>
2ffe0d5e:	2802      	cmp	r0, #2
2ffe0d60:	d00a      	beq.n	2ffe0d78 <fdt_next_node+0x40>
2ffe0d62:	2809      	cmp	r0, #9
2ffe0d64:	d011      	beq.n	2ffe0d8a <fdt_next_node+0x52>
2ffe0d66:	2801      	cmp	r0, #1
2ffe0d68:	d1f3      	bne.n	2ffe0d52 <fdt_next_node+0x1a>
2ffe0d6a:	b115      	cbz	r5, 2ffe0d72 <fdt_next_node+0x3a>
2ffe0d6c:	682b      	ldr	r3, [r5, #0]
2ffe0d6e:	3301      	adds	r3, #1
2ffe0d70:	602b      	str	r3, [r5, #0]
2ffe0d72:	4620      	mov	r0, r4
2ffe0d74:	b002      	add	sp, #8
2ffe0d76:	bd70      	pop	{r4, r5, r6, pc}
2ffe0d78:	2d00      	cmp	r5, #0
2ffe0d7a:	d0ea      	beq.n	2ffe0d52 <fdt_next_node+0x1a>
2ffe0d7c:	682b      	ldr	r3, [r5, #0]
2ffe0d7e:	3b01      	subs	r3, #1
2ffe0d80:	602b      	str	r3, [r5, #0]
2ffe0d82:	2b00      	cmp	r3, #0
2ffe0d84:	dae5      	bge.n	2ffe0d52 <fdt_next_node+0x1a>
2ffe0d86:	9c01      	ldr	r4, [sp, #4]
2ffe0d88:	e7f3      	b.n	2ffe0d72 <fdt_next_node+0x3a>
2ffe0d8a:	9c01      	ldr	r4, [sp, #4]
2ffe0d8c:	2c00      	cmp	r4, #0
2ffe0d8e:	da07      	bge.n	2ffe0da0 <fdt_next_node+0x68>
2ffe0d90:	f114 0f08 	cmn.w	r4, #8
2ffe0d94:	d1ed      	bne.n	2ffe0d72 <fdt_next_node+0x3a>
2ffe0d96:	2d00      	cmp	r5, #0
2ffe0d98:	bf08      	it	eq
2ffe0d9a:	f04f 34ff 	moveq.w	r4, #4294967295	; 0xffffffff
2ffe0d9e:	e7e8      	b.n	2ffe0d72 <fdt_next_node+0x3a>
2ffe0da0:	f04f 34ff 	mov.w	r4, #4294967295	; 0xffffffff
2ffe0da4:	e7e5      	b.n	2ffe0d72 <fdt_next_node+0x3a>

2ffe0da6 <fdt_first_subnode>:
2ffe0da6:	b507      	push	{r0, r1, r2, lr}
2ffe0da8:	2300      	movs	r3, #0
2ffe0daa:	9301      	str	r3, [sp, #4]
2ffe0dac:	aa01      	add	r2, sp, #4
2ffe0dae:	f7ff ffc3 	bl	2ffe0d38 <fdt_next_node>
2ffe0db2:	2800      	cmp	r0, #0
2ffe0db4:	db07      	blt.n	2ffe0dc6 <fdt_first_subnode+0x20>
2ffe0db6:	9b01      	ldr	r3, [sp, #4]
2ffe0db8:	2b01      	cmp	r3, #1
2ffe0dba:	bf18      	it	ne
2ffe0dbc:	f04f 30ff 	movne.w	r0, #4294967295	; 0xffffffff
2ffe0dc0:	b003      	add	sp, #12
2ffe0dc2:	f85d fb04 	ldr.w	pc, [sp], #4
2ffe0dc6:	f04f 30ff 	mov.w	r0, #4294967295	; 0xffffffff
2ffe0dca:	e7f9      	b.n	2ffe0dc0 <fdt_first_subnode+0x1a>

2ffe0dcc <fdt_next_subnode>:
2ffe0dcc:	b513      	push	{r0, r1, r4, lr}
2ffe0dce:	4604      	mov	r4, r0
2ffe0dd0:	2301      	movs	r3, #1
2ffe0dd2:	9301      	str	r3, [sp, #4]
2ffe0dd4:	aa01      	add	r2, sp, #4
2ffe0dd6:	4620      	mov	r0, r4
2ffe0dd8:	f7ff ffae 	bl	2ffe0d38 <fdt_next_node>
2ffe0ddc:	1e01      	subs	r1, r0, #0
2ffe0dde:	db07      	blt.n	2ffe0df0 <fdt_next_subnode+0x24>
2ffe0de0:	9b01      	ldr	r3, [sp, #4]
2ffe0de2:	2b00      	cmp	r3, #0
2ffe0de4:	dd04      	ble.n	2ffe0df0 <fdt_next_subnode+0x24>
2ffe0de6:	2b01      	cmp	r3, #1
2ffe0de8:	d1f4      	bne.n	2ffe0dd4 <fdt_next_subnode+0x8>
2ffe0dea:	4608      	mov	r0, r1
2ffe0dec:	b002      	add	sp, #8
2ffe0dee:	bd10      	pop	{r4, pc}
2ffe0df0:	f04f 31ff 	mov.w	r1, #4294967295	; 0xffffffff
2ffe0df4:	e7f9      	b.n	2ffe0dea <fdt_next_subnode+0x1e>
	...

2ffe0df8 <fdt_address_cells>:
2ffe0df8:	b507      	push	{r0, r1, r2, lr}
2ffe0dfa:	ab01      	add	r3, sp, #4
2ffe0dfc:	4a0f      	ldr	r2, [pc, #60]	; (2ffe0e3c <fdt_address_cells+0x44>)
2ffe0dfe:	f000 f94e 	bl	2ffe109e <fdt_getprop>
2ffe0e02:	b1b0      	cbz	r0, 2ffe0e32 <fdt_address_cells+0x3a>
2ffe0e04:	9b01      	ldr	r3, [sp, #4]
2ffe0e06:	2b04      	cmp	r3, #4
2ffe0e08:	d115      	bne.n	2ffe0e36 <fdt_address_cells+0x3e>
2ffe0e0a:	6803      	ldr	r3, [r0, #0]
2ffe0e0c:	0e18      	lsrs	r0, r3, #24
2ffe0e0e:	f3c3 2207 	ubfx	r2, r3, #8, #8
2ffe0e12:	ea40 6003 	orr.w	r0, r0, r3, lsl #24
2ffe0e16:	f3c3 4307 	ubfx	r3, r3, #16, #8
2ffe0e1a:	ea40 4002 	orr.w	r0, r0, r2, lsl #16
2ffe0e1e:	ea40 2003 	orr.w	r0, r0, r3, lsl #8
2ffe0e22:	1e43      	subs	r3, r0, #1
2ffe0e24:	2b04      	cmp	r3, #4
2ffe0e26:	bf28      	it	cs
2ffe0e28:	f06f 000d 	mvncs.w	r0, #13
2ffe0e2c:	b003      	add	sp, #12
2ffe0e2e:	f85d fb04 	ldr.w	pc, [sp], #4
2ffe0e32:	2002      	movs	r0, #2
2ffe0e34:	e7fa      	b.n	2ffe0e2c <fdt_address_cells+0x34>
2ffe0e36:	f06f 000d 	mvn.w	r0, #13
2ffe0e3a:	e7f7      	b.n	2ffe0e2c <fdt_address_cells+0x34>
2ffe0e3c:	2ffe5204 	.word	0x2ffe5204

2ffe0e40 <fdt32_to_cpu>:
2ffe0e40:	ba00      	rev	r0, r0
2ffe0e42:	4770      	bx	lr

2ffe0e44 <nextprop_>:
2ffe0e44:	b537      	push	{r0, r1, r2, r4, r5, lr}
2ffe0e46:	4605      	mov	r5, r0
2ffe0e48:	460c      	mov	r4, r1
2ffe0e4a:	aa01      	add	r2, sp, #4
2ffe0e4c:	4621      	mov	r1, r4
2ffe0e4e:	4628      	mov	r0, r5
2ffe0e50:	f7ff feea 	bl	2ffe0c28 <fdt_next_tag>
2ffe0e54:	2803      	cmp	r0, #3
2ffe0e56:	d006      	beq.n	2ffe0e66 <nextprop_+0x22>
2ffe0e58:	9c01      	ldr	r4, [sp, #4]
2ffe0e5a:	2809      	cmp	r0, #9
2ffe0e5c:	d106      	bne.n	2ffe0e6c <nextprop_+0x28>
2ffe0e5e:	2c00      	cmp	r4, #0
2ffe0e60:	bfa8      	it	ge
2ffe0e62:	f06f 040a 	mvnge.w	r4, #10
2ffe0e66:	4620      	mov	r0, r4
2ffe0e68:	b003      	add	sp, #12
2ffe0e6a:	bd30      	pop	{r4, r5, pc}
2ffe0e6c:	2804      	cmp	r0, #4
2ffe0e6e:	d0ec      	beq.n	2ffe0e4a <nextprop_+0x6>
2ffe0e70:	f04f 34ff 	mov.w	r4, #4294967295	; 0xffffffff
2ffe0e74:	e7f7      	b.n	2ffe0e66 <nextprop_+0x22>

2ffe0e76 <fdt_get_property_by_offset_>:
2ffe0e76:	b570      	push	{r4, r5, r6, lr}
2ffe0e78:	4604      	mov	r4, r0
2ffe0e7a:	460e      	mov	r6, r1
2ffe0e7c:	4615      	mov	r5, r2
2ffe0e7e:	f7ff ff49 	bl	2ffe0d14 <fdt_check_prop_offset_>
2ffe0e82:	2800      	cmp	r0, #0
2ffe0e84:	da04      	bge.n	2ffe0e90 <fdt_get_property_by_offset_+0x1a>
2ffe0e86:	b17d      	cbz	r5, 2ffe0ea8 <fdt_get_property_by_offset_+0x32>
2ffe0e88:	6028      	str	r0, [r5, #0]
2ffe0e8a:	2100      	movs	r1, #0
2ffe0e8c:	4608      	mov	r0, r1
2ffe0e8e:	bd70      	pop	{r4, r5, r6, pc}
2ffe0e90:	68a0      	ldr	r0, [r4, #8]
2ffe0e92:	f7ff ffd5 	bl	2ffe0e40 <fdt32_to_cpu>
2ffe0e96:	1831      	adds	r1, r6, r0
2ffe0e98:	4421      	add	r1, r4
2ffe0e9a:	2d00      	cmp	r5, #0
2ffe0e9c:	d0f6      	beq.n	2ffe0e8c <fdt_get_property_by_offset_+0x16>
2ffe0e9e:	6848      	ldr	r0, [r1, #4]
2ffe0ea0:	f7ff ffce 	bl	2ffe0e40 <fdt32_to_cpu>
2ffe0ea4:	6028      	str	r0, [r5, #0]
2ffe0ea6:	e7f1      	b.n	2ffe0e8c <fdt_get_property_by_offset_+0x16>
2ffe0ea8:	4629      	mov	r1, r5
2ffe0eaa:	e7ef      	b.n	2ffe0e8c <fdt_get_property_by_offset_+0x16>

2ffe0eac <fdt_string>:
2ffe0eac:	b508      	push	{r3, lr}
2ffe0eae:	4603      	mov	r3, r0
2ffe0eb0:	68c0      	ldr	r0, [r0, #12]
2ffe0eb2:	f7ff ffc5 	bl	2ffe0e40 <fdt32_to_cpu>
2ffe0eb6:	4408      	add	r0, r1
2ffe0eb8:	4418      	add	r0, r3
2ffe0eba:	bd08      	pop	{r3, pc}

2ffe0ebc <fdt_get_name>:
2ffe0ebc:	b5f8      	push	{r3, r4, r5, r6, r7, lr}
2ffe0ebe:	4606      	mov	r6, r0
2ffe0ec0:	6887      	ldr	r7, [r0, #8]
2ffe0ec2:	460c      	mov	r4, r1
2ffe0ec4:	4615      	mov	r5, r2
2ffe0ec6:	f7ff fe65 	bl	2ffe0b94 <fdt_check_header>
2ffe0eca:	bb00      	cbnz	r0, 2ffe0f0e <fdt_get_name+0x52>
2ffe0ecc:	4621      	mov	r1, r4
2ffe0ece:	4630      	mov	r0, r6
2ffe0ed0:	f7ff ff0e 	bl	2ffe0cf0 <fdt_check_node_offset_>
2ffe0ed4:	2800      	cmp	r0, #0
2ffe0ed6:	db1a      	blt.n	2ffe0f0e <fdt_get_name+0x52>
2ffe0ed8:	4638      	mov	r0, r7
2ffe0eda:	f7ff ffb1 	bl	2ffe0e40 <fdt32_to_cpu>
2ffe0ede:	4404      	add	r4, r0
2ffe0ee0:	6970      	ldr	r0, [r6, #20]
2ffe0ee2:	4434      	add	r4, r6
2ffe0ee4:	f7ff ffac 	bl	2ffe0e40 <fdt32_to_cpu>
2ffe0ee8:	280f      	cmp	r0, #15
2ffe0eea:	f104 0404 	add.w	r4, r4, #4
2ffe0eee:	d805      	bhi.n	2ffe0efc <fdt_get_name+0x40>
2ffe0ef0:	212f      	movs	r1, #47	; 0x2f
2ffe0ef2:	4620      	mov	r0, r4
2ffe0ef4:	f000 fcbd 	bl	2ffe1872 <strrchr>
2ffe0ef8:	b138      	cbz	r0, 2ffe0f0a <fdt_get_name+0x4e>
2ffe0efa:	1c44      	adds	r4, r0, #1
2ffe0efc:	b11d      	cbz	r5, 2ffe0f06 <fdt_get_name+0x4a>
2ffe0efe:	4620      	mov	r0, r4
2ffe0f00:	f000 fc91 	bl	2ffe1826 <strlen>
2ffe0f04:	6028      	str	r0, [r5, #0]
2ffe0f06:	4620      	mov	r0, r4
2ffe0f08:	bdf8      	pop	{r3, r4, r5, r6, r7, pc}
2ffe0f0a:	f06f 000a 	mvn.w	r0, #10
2ffe0f0e:	b115      	cbz	r5, 2ffe0f16 <fdt_get_name+0x5a>
2ffe0f10:	6028      	str	r0, [r5, #0]
2ffe0f12:	2400      	movs	r4, #0
2ffe0f14:	e7f7      	b.n	2ffe0f06 <fdt_get_name+0x4a>
2ffe0f16:	462c      	mov	r4, r5
2ffe0f18:	e7f5      	b.n	2ffe0f06 <fdt_get_name+0x4a>

2ffe0f1a <fdt_subnode_offset_namelen>:
2ffe0f1a:	e92d 41f3 	stmdb	sp!, {r0, r1, r4, r5, r6, r7, r8, lr}
2ffe0f1e:	4607      	mov	r7, r0
2ffe0f20:	460e      	mov	r6, r1
2ffe0f22:	4690      	mov	r8, r2
2ffe0f24:	461d      	mov	r5, r3
2ffe0f26:	f7ff fe35 	bl	2ffe0b94 <fdt_check_header>
2ffe0f2a:	4604      	mov	r4, r0
2ffe0f2c:	b940      	cbnz	r0, 2ffe0f40 <fdt_subnode_offset_namelen+0x26>
2ffe0f2e:	9000      	str	r0, [sp, #0]
2ffe0f30:	4634      	mov	r4, r6
2ffe0f32:	9b00      	ldr	r3, [sp, #0]
2ffe0f34:	2c00      	cmp	r4, #0
2ffe0f36:	db2b      	blt.n	2ffe0f90 <fdt_subnode_offset_namelen+0x76>
2ffe0f38:	2b00      	cmp	r3, #0
2ffe0f3a:	da05      	bge.n	2ffe0f48 <fdt_subnode_offset_namelen+0x2e>
2ffe0f3c:	f04f 34ff 	mov.w	r4, #4294967295	; 0xffffffff
2ffe0f40:	4620      	mov	r0, r4
2ffe0f42:	b002      	add	sp, #8
2ffe0f44:	e8bd 81f0 	ldmia.w	sp!, {r4, r5, r6, r7, r8, pc}
2ffe0f48:	2b01      	cmp	r3, #1
2ffe0f4a:	d11a      	bne.n	2ffe0f82 <fdt_subnode_offset_namelen+0x68>
2ffe0f4c:	aa01      	add	r2, sp, #4
2ffe0f4e:	4621      	mov	r1, r4
2ffe0f50:	4638      	mov	r0, r7
2ffe0f52:	f7ff ffb3 	bl	2ffe0ebc <fdt_get_name>
2ffe0f56:	4606      	mov	r6, r0
2ffe0f58:	b198      	cbz	r0, 2ffe0f82 <fdt_subnode_offset_namelen+0x68>
2ffe0f5a:	9b01      	ldr	r3, [sp, #4]
2ffe0f5c:	429d      	cmp	r5, r3
2ffe0f5e:	dc10      	bgt.n	2ffe0f82 <fdt_subnode_offset_namelen+0x68>
2ffe0f60:	462a      	mov	r2, r5
2ffe0f62:	4641      	mov	r1, r8
2ffe0f64:	f000 fa52 	bl	2ffe140c <memcmp>
2ffe0f68:	b958      	cbnz	r0, 2ffe0f82 <fdt_subnode_offset_namelen+0x68>
2ffe0f6a:	5d73      	ldrb	r3, [r6, r5]
2ffe0f6c:	2b00      	cmp	r3, #0
2ffe0f6e:	d0e7      	beq.n	2ffe0f40 <fdt_subnode_offset_namelen+0x26>
2ffe0f70:	462a      	mov	r2, r5
2ffe0f72:	2140      	movs	r1, #64	; 0x40
2ffe0f74:	4640      	mov	r0, r8
2ffe0f76:	f000 fa3b 	bl	2ffe13f0 <memchr>
2ffe0f7a:	b910      	cbnz	r0, 2ffe0f82 <fdt_subnode_offset_namelen+0x68>
2ffe0f7c:	5d73      	ldrb	r3, [r6, r5]
2ffe0f7e:	2b40      	cmp	r3, #64	; 0x40
2ffe0f80:	d0de      	beq.n	2ffe0f40 <fdt_subnode_offset_namelen+0x26>
2ffe0f82:	4621      	mov	r1, r4
2ffe0f84:	466a      	mov	r2, sp
2ffe0f86:	4638      	mov	r0, r7
2ffe0f88:	f7ff fed6 	bl	2ffe0d38 <fdt_next_node>
2ffe0f8c:	4604      	mov	r4, r0
2ffe0f8e:	e7d0      	b.n	2ffe0f32 <fdt_subnode_offset_namelen+0x18>
2ffe0f90:	2b00      	cmp	r3, #0
2ffe0f92:	bfb8      	it	lt
2ffe0f94:	f04f 34ff 	movlt.w	r4, #4294967295	; 0xffffffff
2ffe0f98:	e7d2      	b.n	2ffe0f40 <fdt_subnode_offset_namelen+0x26>

2ffe0f9a <fdt_subnode_offset>:
2ffe0f9a:	b570      	push	{r4, r5, r6, lr}
2ffe0f9c:	4605      	mov	r5, r0
2ffe0f9e:	4610      	mov	r0, r2
2ffe0fa0:	460e      	mov	r6, r1
2ffe0fa2:	4614      	mov	r4, r2
2ffe0fa4:	f000 fc3f 	bl	2ffe1826 <strlen>
2ffe0fa8:	4603      	mov	r3, r0
2ffe0faa:	4622      	mov	r2, r4
2ffe0fac:	4631      	mov	r1, r6
2ffe0fae:	4628      	mov	r0, r5
2ffe0fb0:	e8bd 4070 	ldmia.w	sp!, {r4, r5, r6, lr}
2ffe0fb4:	f7ff bfb1 	b.w	2ffe0f1a <fdt_subnode_offset_namelen>

2ffe0fb8 <fdt_first_property_offset>:
2ffe0fb8:	b510      	push	{r4, lr}
2ffe0fba:	4604      	mov	r4, r0
2ffe0fbc:	f7ff fe98 	bl	2ffe0cf0 <fdt_check_node_offset_>
2ffe0fc0:	1e01      	subs	r1, r0, #0
2ffe0fc2:	db04      	blt.n	2ffe0fce <fdt_first_property_offset+0x16>
2ffe0fc4:	4620      	mov	r0, r4
2ffe0fc6:	e8bd 4010 	ldmia.w	sp!, {r4, lr}
2ffe0fca:	f7ff bf3b 	b.w	2ffe0e44 <nextprop_>
2ffe0fce:	bd10      	pop	{r4, pc}

2ffe0fd0 <fdt_next_property_offset>:
2ffe0fd0:	b510      	push	{r4, lr}
2ffe0fd2:	4604      	mov	r4, r0
2ffe0fd4:	f7ff fe9e 	bl	2ffe0d14 <fdt_check_prop_offset_>
2ffe0fd8:	1e01      	subs	r1, r0, #0
2ffe0fda:	db04      	blt.n	2ffe0fe6 <fdt_next_property_offset+0x16>
2ffe0fdc:	4620      	mov	r0, r4
2ffe0fde:	e8bd 4010 	ldmia.w	sp!, {r4, lr}
2ffe0fe2:	f7ff bf2f 	b.w	2ffe0e44 <nextprop_>
2ffe0fe6:	bd10      	pop	{r4, pc}

2ffe0fe8 <fdt_get_property_namelen_>:
2ffe0fe8:	e92d 4ff8 	stmdb	sp!, {r3, r4, r5, r6, r7, r8, r9, sl, fp, lr}
2ffe0fec:	4606      	mov	r6, r0
2ffe0fee:	9f0a      	ldr	r7, [sp, #40]	; 0x28
2ffe0ff0:	4691      	mov	r9, r2
2ffe0ff2:	f8dd b02c 	ldr.w	fp, [sp, #44]	; 0x2c
2ffe0ff6:	4698      	mov	r8, r3
2ffe0ff8:	f7ff ffde 	bl	2ffe0fb8 <fdt_first_property_offset>
2ffe0ffc:	2800      	cmp	r0, #0
2ffe0ffe:	4604      	mov	r4, r0
2ffe1000:	da03      	bge.n	2ffe100a <fdt_get_property_namelen_+0x22>
2ffe1002:	b35f      	cbz	r7, 2ffe105c <fdt_get_property_namelen_+0x74>
2ffe1004:	603c      	str	r4, [r7, #0]
2ffe1006:	2500      	movs	r5, #0
2ffe1008:	e01d      	b.n	2ffe1046 <fdt_get_property_namelen_+0x5e>
2ffe100a:	463a      	mov	r2, r7
2ffe100c:	4621      	mov	r1, r4
2ffe100e:	4630      	mov	r0, r6
2ffe1010:	f7ff ff31 	bl	2ffe0e76 <fdt_get_property_by_offset_>
2ffe1014:	4605      	mov	r5, r0
2ffe1016:	b1f0      	cbz	r0, 2ffe1056 <fdt_get_property_namelen_+0x6e>
2ffe1018:	6880      	ldr	r0, [r0, #8]
2ffe101a:	f7ff ff11 	bl	2ffe0e40 <fdt32_to_cpu>
2ffe101e:	4601      	mov	r1, r0
2ffe1020:	4630      	mov	r0, r6
2ffe1022:	f7ff ff43 	bl	2ffe0eac <fdt_string>
2ffe1026:	4682      	mov	sl, r0
2ffe1028:	f000 fbfd 	bl	2ffe1826 <strlen>
2ffe102c:	4540      	cmp	r0, r8
2ffe102e:	d10d      	bne.n	2ffe104c <fdt_get_property_namelen_+0x64>
2ffe1030:	4642      	mov	r2, r8
2ffe1032:	4649      	mov	r1, r9
2ffe1034:	4650      	mov	r0, sl
2ffe1036:	f000 f9e9 	bl	2ffe140c <memcmp>
2ffe103a:	b938      	cbnz	r0, 2ffe104c <fdt_get_property_namelen_+0x64>
2ffe103c:	f1bb 0f00 	cmp.w	fp, #0
2ffe1040:	d001      	beq.n	2ffe1046 <fdt_get_property_namelen_+0x5e>
2ffe1042:	f8cb 4000 	str.w	r4, [fp]
2ffe1046:	4628      	mov	r0, r5
2ffe1048:	e8bd 8ff8 	ldmia.w	sp!, {r3, r4, r5, r6, r7, r8, r9, sl, fp, pc}
2ffe104c:	4621      	mov	r1, r4
2ffe104e:	4630      	mov	r0, r6
2ffe1050:	f7ff ffbe 	bl	2ffe0fd0 <fdt_next_property_offset>
2ffe1054:	e7d2      	b.n	2ffe0ffc <fdt_get_property_namelen_+0x14>
2ffe1056:	f06f 040c 	mvn.w	r4, #12
2ffe105a:	e7d2      	b.n	2ffe1002 <fdt_get_property_namelen_+0x1a>
2ffe105c:	463d      	mov	r5, r7
2ffe105e:	e7f2      	b.n	2ffe1046 <fdt_get_property_namelen_+0x5e>

2ffe1060 <fdt_getprop_namelen>:
2ffe1060:	b530      	push	{r4, r5, lr}
2ffe1062:	b085      	sub	sp, #20
2ffe1064:	ad03      	add	r5, sp, #12
2ffe1066:	4604      	mov	r4, r0
2ffe1068:	9501      	str	r5, [sp, #4]
2ffe106a:	9d08      	ldr	r5, [sp, #32]
2ffe106c:	9500      	str	r5, [sp, #0]
2ffe106e:	f7ff ffbb 	bl	2ffe0fe8 <fdt_get_property_namelen_>
2ffe1072:	4603      	mov	r3, r0
2ffe1074:	b170      	cbz	r0, 2ffe1094 <fdt_getprop_namelen+0x34>
2ffe1076:	6960      	ldr	r0, [r4, #20]
2ffe1078:	f7ff fee2 	bl	2ffe0e40 <fdt32_to_cpu>
2ffe107c:	280f      	cmp	r0, #15
2ffe107e:	d80c      	bhi.n	2ffe109a <fdt_getprop_namelen+0x3a>
2ffe1080:	9a03      	ldr	r2, [sp, #12]
2ffe1082:	320c      	adds	r2, #12
2ffe1084:	0752      	lsls	r2, r2, #29
2ffe1086:	d008      	beq.n	2ffe109a <fdt_getprop_namelen+0x3a>
2ffe1088:	6858      	ldr	r0, [r3, #4]
2ffe108a:	f7ff fed9 	bl	2ffe0e40 <fdt32_to_cpu>
2ffe108e:	2807      	cmp	r0, #7
2ffe1090:	d903      	bls.n	2ffe109a <fdt_getprop_namelen+0x3a>
2ffe1092:	3310      	adds	r3, #16
2ffe1094:	4618      	mov	r0, r3
2ffe1096:	b005      	add	sp, #20
2ffe1098:	bd30      	pop	{r4, r5, pc}
2ffe109a:	330c      	adds	r3, #12
2ffe109c:	e7fa      	b.n	2ffe1094 <fdt_getprop_namelen+0x34>

2ffe109e <fdt_getprop>:
2ffe109e:	b5f7      	push	{r0, r1, r2, r4, r5, r6, r7, lr}
2ffe10a0:	4605      	mov	r5, r0
2ffe10a2:	4610      	mov	r0, r2
2ffe10a4:	461f      	mov	r7, r3
2ffe10a6:	460e      	mov	r6, r1
2ffe10a8:	4614      	mov	r4, r2
2ffe10aa:	f000 fbbc 	bl	2ffe1826 <strlen>
2ffe10ae:	9700      	str	r7, [sp, #0]
2ffe10b0:	4603      	mov	r3, r0
2ffe10b2:	4622      	mov	r2, r4
2ffe10b4:	4631      	mov	r1, r6
2ffe10b6:	4628      	mov	r0, r5
2ffe10b8:	f7ff ffd2 	bl	2ffe1060 <fdt_getprop_namelen>
2ffe10bc:	b003      	add	sp, #12
2ffe10be:	bdf0      	pop	{r4, r5, r6, r7, pc}

2ffe10c0 <fdt_get_phandle>:
2ffe10c0:	b537      	push	{r0, r1, r2, r4, r5, lr}
2ffe10c2:	ab01      	add	r3, sp, #4
2ffe10c4:	4a0d      	ldr	r2, [pc, #52]	; (2ffe10fc <fdt_get_phandle+0x3c>)
2ffe10c6:	4604      	mov	r4, r0
2ffe10c8:	460d      	mov	r5, r1
2ffe10ca:	f7ff ffe8 	bl	2ffe109e <fdt_getprop>
2ffe10ce:	b110      	cbz	r0, 2ffe10d6 <fdt_get_phandle+0x16>
2ffe10d0:	9b01      	ldr	r3, [sp, #4]
2ffe10d2:	2b04      	cmp	r3, #4
2ffe10d4:	d009      	beq.n	2ffe10ea <fdt_get_phandle+0x2a>
2ffe10d6:	4a0a      	ldr	r2, [pc, #40]	; (2ffe1100 <fdt_get_phandle+0x40>)
2ffe10d8:	ab01      	add	r3, sp, #4
2ffe10da:	4629      	mov	r1, r5
2ffe10dc:	4620      	mov	r0, r4
2ffe10de:	f7ff ffde 	bl	2ffe109e <fdt_getprop>
2ffe10e2:	b140      	cbz	r0, 2ffe10f6 <fdt_get_phandle+0x36>
2ffe10e4:	9b01      	ldr	r3, [sp, #4]
2ffe10e6:	2b04      	cmp	r3, #4
2ffe10e8:	d105      	bne.n	2ffe10f6 <fdt_get_phandle+0x36>
2ffe10ea:	6800      	ldr	r0, [r0, #0]
2ffe10ec:	b003      	add	sp, #12
2ffe10ee:	e8bd 4030 	ldmia.w	sp!, {r4, r5, lr}
2ffe10f2:	f7ff bea5 	b.w	2ffe0e40 <fdt32_to_cpu>
2ffe10f6:	2000      	movs	r0, #0
2ffe10f8:	b003      	add	sp, #12
2ffe10fa:	bd30      	pop	{r4, r5, pc}
2ffe10fc:	2ffe5219 	.word	0x2ffe5219
2ffe1100:	2ffe5213 	.word	0x2ffe5213

2ffe1104 <fdt_get_alias_namelen>:
2ffe1104:	b573      	push	{r0, r1, r4, r5, r6, lr}
2ffe1106:	460d      	mov	r5, r1
2ffe1108:	4908      	ldr	r1, [pc, #32]	; (2ffe112c <fdt_get_alias_namelen+0x28>)
2ffe110a:	4604      	mov	r4, r0
2ffe110c:	4616      	mov	r6, r2
2ffe110e:	f000 f858 	bl	2ffe11c2 <fdt_path_offset>
2ffe1112:	1e01      	subs	r1, r0, #0
2ffe1114:	f04f 0000 	mov.w	r0, #0
2ffe1118:	db05      	blt.n	2ffe1126 <fdt_get_alias_namelen+0x22>
2ffe111a:	9000      	str	r0, [sp, #0]
2ffe111c:	4633      	mov	r3, r6
2ffe111e:	462a      	mov	r2, r5
2ffe1120:	4620      	mov	r0, r4
2ffe1122:	f7ff ff9d 	bl	2ffe1060 <fdt_getprop_namelen>
2ffe1126:	b002      	add	sp, #8
2ffe1128:	bd70      	pop	{r4, r5, r6, pc}
2ffe112a:	bf00      	nop
2ffe112c:	2ffe5221 	.word	0x2ffe5221

2ffe1130 <fdt_path_offset_namelen>:
2ffe1130:	e92d 41f0 	stmdb	sp!, {r4, r5, r6, r7, r8, lr}
2ffe1134:	4607      	mov	r7, r0
2ffe1136:	460c      	mov	r4, r1
2ffe1138:	4690      	mov	r8, r2
2ffe113a:	f7ff fd2b 	bl	2ffe0b94 <fdt_check_header>
2ffe113e:	4605      	mov	r5, r0
2ffe1140:	2800      	cmp	r0, #0
2ffe1142:	d138      	bne.n	2ffe11b6 <fdt_path_offset_namelen+0x86>
2ffe1144:	7823      	ldrb	r3, [r4, #0]
2ffe1146:	eb04 0608 	add.w	r6, r4, r8
2ffe114a:	2b2f      	cmp	r3, #47	; 0x2f
2ffe114c:	d015      	beq.n	2ffe117a <fdt_path_offset_namelen+0x4a>
2ffe114e:	4642      	mov	r2, r8
2ffe1150:	212f      	movs	r1, #47	; 0x2f
2ffe1152:	4620      	mov	r0, r4
2ffe1154:	f000 f94c 	bl	2ffe13f0 <memchr>
2ffe1158:	2800      	cmp	r0, #0
2ffe115a:	bf14      	ite	ne
2ffe115c:	4680      	movne	r8, r0
2ffe115e:	46b0      	moveq	r8, r6
2ffe1160:	4621      	mov	r1, r4
2ffe1162:	eba8 0204 	sub.w	r2, r8, r4
2ffe1166:	4638      	mov	r0, r7
2ffe1168:	f7ff ffcc 	bl	2ffe1104 <fdt_get_alias_namelen>
2ffe116c:	4601      	mov	r1, r0
2ffe116e:	b328      	cbz	r0, 2ffe11bc <fdt_path_offset_namelen+0x8c>
2ffe1170:	4638      	mov	r0, r7
2ffe1172:	4644      	mov	r4, r8
2ffe1174:	f000 f825 	bl	2ffe11c2 <fdt_path_offset>
2ffe1178:	4605      	mov	r5, r0
2ffe117a:	42b4      	cmp	r4, r6
2ffe117c:	d302      	bcc.n	2ffe1184 <fdt_path_offset_namelen+0x54>
2ffe117e:	e01a      	b.n	2ffe11b6 <fdt_path_offset_namelen+0x86>
2ffe1180:	42a6      	cmp	r6, r4
2ffe1182:	d018      	beq.n	2ffe11b6 <fdt_path_offset_namelen+0x86>
2ffe1184:	46a0      	mov	r8, r4
2ffe1186:	3401      	adds	r4, #1
2ffe1188:	f898 3000 	ldrb.w	r3, [r8]
2ffe118c:	2b2f      	cmp	r3, #47	; 0x2f
2ffe118e:	d0f7      	beq.n	2ffe1180 <fdt_path_offset_namelen+0x50>
2ffe1190:	eba6 0208 	sub.w	r2, r6, r8
2ffe1194:	212f      	movs	r1, #47	; 0x2f
2ffe1196:	4640      	mov	r0, r8
2ffe1198:	f000 f92a 	bl	2ffe13f0 <memchr>
2ffe119c:	2800      	cmp	r0, #0
2ffe119e:	bf14      	ite	ne
2ffe11a0:	4604      	movne	r4, r0
2ffe11a2:	4634      	moveq	r4, r6
2ffe11a4:	4629      	mov	r1, r5
2ffe11a6:	eba4 0308 	sub.w	r3, r4, r8
2ffe11aa:	4642      	mov	r2, r8
2ffe11ac:	4638      	mov	r0, r7
2ffe11ae:	f7ff feb4 	bl	2ffe0f1a <fdt_subnode_offset_namelen>
2ffe11b2:	1e05      	subs	r5, r0, #0
2ffe11b4:	dae1      	bge.n	2ffe117a <fdt_path_offset_namelen+0x4a>
2ffe11b6:	4628      	mov	r0, r5
2ffe11b8:	e8bd 81f0 	ldmia.w	sp!, {r4, r5, r6, r7, r8, pc}
2ffe11bc:	f06f 0504 	mvn.w	r5, #4
2ffe11c0:	e7f9      	b.n	2ffe11b6 <fdt_path_offset_namelen+0x86>

2ffe11c2 <fdt_path_offset>:
2ffe11c2:	b538      	push	{r3, r4, r5, lr}
2ffe11c4:	4605      	mov	r5, r0
2ffe11c6:	4608      	mov	r0, r1
2ffe11c8:	460c      	mov	r4, r1
2ffe11ca:	f000 fb2c 	bl	2ffe1826 <strlen>
2ffe11ce:	4602      	mov	r2, r0
2ffe11d0:	4621      	mov	r1, r4
2ffe11d2:	4628      	mov	r0, r5
2ffe11d4:	e8bd 4038 	ldmia.w	sp!, {r3, r4, r5, lr}
2ffe11d8:	f7ff bfaa 	b.w	2ffe1130 <fdt_path_offset_namelen>

2ffe11dc <fdt_supernode_atdepth_offset>:
2ffe11dc:	e92d 41f3 	stmdb	sp!, {r0, r1, r4, r5, r6, r7, r8, lr}
2ffe11e0:	4680      	mov	r8, r0
2ffe11e2:	460d      	mov	r5, r1
2ffe11e4:	4614      	mov	r4, r2
2ffe11e6:	461e      	mov	r6, r3
2ffe11e8:	f7ff fcd4 	bl	2ffe0b94 <fdt_check_header>
2ffe11ec:	b9b0      	cbnz	r0, 2ffe121c <fdt_supernode_atdepth_offset+0x40>
2ffe11ee:	2c00      	cmp	r4, #0
2ffe11f0:	db25      	blt.n	2ffe123e <fdt_supernode_atdepth_offset+0x62>
2ffe11f2:	9001      	str	r0, [sp, #4]
2ffe11f4:	f06f 070c 	mvn.w	r7, #12
2ffe11f8:	4285      	cmp	r5, r0
2ffe11fa:	da02      	bge.n	2ffe1202 <fdt_supernode_atdepth_offset+0x26>
2ffe11fc:	f06f 0003 	mvn.w	r0, #3
2ffe1200:	e00c      	b.n	2ffe121c <fdt_supernode_atdepth_offset+0x40>
2ffe1202:	9b01      	ldr	r3, [sp, #4]
2ffe1204:	429c      	cmp	r4, r3
2ffe1206:	bf08      	it	eq
2ffe1208:	4607      	moveq	r7, r0
2ffe120a:	4285      	cmp	r5, r0
2ffe120c:	d109      	bne.n	2ffe1222 <fdt_supernode_atdepth_offset+0x46>
2ffe120e:	b106      	cbz	r6, 2ffe1212 <fdt_supernode_atdepth_offset+0x36>
2ffe1210:	6033      	str	r3, [r6, #0]
2ffe1212:	429c      	cmp	r4, r3
2ffe1214:	bfd4      	ite	le
2ffe1216:	4638      	movle	r0, r7
2ffe1218:	f04f 30ff 	movgt.w	r0, #4294967295	; 0xffffffff
2ffe121c:	b002      	add	sp, #8
2ffe121e:	e8bd 81f0 	ldmia.w	sp!, {r4, r5, r6, r7, r8, pc}
2ffe1222:	4601      	mov	r1, r0
2ffe1224:	aa01      	add	r2, sp, #4
2ffe1226:	4640      	mov	r0, r8
2ffe1228:	f7ff fd86 	bl	2ffe0d38 <fdt_next_node>
2ffe122c:	2800      	cmp	r0, #0
2ffe122e:	dae3      	bge.n	2ffe11f8 <fdt_supernode_atdepth_offset+0x1c>
2ffe1230:	1c42      	adds	r2, r0, #1
2ffe1232:	d0e3      	beq.n	2ffe11fc <fdt_supernode_atdepth_offset+0x20>
2ffe1234:	1d03      	adds	r3, r0, #4
2ffe1236:	bf08      	it	eq
2ffe1238:	f06f 000a 	mvneq.w	r0, #10
2ffe123c:	e7ee      	b.n	2ffe121c <fdt_supernode_atdepth_offset+0x40>
2ffe123e:	f04f 30ff 	mov.w	r0, #4294967295	; 0xffffffff
2ffe1242:	e7eb      	b.n	2ffe121c <fdt_supernode_atdepth_offset+0x40>

2ffe1244 <fdt_node_depth>:
2ffe1244:	b507      	push	{r0, r1, r2, lr}
2ffe1246:	2200      	movs	r2, #0
2ffe1248:	ab01      	add	r3, sp, #4
2ffe124a:	f7ff ffc7 	bl	2ffe11dc <fdt_supernode_atdepth_offset>
2ffe124e:	2800      	cmp	r0, #0
2ffe1250:	d005      	beq.n	2ffe125e <fdt_node_depth+0x1a>
2ffe1252:	db01      	blt.n	2ffe1258 <fdt_node_depth+0x14>
2ffe1254:	f06f 000c 	mvn.w	r0, #12
2ffe1258:	b003      	add	sp, #12
2ffe125a:	f85d fb04 	ldr.w	pc, [sp], #4
2ffe125e:	9801      	ldr	r0, [sp, #4]
2ffe1260:	e7fa      	b.n	2ffe1258 <fdt_node_depth+0x14>

2ffe1262 <fdt_parent_offset>:
2ffe1262:	b570      	push	{r4, r5, r6, lr}
2ffe1264:	4604      	mov	r4, r0
2ffe1266:	460d      	mov	r5, r1
2ffe1268:	f7ff ffec 	bl	2ffe1244 <fdt_node_depth>
2ffe126c:	1e02      	subs	r2, r0, #0
2ffe126e:	db07      	blt.n	2ffe1280 <fdt_parent_offset+0x1e>
2ffe1270:	4629      	mov	r1, r5
2ffe1272:	4620      	mov	r0, r4
2ffe1274:	2300      	movs	r3, #0
2ffe1276:	3a01      	subs	r2, #1
2ffe1278:	e8bd 4070 	ldmia.w	sp!, {r4, r5, r6, lr}
2ffe127c:	f7ff bfae 	b.w	2ffe11dc <fdt_supernode_atdepth_offset>
2ffe1280:	bd70      	pop	{r4, r5, r6, pc}

2ffe1282 <fdt_node_offset_by_phandle>:
2ffe1282:	1e4b      	subs	r3, r1, #1
2ffe1284:	3303      	adds	r3, #3
2ffe1286:	b570      	push	{r4, r5, r6, lr}
2ffe1288:	4605      	mov	r5, r0
2ffe128a:	460e      	mov	r6, r1
2ffe128c:	d817      	bhi.n	2ffe12be <fdt_node_offset_by_phandle+0x3c>
2ffe128e:	f7ff fc81 	bl	2ffe0b94 <fdt_check_header>
2ffe1292:	4604      	mov	r4, r0
2ffe1294:	b940      	cbnz	r0, 2ffe12a8 <fdt_node_offset_by_phandle+0x26>
2ffe1296:	4602      	mov	r2, r0
2ffe1298:	f04f 31ff 	mov.w	r1, #4294967295	; 0xffffffff
2ffe129c:	4628      	mov	r0, r5
2ffe129e:	f7ff fd4b 	bl	2ffe0d38 <fdt_next_node>
2ffe12a2:	2800      	cmp	r0, #0
2ffe12a4:	4604      	mov	r4, r0
2ffe12a6:	da01      	bge.n	2ffe12ac <fdt_node_offset_by_phandle+0x2a>
2ffe12a8:	4620      	mov	r0, r4
2ffe12aa:	bd70      	pop	{r4, r5, r6, pc}
2ffe12ac:	4621      	mov	r1, r4
2ffe12ae:	4628      	mov	r0, r5
2ffe12b0:	f7ff ff06 	bl	2ffe10c0 <fdt_get_phandle>
2ffe12b4:	42b0      	cmp	r0, r6
2ffe12b6:	d0f7      	beq.n	2ffe12a8 <fdt_node_offset_by_phandle+0x26>
2ffe12b8:	2200      	movs	r2, #0
2ffe12ba:	4621      	mov	r1, r4
2ffe12bc:	e7ee      	b.n	2ffe129c <fdt_node_offset_by_phandle+0x1a>
2ffe12be:	f06f 0405 	mvn.w	r4, #5
2ffe12c2:	e7f1      	b.n	2ffe12a8 <fdt_node_offset_by_phandle+0x26>

2ffe12c4 <fdt_stringlist_contains>:
2ffe12c4:	e92d 41f0 	stmdb	sp!, {r4, r5, r6, r7, r8, lr}
2ffe12c8:	4604      	mov	r4, r0
2ffe12ca:	4610      	mov	r0, r2
2ffe12cc:	460d      	mov	r5, r1
2ffe12ce:	4617      	mov	r7, r2
2ffe12d0:	f000 faa9 	bl	2ffe1826 <strlen>
2ffe12d4:	4606      	mov	r6, r0
2ffe12d6:	f100 0801 	add.w	r8, r0, #1
2ffe12da:	42b5      	cmp	r5, r6
2ffe12dc:	db0b      	blt.n	2ffe12f6 <fdt_stringlist_contains+0x32>
2ffe12de:	4642      	mov	r2, r8
2ffe12e0:	4621      	mov	r1, r4
2ffe12e2:	4638      	mov	r0, r7
2ffe12e4:	f000 f892 	bl	2ffe140c <memcmp>
2ffe12e8:	b168      	cbz	r0, 2ffe1306 <fdt_stringlist_contains+0x42>
2ffe12ea:	462a      	mov	r2, r5
2ffe12ec:	2100      	movs	r1, #0
2ffe12ee:	4620      	mov	r0, r4
2ffe12f0:	f000 f87e 	bl	2ffe13f0 <memchr>
2ffe12f4:	b910      	cbnz	r0, 2ffe12fc <fdt_stringlist_contains+0x38>
2ffe12f6:	2000      	movs	r0, #0
2ffe12f8:	e8bd 81f0 	ldmia.w	sp!, {r4, r5, r6, r7, r8, pc}
2ffe12fc:	1b04      	subs	r4, r0, r4
2ffe12fe:	3401      	adds	r4, #1
2ffe1300:	1b2d      	subs	r5, r5, r4
2ffe1302:	1c44      	adds	r4, r0, #1
2ffe1304:	e7e9      	b.n	2ffe12da <fdt_stringlist_contains+0x16>
2ffe1306:	2001      	movs	r0, #1
2ffe1308:	e7f6      	b.n	2ffe12f8 <fdt_stringlist_contains+0x34>

2ffe130a <fdt_stringlist_search>:
2ffe130a:	e92d 41f3 	stmdb	sp!, {r0, r1, r4, r5, r6, r7, r8, lr}
2ffe130e:	4698      	mov	r8, r3
2ffe1310:	ab01      	add	r3, sp, #4
2ffe1312:	f7ff fec4 	bl	2ffe109e <fdt_getprop>
2ffe1316:	4604      	mov	r4, r0
2ffe1318:	b920      	cbnz	r0, 2ffe1324 <fdt_stringlist_search+0x1a>
2ffe131a:	9d01      	ldr	r5, [sp, #4]
2ffe131c:	4628      	mov	r0, r5
2ffe131e:	b002      	add	sp, #8
2ffe1320:	e8bd 81f0 	ldmia.w	sp!, {r4, r5, r6, r7, r8, pc}
2ffe1324:	4640      	mov	r0, r8
2ffe1326:	2500      	movs	r5, #0
2ffe1328:	f000 fa7d 	bl	2ffe1826 <strlen>
2ffe132c:	9e01      	ldr	r6, [sp, #4]
2ffe132e:	1c47      	adds	r7, r0, #1
2ffe1330:	4426      	add	r6, r4
2ffe1332:	42b4      	cmp	r4, r6
2ffe1334:	d302      	bcc.n	2ffe133c <fdt_stringlist_search+0x32>
2ffe1336:	f04f 35ff 	mov.w	r5, #4294967295	; 0xffffffff
2ffe133a:	e7ef      	b.n	2ffe131c <fdt_stringlist_search+0x12>
2ffe133c:	1b31      	subs	r1, r6, r4
2ffe133e:	4620      	mov	r0, r4
2ffe1340:	f000 fa8d 	bl	2ffe185e <strnlen>
2ffe1344:	3001      	adds	r0, #1
2ffe1346:	1823      	adds	r3, r4, r0
2ffe1348:	429e      	cmp	r6, r3
2ffe134a:	9001      	str	r0, [sp, #4]
2ffe134c:	d30d      	bcc.n	2ffe136a <fdt_stringlist_search+0x60>
2ffe134e:	42b8      	cmp	r0, r7
2ffe1350:	d003      	beq.n	2ffe135a <fdt_stringlist_search+0x50>
2ffe1352:	9b01      	ldr	r3, [sp, #4]
2ffe1354:	3501      	adds	r5, #1
2ffe1356:	441c      	add	r4, r3
2ffe1358:	e7eb      	b.n	2ffe1332 <fdt_stringlist_search+0x28>
2ffe135a:	463a      	mov	r2, r7
2ffe135c:	4641      	mov	r1, r8
2ffe135e:	4620      	mov	r0, r4
2ffe1360:	f000 f854 	bl	2ffe140c <memcmp>
2ffe1364:	2800      	cmp	r0, #0
2ffe1366:	d1f4      	bne.n	2ffe1352 <fdt_stringlist_search+0x48>
2ffe1368:	e7d8      	b.n	2ffe131c <fdt_stringlist_search+0x12>
2ffe136a:	f06f 050e 	mvn.w	r5, #14
2ffe136e:	e7d5      	b.n	2ffe131c <fdt_stringlist_search+0x12>

2ffe1370 <fdt_node_check_compatible>:
2ffe1370:	b513      	push	{r0, r1, r4, lr}
2ffe1372:	4614      	mov	r4, r2
2ffe1374:	4a07      	ldr	r2, [pc, #28]	; (2ffe1394 <fdt_node_check_compatible+0x24>)
2ffe1376:	ab01      	add	r3, sp, #4
2ffe1378:	f7ff fe91 	bl	2ffe109e <fdt_getprop>
2ffe137c:	b910      	cbnz	r0, 2ffe1384 <fdt_node_check_compatible+0x14>
2ffe137e:	9801      	ldr	r0, [sp, #4]
2ffe1380:	b002      	add	sp, #8
2ffe1382:	bd10      	pop	{r4, pc}
2ffe1384:	9901      	ldr	r1, [sp, #4]
2ffe1386:	4622      	mov	r2, r4
2ffe1388:	f7ff ff9c 	bl	2ffe12c4 <fdt_stringlist_contains>
2ffe138c:	fab0 f080 	clz	r0, r0
2ffe1390:	0940      	lsrs	r0, r0, #5
2ffe1392:	e7f5      	b.n	2ffe1380 <fdt_node_check_compatible+0x10>
2ffe1394:	2ffe522a 	.word	0x2ffe522a

2ffe1398 <fdt_node_offset_by_compatible>:
2ffe1398:	b5f8      	push	{r3, r4, r5, r6, r7, lr}
2ffe139a:	4605      	mov	r5, r0
2ffe139c:	460f      	mov	r7, r1
2ffe139e:	4616      	mov	r6, r2
2ffe13a0:	f7ff fbf8 	bl	2ffe0b94 <fdt_check_header>
2ffe13a4:	4604      	mov	r4, r0
2ffe13a6:	b938      	cbnz	r0, 2ffe13b8 <fdt_node_offset_by_compatible+0x20>
2ffe13a8:	4602      	mov	r2, r0
2ffe13aa:	4639      	mov	r1, r7
2ffe13ac:	4628      	mov	r0, r5
2ffe13ae:	f7ff fcc3 	bl	2ffe0d38 <fdt_next_node>
2ffe13b2:	2800      	cmp	r0, #0
2ffe13b4:	4604      	mov	r4, r0
2ffe13b6:	da01      	bge.n	2ffe13bc <fdt_node_offset_by_compatible+0x24>
2ffe13b8:	4620      	mov	r0, r4
2ffe13ba:	bdf8      	pop	{r3, r4, r5, r6, r7, pc}
2ffe13bc:	4632      	mov	r2, r6
2ffe13be:	4621      	mov	r1, r4
2ffe13c0:	4628      	mov	r0, r5
2ffe13c2:	f7ff ffd5 	bl	2ffe1370 <fdt_node_check_compatible>
2ffe13c6:	1c43      	adds	r3, r0, #1
2ffe13c8:	db04      	blt.n	2ffe13d4 <fdt_node_offset_by_compatible+0x3c>
2ffe13ca:	2800      	cmp	r0, #0
2ffe13cc:	d0f4      	beq.n	2ffe13b8 <fdt_node_offset_by_compatible+0x20>
2ffe13ce:	2200      	movs	r2, #0
2ffe13d0:	4621      	mov	r1, r4
2ffe13d2:	e7eb      	b.n	2ffe13ac <fdt_node_offset_by_compatible+0x14>
2ffe13d4:	4604      	mov	r4, r0
2ffe13d6:	e7ef      	b.n	2ffe13b8 <fdt_node_offset_by_compatible+0x20>

2ffe13d8 <__assert>:
2ffe13d8:	460a      	mov	r2, r1
2ffe13da:	4601      	mov	r1, r0
2ffe13dc:	b508      	push	{r3, lr}
2ffe13de:	4803      	ldr	r0, [pc, #12]	; (2ffe13ec <__assert+0x14>)
2ffe13e0:	f000 f95c 	bl	2ffe169c <printf>
2ffe13e4:	f7f9 ff94 	bl	2ffdb310 <console_flush>
2ffe13e8:	f7f5 eab8 	blx	2ffd695c <plat_panic_handler>
2ffe13ec:	2ffe5235 	.word	0x2ffe5235

2ffe13f0 <memchr>:
2ffe13f0:	4402      	add	r2, r0
2ffe13f2:	4603      	mov	r3, r0
2ffe13f4:	b2c9      	uxtb	r1, r1
2ffe13f6:	b510      	push	{r4, lr}
2ffe13f8:	4618      	mov	r0, r3
2ffe13fa:	4293      	cmp	r3, r2
2ffe13fc:	d101      	bne.n	2ffe1402 <memchr+0x12>
2ffe13fe:	2000      	movs	r0, #0
2ffe1400:	e003      	b.n	2ffe140a <memchr+0x1a>
2ffe1402:	7804      	ldrb	r4, [r0, #0]
2ffe1404:	3301      	adds	r3, #1
2ffe1406:	428c      	cmp	r4, r1
2ffe1408:	d1f6      	bne.n	2ffe13f8 <memchr+0x8>
2ffe140a:	bd10      	pop	{r4, pc}

2ffe140c <memcmp>:
2ffe140c:	4402      	add	r2, r0
2ffe140e:	b510      	push	{r4, lr}
2ffe1410:	4290      	cmp	r0, r2
2ffe1412:	d101      	bne.n	2ffe1418 <memcmp+0xc>
2ffe1414:	2000      	movs	r0, #0
2ffe1416:	e006      	b.n	2ffe1426 <memcmp+0x1a>
2ffe1418:	f810 3b01 	ldrb.w	r3, [r0], #1
2ffe141c:	f811 4b01 	ldrb.w	r4, [r1], #1
2ffe1420:	42a3      	cmp	r3, r4
2ffe1422:	d0f5      	beq.n	2ffe1410 <memcmp+0x4>
2ffe1424:	1b18      	subs	r0, r3, r4
2ffe1426:	bd10      	pop	{r4, pc}

2ffe1428 <memcpy>:
2ffe1428:	440a      	add	r2, r1
2ffe142a:	1e43      	subs	r3, r0, #1
2ffe142c:	b510      	push	{r4, lr}
2ffe142e:	4291      	cmp	r1, r2
2ffe1430:	d100      	bne.n	2ffe1434 <memcpy+0xc>
2ffe1432:	bd10      	pop	{r4, pc}
2ffe1434:	f811 4b01 	ldrb.w	r4, [r1], #1
2ffe1438:	f803 4f01 	strb.w	r4, [r3, #1]!
2ffe143c:	e7f7      	b.n	2ffe142e <memcpy+0x6>

2ffe143e <memmove>:
2ffe143e:	b470      	push	{r4, r5, r6}
2ffe1440:	4613      	mov	r3, r2
2ffe1442:	1a46      	subs	r6, r0, r1
2ffe1444:	4605      	mov	r5, r0
2ffe1446:	4296      	cmp	r6, r2
2ffe1448:	460c      	mov	r4, r1
2ffe144a:	d302      	bcc.n	2ffe1452 <memmove+0x14>
2ffe144c:	bc70      	pop	{r4, r5, r6}
2ffe144e:	f7ff bfeb 	b.w	2ffe1428 <memcpy>
2ffe1452:	4414      	add	r4, r2
2ffe1454:	4403      	add	r3, r0
2ffe1456:	429d      	cmp	r5, r3
2ffe1458:	d102      	bne.n	2ffe1460 <memmove+0x22>
2ffe145a:	4628      	mov	r0, r5
2ffe145c:	bc70      	pop	{r4, r5, r6}
2ffe145e:	4770      	bx	lr
2ffe1460:	f814 2d01 	ldrb.w	r2, [r4, #-1]!
2ffe1464:	f803 2d01 	strb.w	r2, [r3, #-1]!
2ffe1468:	e7f5      	b.n	2ffe1456 <memmove+0x18>

2ffe146a <memset>:
2ffe146a:	4402      	add	r2, r0
2ffe146c:	4603      	mov	r3, r0
2ffe146e:	4293      	cmp	r3, r2
2ffe1470:	d100      	bne.n	2ffe1474 <memset+0xa>
2ffe1472:	4770      	bx	lr
2ffe1474:	f803 1b01 	strb.w	r1, [r3], #1
2ffe1478:	e7f9      	b.n	2ffe146e <memset+0x4>

2ffe147a <unsigned_num_print>:
2ffe147a:	e92d 4ff0 	stmdb	sp!, {r4, r5, r6, r7, r8, r9, sl, fp, lr}
2ffe147e:	b087      	sub	sp, #28
2ffe1480:	4606      	mov	r6, r0
2ffe1482:	460f      	mov	r7, r1
2ffe1484:	9d10      	ldr	r5, [sp, #64]	; 0x40
2ffe1486:	469a      	mov	sl, r3
2ffe1488:	f10d 0b04 	add.w	fp, sp, #4
2ffe148c:	2400      	movs	r4, #0
2ffe148e:	4690      	mov	r8, r2
2ffe1490:	f04f 0900 	mov.w	r9, #0
2ffe1494:	4642      	mov	r2, r8
2ffe1496:	464b      	mov	r3, r9
2ffe1498:	4630      	mov	r0, r6
2ffe149a:	4639      	mov	r1, r7
2ffe149c:	3401      	adds	r4, #1
2ffe149e:	f7ff eb66 	blx	2ffe0b6c <__aeabi_uldivmod>
2ffe14a2:	b2d3      	uxtb	r3, r2
2ffe14a4:	2a09      	cmp	r2, #9
2ffe14a6:	bf94      	ite	ls
2ffe14a8:	3330      	addls	r3, #48	; 0x30
2ffe14aa:	3357      	addhi	r3, #87	; 0x57
2ffe14ac:	454f      	cmp	r7, r9
2ffe14ae:	b2db      	uxtb	r3, r3
2ffe14b0:	bf08      	it	eq
2ffe14b2:	4546      	cmpeq	r6, r8
2ffe14b4:	f80b 3b01 	strb.w	r3, [fp], #1
2ffe14b8:	d20a      	bcs.n	2ffe14d0 <unsigned_num_print+0x56>
2ffe14ba:	2d00      	cmp	r5, #0
2ffe14bc:	dc17      	bgt.n	2ffe14ee <unsigned_num_print+0x74>
2ffe14be:	2500      	movs	r5, #0
2ffe14c0:	4626      	mov	r6, r4
2ffe14c2:	af01      	add	r7, sp, #4
2ffe14c4:	3e01      	subs	r6, #1
2ffe14c6:	d214      	bcs.n	2ffe14f2 <unsigned_num_print+0x78>
2ffe14c8:	1960      	adds	r0, r4, r5
2ffe14ca:	b007      	add	sp, #28
2ffe14cc:	e8bd 8ff0 	ldmia.w	sp!, {r4, r5, r6, r7, r8, r9, sl, fp, pc}
2ffe14d0:	4606      	mov	r6, r0
2ffe14d2:	460f      	mov	r7, r1
2ffe14d4:	e7de      	b.n	2ffe1494 <unsigned_num_print+0x1a>
2ffe14d6:	4650      	mov	r0, sl
2ffe14d8:	3e01      	subs	r6, #1
2ffe14da:	f000 f8ec 	bl	2ffe16b6 <putchar>
2ffe14de:	42a6      	cmp	r6, r4
2ffe14e0:	dcf9      	bgt.n	2ffe14d6 <unsigned_num_print+0x5c>
2ffe14e2:	1b2b      	subs	r3, r5, r4
2ffe14e4:	42ac      	cmp	r4, r5
2ffe14e6:	bfd4      	ite	le
2ffe14e8:	461d      	movle	r5, r3
2ffe14ea:	2500      	movgt	r5, #0
2ffe14ec:	e7e8      	b.n	2ffe14c0 <unsigned_num_print+0x46>
2ffe14ee:	462e      	mov	r6, r5
2ffe14f0:	e7f5      	b.n	2ffe14de <unsigned_num_print+0x64>
2ffe14f2:	5db8      	ldrb	r0, [r7, r6]
2ffe14f4:	f000 f8df 	bl	2ffe16b6 <putchar>
2ffe14f8:	e7e4      	b.n	2ffe14c4 <unsigned_num_print+0x4a>
	...

2ffe14fc <vprintf>:
2ffe14fc:	e92d 4ff7 	stmdb	sp!, {r0, r1, r2, r4, r5, r6, r7, r8, r9, sl, fp, lr}
2ffe1500:	2500      	movs	r5, #0
2ffe1502:	4606      	mov	r6, r0
2ffe1504:	460c      	mov	r4, r1
2ffe1506:	462f      	mov	r7, r5
2ffe1508:	7830      	ldrb	r0, [r6, #0]
2ffe150a:	b918      	cbnz	r0, 2ffe1514 <vprintf+0x18>
2ffe150c:	4628      	mov	r0, r5
2ffe150e:	b003      	add	sp, #12
2ffe1510:	e8bd 8ff0 	ldmia.w	sp!, {r4, r5, r6, r7, r8, r9, sl, fp, pc}
2ffe1514:	2825      	cmp	r0, #37	; 0x25
2ffe1516:	f106 0601 	add.w	r6, r6, #1
2ffe151a:	f040 80b4 	bne.w	2ffe1686 <vprintf+0x18a>
2ffe151e:	f04f 0b00 	mov.w	fp, #0
2ffe1522:	4659      	mov	r1, fp
2ffe1524:	e000      	b.n	2ffe1528 <vprintf+0x2c>
2ffe1526:	2730      	movs	r7, #48	; 0x30
2ffe1528:	7832      	ldrb	r2, [r6, #0]
2ffe152a:	2a30      	cmp	r2, #48	; 0x30
2ffe152c:	f000 809c 	beq.w	2ffe1668 <vprintf+0x16c>
2ffe1530:	3a64      	subs	r2, #100	; 0x64
2ffe1532:	b2d0      	uxtb	r0, r2
2ffe1534:	2816      	cmp	r0, #22
2ffe1536:	f200 80aa 	bhi.w	2ffe168e <vprintf+0x192>
2ffe153a:	2a16      	cmp	r2, #22
2ffe153c:	f200 80a7 	bhi.w	2ffe168e <vprintf+0x192>
2ffe1540:	e8df f002 	tbb	[pc, r2]
2ffe1544:	a5a5a50c 	.word	0xa5a5a50c
2ffe1548:	a5a50ca5 	.word	0xa5a50ca5
2ffe154c:	a5a5a57c 	.word	0xa5a5a57c
2ffe1550:	35a5a54b 	.word	0x35a5a54b
2ffe1554:	a5a57fa5 	.word	0xa5a57fa5
2ffe1558:	a569      	.short	0xa569
2ffe155a:	7d          	.byte	0x7d
2ffe155b:	00          	.byte	0x00
2ffe155c:	2901      	cmp	r1, #1
2ffe155e:	dd1c      	ble.n	2ffe159a <vprintf+0x9e>
2ffe1560:	3407      	adds	r4, #7
2ffe1562:	f024 0a07 	bic.w	sl, r4, #7
2ffe1566:	e8fa 8902 	ldrd	r8, r9, [sl], #8
2ffe156a:	f1b8 0f00 	cmp.w	r8, #0
2ffe156e:	f179 0300 	sbcs.w	r3, r9, #0
2ffe1572:	da19      	bge.n	2ffe15a8 <vprintf+0xac>
2ffe1574:	202d      	movs	r0, #45	; 0x2d
2ffe1576:	f10b 3bff 	add.w	fp, fp, #4294967295	; 0xffffffff
2ffe157a:	f000 f89c 	bl	2ffe16b6 <putchar>
2ffe157e:	f1d8 0000 	rsbs	r0, r8, #0
2ffe1582:	eb69 0149 	sbc.w	r1, r9, r9, lsl #1
2ffe1586:	f8cd b000 	str.w	fp, [sp]
2ffe158a:	463b      	mov	r3, r7
2ffe158c:	220a      	movs	r2, #10
2ffe158e:	4654      	mov	r4, sl
2ffe1590:	f7ff ff73 	bl	2ffe147a <unsigned_num_print>
2ffe1594:	4405      	add	r5, r0
2ffe1596:	3601      	adds	r6, #1
2ffe1598:	e7b6      	b.n	2ffe1508 <vprintf+0xc>
2ffe159a:	6820      	ldr	r0, [r4, #0]
2ffe159c:	f104 0a04 	add.w	sl, r4, #4
2ffe15a0:	ea4f 79e0 	mov.w	r9, r0, asr #31
2ffe15a4:	4680      	mov	r8, r0
2ffe15a6:	e7e0      	b.n	2ffe156a <vprintf+0x6e>
2ffe15a8:	4640      	mov	r0, r8
2ffe15aa:	4649      	mov	r1, r9
2ffe15ac:	e7eb      	b.n	2ffe1586 <vprintf+0x8a>
2ffe15ae:	f854 9b04 	ldr.w	r9, [r4], #4
2ffe15b2:	f1b9 0f00 	cmp.w	r9, #0
2ffe15b6:	d10d      	bne.n	2ffe15d4 <vprintf+0xd8>
2ffe15b8:	4836      	ldr	r0, [pc, #216]	; (2ffe1694 <vprintf+0x198>)
2ffe15ba:	211c      	movs	r1, #28
2ffe15bc:	f7ff ff0c 	bl	2ffe13d8 <__assert>
2ffe15c0:	f108 0801 	add.w	r8, r8, #1
2ffe15c4:	f000 f877 	bl	2ffe16b6 <putchar>
2ffe15c8:	f819 0008 	ldrb.w	r0, [r9, r8]
2ffe15cc:	2800      	cmp	r0, #0
2ffe15ce:	d1f7      	bne.n	2ffe15c0 <vprintf+0xc4>
2ffe15d0:	4445      	add	r5, r8
2ffe15d2:	e7e0      	b.n	2ffe1596 <vprintf+0x9a>
2ffe15d4:	f04f 0800 	mov.w	r8, #0
2ffe15d8:	e7f6      	b.n	2ffe15c8 <vprintf+0xcc>
2ffe15da:	f854 9b04 	ldr.w	r9, [r4], #4
2ffe15de:	f1b9 0f00 	cmp.w	r9, #0
2ffe15e2:	d009      	beq.n	2ffe15f8 <vprintf+0xfc>
2ffe15e4:	f8df a0b0 	ldr.w	sl, [pc, #176]	; 2ffe1698 <vprintf+0x19c>
2ffe15e8:	f04f 0800 	mov.w	r8, #0
2ffe15ec:	f81a 0b01 	ldrb.w	r0, [sl], #1
2ffe15f0:	b960      	cbnz	r0, 2ffe160c <vprintf+0x110>
2ffe15f2:	4445      	add	r5, r8
2ffe15f4:	f1ab 0b02 	sub.w	fp, fp, #2
2ffe15f8:	f8cd b000 	str.w	fp, [sp]
2ffe15fc:	463b      	mov	r3, r7
2ffe15fe:	2210      	movs	r2, #16
2ffe1600:	4648      	mov	r0, r9
2ffe1602:	2100      	movs	r1, #0
2ffe1604:	f7ff ff39 	bl	2ffe147a <unsigned_num_print>
2ffe1608:	4405      	add	r5, r0
2ffe160a:	e7c4      	b.n	2ffe1596 <vprintf+0x9a>
2ffe160c:	f108 0801 	add.w	r8, r8, #1
2ffe1610:	f000 f851 	bl	2ffe16b6 <putchar>
2ffe1614:	e7ea      	b.n	2ffe15ec <vprintf+0xf0>
2ffe1616:	2901      	cmp	r1, #1
2ffe1618:	463b      	mov	r3, r7
2ffe161a:	bfca      	itet	gt
2ffe161c:	1de1      	addgt	r1, r4, #7
2ffe161e:	2100      	movle	r1, #0
2ffe1620:	f021 0107 	bicgt.w	r1, r1, #7
2ffe1624:	f04f 0210 	mov.w	r2, #16
2ffe1628:	bfd1      	iteee	le
2ffe162a:	f854 0b04 	ldrle.w	r0, [r4], #4
2ffe162e:	460c      	movgt	r4, r1
2ffe1630:	6849      	ldrgt	r1, [r1, #4]
2ffe1632:	f854 0b08 	ldrgt.w	r0, [r4], #8
2ffe1636:	f8cd b000 	str.w	fp, [sp]
2ffe163a:	e7e3      	b.n	2ffe1604 <vprintf+0x108>
2ffe163c:	3101      	adds	r1, #1
2ffe163e:	3601      	adds	r6, #1
2ffe1640:	e772      	b.n	2ffe1528 <vprintf+0x2c>
2ffe1642:	2901      	cmp	r1, #1
2ffe1644:	463b      	mov	r3, r7
2ffe1646:	bfca      	itet	gt
2ffe1648:	1de1      	addgt	r1, r4, #7
2ffe164a:	2100      	movle	r1, #0
2ffe164c:	f021 0107 	bicgt.w	r1, r1, #7
2ffe1650:	f04f 020a 	mov.w	r2, #10
2ffe1654:	bfd1      	iteee	le
2ffe1656:	f854 0b04 	ldrle.w	r0, [r4], #4
2ffe165a:	460c      	movgt	r4, r1
2ffe165c:	6849      	ldrgt	r1, [r1, #4]
2ffe165e:	f854 0b08 	ldrgt.w	r0, [r4], #8
2ffe1662:	f8cd b000 	str.w	fp, [sp]
2ffe1666:	e7cd      	b.n	2ffe1604 <vprintf+0x108>
2ffe1668:	1c70      	adds	r0, r6, #1
2ffe166a:	f04f 0b00 	mov.w	fp, #0
2ffe166e:	4606      	mov	r6, r0
2ffe1670:	f810 2b01 	ldrb.w	r2, [r0], #1
2ffe1674:	3a30      	subs	r2, #48	; 0x30
2ffe1676:	b2d7      	uxtb	r7, r2
2ffe1678:	2f09      	cmp	r7, #9
2ffe167a:	f63f af54 	bhi.w	2ffe1526 <vprintf+0x2a>
2ffe167e:	230a      	movs	r3, #10
2ffe1680:	fb03 2b0b 	mla	fp, r3, fp, r2
2ffe1684:	e7f3      	b.n	2ffe166e <vprintf+0x172>
2ffe1686:	3501      	adds	r5, #1
2ffe1688:	f000 f815 	bl	2ffe16b6 <putchar>
2ffe168c:	e73c      	b.n	2ffe1508 <vprintf+0xc>
2ffe168e:	f04f 35ff 	mov.w	r5, #4294967295	; 0xffffffff
2ffe1692:	e73b      	b.n	2ffe150c <vprintf+0x10>
2ffe1694:	2ffe5244 	.word	0x2ffe5244
2ffe1698:	2ffe5256 	.word	0x2ffe5256

2ffe169c <printf>:
2ffe169c:	b40f      	push	{r0, r1, r2, r3}
2ffe169e:	b507      	push	{r0, r1, r2, lr}
2ffe16a0:	a904      	add	r1, sp, #16
2ffe16a2:	f851 0b04 	ldr.w	r0, [r1], #4
2ffe16a6:	9101      	str	r1, [sp, #4]
2ffe16a8:	f7ff ff28 	bl	2ffe14fc <vprintf>
2ffe16ac:	b003      	add	sp, #12
2ffe16ae:	f85d eb04 	ldr.w	lr, [sp], #4
2ffe16b2:	b004      	add	sp, #16
2ffe16b4:	4770      	bx	lr

2ffe16b6 <putchar>:
2ffe16b6:	b510      	push	{r4, lr}
2ffe16b8:	4604      	mov	r4, r0
2ffe16ba:	b2c0      	uxtb	r0, r0
2ffe16bc:	f7f9 fdfc 	bl	2ffdb2b8 <console_putc>
2ffe16c0:	2800      	cmp	r0, #0
2ffe16c2:	bfac      	ite	ge
2ffe16c4:	4620      	movge	r0, r4
2ffe16c6:	f04f 30ff 	movlt.w	r0, #4294967295	; 0xffffffff
2ffe16ca:	bd10      	pop	{r4, pc}

2ffe16cc <unsigned_dec_print>:
2ffe16cc:	b5f0      	push	{r4, r5, r6, r7, lr}
2ffe16ce:	b085      	sub	sp, #20
2ffe16d0:	ad01      	add	r5, sp, #4
2ffe16d2:	2400      	movs	r4, #0
2ffe16d4:	46ac      	mov	ip, r5
2ffe16d6:	f04f 0e0a 	mov.w	lr, #10
2ffe16da:	fbb3 f7fe 	udiv	r7, r3, lr
2ffe16de:	fb0e 3617 	mls	r6, lr, r7, r3
2ffe16e2:	3401      	adds	r4, #1
2ffe16e4:	3630      	adds	r6, #48	; 0x30
2ffe16e6:	f805 6b01 	strb.w	r6, [r5], #1
2ffe16ea:	461e      	mov	r6, r3
2ffe16ec:	2e09      	cmp	r6, #9
2ffe16ee:	463b      	mov	r3, r7
2ffe16f0:	d8f3      	bhi.n	2ffe16da <unsigned_dec_print+0xe>
2ffe16f2:	3c01      	subs	r4, #1
2ffe16f4:	d201      	bcs.n	2ffe16fa <unsigned_dec_print+0x2e>
2ffe16f6:	b005      	add	sp, #20
2ffe16f8:	bdf0      	pop	{r4, r5, r6, r7, pc}
2ffe16fa:	6813      	ldr	r3, [r2, #0]
2ffe16fc:	428b      	cmp	r3, r1
2ffe16fe:	d206      	bcs.n	2ffe170e <unsigned_dec_print+0x42>
2ffe1700:	6803      	ldr	r3, [r0, #0]
2ffe1702:	f81c 5004 	ldrb.w	r5, [ip, r4]
2ffe1706:	701d      	strb	r5, [r3, #0]
2ffe1708:	6803      	ldr	r3, [r0, #0]
2ffe170a:	3301      	adds	r3, #1
2ffe170c:	6003      	str	r3, [r0, #0]
2ffe170e:	6813      	ldr	r3, [r2, #0]
2ffe1710:	3301      	adds	r3, #1
2ffe1712:	6013      	str	r3, [r2, #0]
2ffe1714:	e7ed      	b.n	2ffe16f2 <unsigned_dec_print+0x26>
	...

2ffe1718 <snprintf>:
2ffe1718:	b40c      	push	{r2, r3}
2ffe171a:	2300      	movs	r3, #0
2ffe171c:	b530      	push	{r4, r5, lr}
2ffe171e:	b085      	sub	sp, #20
2ffe1720:	9c08      	ldr	r4, [sp, #32]
2ffe1722:	9001      	str	r0, [sp, #4]
2ffe1724:	9303      	str	r3, [sp, #12]
2ffe1726:	b129      	cbz	r1, 2ffe1734 <snprintf+0x1c>
2ffe1728:	2901      	cmp	r1, #1
2ffe172a:	bf06      	itte	eq
2ffe172c:	7003      	strbeq	r3, [r0, #0]
2ffe172e:	4619      	moveq	r1, r3
2ffe1730:	f101 31ff 	addne.w	r1, r1, #4294967295	; 0xffffffff
2ffe1734:	252d      	movs	r5, #45	; 0x2d
2ffe1736:	ab09      	add	r3, sp, #36	; 0x24
2ffe1738:	9302      	str	r3, [sp, #8]
2ffe173a:	7823      	ldrb	r3, [r4, #0]
2ffe173c:	b943      	cbnz	r3, 2ffe1750 <snprintf+0x38>
2ffe173e:	b109      	cbz	r1, 2ffe1744 <snprintf+0x2c>
2ffe1740:	9a01      	ldr	r2, [sp, #4]
2ffe1742:	7013      	strb	r3, [r2, #0]
2ffe1744:	9803      	ldr	r0, [sp, #12]
2ffe1746:	b005      	add	sp, #20
2ffe1748:	e8bd 4030 	ldmia.w	sp!, {r4, r5, lr}
2ffe174c:	b002      	add	sp, #8
2ffe174e:	4770      	bx	lr
2ffe1750:	2b25      	cmp	r3, #37	; 0x25
2ffe1752:	d141      	bne.n	2ffe17d8 <snprintf+0xc0>
2ffe1754:	7863      	ldrb	r3, [r4, #1]
2ffe1756:	2b73      	cmp	r3, #115	; 0x73
2ffe1758:	d028      	beq.n	2ffe17ac <snprintf+0x94>
2ffe175a:	d809      	bhi.n	2ffe1770 <snprintf+0x58>
2ffe175c:	2b64      	cmp	r3, #100	; 0x64
2ffe175e:	d00e      	beq.n	2ffe177e <snprintf+0x66>
2ffe1760:	2b69      	cmp	r3, #105	; 0x69
2ffe1762:	d00c      	beq.n	2ffe177e <snprintf+0x66>
2ffe1764:	4823      	ldr	r0, [pc, #140]	; (2ffe17f4 <snprintf+0xdc>)
2ffe1766:	4619      	mov	r1, r3
2ffe1768:	f7f9 fd34 	bl	2ffdb1d4 <tf_log>
2ffe176c:	f7f5 e8f6 	blx	2ffd695c <plat_panic_handler>
2ffe1770:	2b75      	cmp	r3, #117	; 0x75
2ffe1772:	d1f7      	bne.n	2ffe1764 <snprintf+0x4c>
2ffe1774:	9b02      	ldr	r3, [sp, #8]
2ffe1776:	1d1a      	adds	r2, r3, #4
2ffe1778:	9202      	str	r2, [sp, #8]
2ffe177a:	681b      	ldr	r3, [r3, #0]
2ffe177c:	e011      	b.n	2ffe17a2 <snprintf+0x8a>
2ffe177e:	9b02      	ldr	r3, [sp, #8]
2ffe1780:	1d1a      	adds	r2, r3, #4
2ffe1782:	681b      	ldr	r3, [r3, #0]
2ffe1784:	9202      	str	r2, [sp, #8]
2ffe1786:	2b00      	cmp	r3, #0
2ffe1788:	da0b      	bge.n	2ffe17a2 <snprintf+0x8a>
2ffe178a:	9a03      	ldr	r2, [sp, #12]
2ffe178c:	428a      	cmp	r2, r1
2ffe178e:	d204      	bcs.n	2ffe179a <snprintf+0x82>
2ffe1790:	9a01      	ldr	r2, [sp, #4]
2ffe1792:	7015      	strb	r5, [r2, #0]
2ffe1794:	9a01      	ldr	r2, [sp, #4]
2ffe1796:	3201      	adds	r2, #1
2ffe1798:	9201      	str	r2, [sp, #4]
2ffe179a:	9a03      	ldr	r2, [sp, #12]
2ffe179c:	425b      	negs	r3, r3
2ffe179e:	3201      	adds	r2, #1
2ffe17a0:	9203      	str	r2, [sp, #12]
2ffe17a2:	aa03      	add	r2, sp, #12
2ffe17a4:	a801      	add	r0, sp, #4
2ffe17a6:	f7ff ff91 	bl	2ffe16cc <unsigned_dec_print>
2ffe17aa:	e007      	b.n	2ffe17bc <snprintf+0xa4>
2ffe17ac:	9b02      	ldr	r3, [sp, #8]
2ffe17ae:	1d1a      	adds	r2, r3, #4
2ffe17b0:	681b      	ldr	r3, [r3, #0]
2ffe17b2:	9202      	str	r2, [sp, #8]
2ffe17b4:	3b01      	subs	r3, #1
2ffe17b6:	f813 2f01 	ldrb.w	r2, [r3, #1]!
2ffe17ba:	b90a      	cbnz	r2, 2ffe17c0 <snprintf+0xa8>
2ffe17bc:	3402      	adds	r4, #2
2ffe17be:	e7bc      	b.n	2ffe173a <snprintf+0x22>
2ffe17c0:	9803      	ldr	r0, [sp, #12]
2ffe17c2:	4281      	cmp	r1, r0
2ffe17c4:	d904      	bls.n	2ffe17d0 <snprintf+0xb8>
2ffe17c6:	9801      	ldr	r0, [sp, #4]
2ffe17c8:	7002      	strb	r2, [r0, #0]
2ffe17ca:	9a01      	ldr	r2, [sp, #4]
2ffe17cc:	3201      	adds	r2, #1
2ffe17ce:	9201      	str	r2, [sp, #4]
2ffe17d0:	9a03      	ldr	r2, [sp, #12]
2ffe17d2:	3201      	adds	r2, #1
2ffe17d4:	9203      	str	r2, [sp, #12]
2ffe17d6:	e7ee      	b.n	2ffe17b6 <snprintf+0x9e>
2ffe17d8:	9a03      	ldr	r2, [sp, #12]
2ffe17da:	428a      	cmp	r2, r1
2ffe17dc:	d204      	bcs.n	2ffe17e8 <snprintf+0xd0>
2ffe17de:	9a01      	ldr	r2, [sp, #4]
2ffe17e0:	7013      	strb	r3, [r2, #0]
2ffe17e2:	9b01      	ldr	r3, [sp, #4]
2ffe17e4:	3301      	adds	r3, #1
2ffe17e6:	9301      	str	r3, [sp, #4]
2ffe17e8:	9b03      	ldr	r3, [sp, #12]
2ffe17ea:	3401      	adds	r4, #1
2ffe17ec:	3301      	adds	r3, #1
2ffe17ee:	9303      	str	r3, [sp, #12]
2ffe17f0:	e7a3      	b.n	2ffe173a <snprintf+0x22>
2ffe17f2:	bf00      	nop
2ffe17f4:	2ffe5259 	.word	0x2ffe5259

2ffe17f8 <strchr>:
2ffe17f8:	b2c9      	uxtb	r1, r1
2ffe17fa:	4603      	mov	r3, r0
2ffe17fc:	781a      	ldrb	r2, [r3, #0]
2ffe17fe:	4618      	mov	r0, r3
2ffe1800:	3301      	adds	r3, #1
2ffe1802:	428a      	cmp	r2, r1
2ffe1804:	d002      	beq.n	2ffe180c <strchr+0x14>
2ffe1806:	2a00      	cmp	r2, #0
2ffe1808:	d1f8      	bne.n	2ffe17fc <strchr+0x4>
2ffe180a:	4610      	mov	r0, r2
2ffe180c:	4770      	bx	lr

2ffe180e <strcmp>:
2ffe180e:	1e43      	subs	r3, r0, #1
2ffe1810:	f813 0f01 	ldrb.w	r0, [r3, #1]!
2ffe1814:	f811 2b01 	ldrb.w	r2, [r1], #1
2ffe1818:	4290      	cmp	r0, r2
2ffe181a:	d001      	beq.n	2ffe1820 <strcmp+0x12>
2ffe181c:	1a80      	subs	r0, r0, r2
2ffe181e:	e001      	b.n	2ffe1824 <strcmp+0x16>
2ffe1820:	2800      	cmp	r0, #0
2ffe1822:	d1f5      	bne.n	2ffe1810 <strcmp+0x2>
2ffe1824:	4770      	bx	lr

2ffe1826 <strlen>:
2ffe1826:	4603      	mov	r3, r0
2ffe1828:	461a      	mov	r2, r3
2ffe182a:	3301      	adds	r3, #1
2ffe182c:	7811      	ldrb	r1, [r2, #0]
2ffe182e:	2900      	cmp	r1, #0
2ffe1830:	d1fa      	bne.n	2ffe1828 <strlen+0x2>
2ffe1832:	1a10      	subs	r0, r2, r0
2ffe1834:	4770      	bx	lr

2ffe1836 <strncmp>:
2ffe1836:	4603      	mov	r3, r0
2ffe1838:	4610      	mov	r0, r2
2ffe183a:	b510      	push	{r4, lr}
2ffe183c:	b142      	cbz	r2, 2ffe1850 <strncmp+0x1a>
2ffe183e:	188c      	adds	r4, r1, r2
2ffe1840:	3b01      	subs	r3, #1
2ffe1842:	f813 0f01 	ldrb.w	r0, [r3, #1]!
2ffe1846:	f811 2b01 	ldrb.w	r2, [r1], #1
2ffe184a:	4290      	cmp	r0, r2
2ffe184c:	d001      	beq.n	2ffe1852 <strncmp+0x1c>
2ffe184e:	1a80      	subs	r0, r0, r2
2ffe1850:	bd10      	pop	{r4, pc}
2ffe1852:	2800      	cmp	r0, #0
2ffe1854:	d0fc      	beq.n	2ffe1850 <strncmp+0x1a>
2ffe1856:	428c      	cmp	r4, r1
2ffe1858:	d1f3      	bne.n	2ffe1842 <strncmp+0xc>
2ffe185a:	2000      	movs	r0, #0
2ffe185c:	e7f8      	b.n	2ffe1850 <strncmp+0x1a>

2ffe185e <strnlen>:
2ffe185e:	4603      	mov	r3, r0
2ffe1860:	2000      	movs	r0, #0
2ffe1862:	4288      	cmp	r0, r1
2ffe1864:	d100      	bne.n	2ffe1868 <strnlen+0xa>
2ffe1866:	4770      	bx	lr
2ffe1868:	5c1a      	ldrb	r2, [r3, r0]
2ffe186a:	2a00      	cmp	r2, #0
2ffe186c:	d0fb      	beq.n	2ffe1866 <strnlen+0x8>
2ffe186e:	3001      	adds	r0, #1
2ffe1870:	e7f7      	b.n	2ffe1862 <strnlen+0x4>

2ffe1872 <strrchr>:
2ffe1872:	4603      	mov	r3, r0
2ffe1874:	b2c9      	uxtb	r1, r1
2ffe1876:	2000      	movs	r0, #0
2ffe1878:	b510      	push	{r4, lr}
2ffe187a:	461c      	mov	r4, r3
2ffe187c:	f813 2b01 	ldrb.w	r2, [r3], #1
2ffe1880:	428a      	cmp	r2, r1
2ffe1882:	bf08      	it	eq
2ffe1884:	4620      	moveq	r0, r4
2ffe1886:	2a00      	cmp	r2, #0
2ffe1888:	d1f7      	bne.n	2ffe187a <strrchr+0x8>
2ffe188a:	bd10      	pop	{r4, pc}

2ffe188c <build_message>:
2ffe188c:	7542 6c69 2074 203a 3332 313a 3a33 3731     Built : 23:13:17
2ffe189c:	202c 614d 2079 3731 3220 3230 0033          , May 17 2023.

2ffe18aa <version_string>:
2ffe18aa:	3276 322e 722d 2e31 2830 6564 7562 2967     v2.2-r1.0(debug)
2ffe18ba:	333a 3836 6461 6136 6332 642d 7269 7974     :368ad6a2c-dirty
2ffe18ca:	6400 6972 6576 7372 692f 2f6f 6f69 645f     .drivers/io/io_d
2ffe18da:	6d75 796d 632e 1e00 2041 7544 6d6d 2079     ummy.c..A Dummy 
2ffe18ea:	6564 6976 6563 6920 2073 6c61 6572 6461     device is alread
2ffe18fa:	2079 6361 6974 6576 202e 6c43 736f 2065     y active. Close 
2ffe190a:	6966 7372 2e74 000a 0000                    first.....

2ffe1914 <dummy_dev_connector>:
2ffe1914:	6979 2ffd                                   yi./

2ffe1918 <dummy_dev_funcs>:
2ffe1918:	6971 2ffd 69ed 2ffd 0000 0000 69cd 2ffd     qi./.i./.....i./
2ffe1928:	69b5 2ffd 0000 0000 6995 2ffd 0000 0000     .i./.....i./....
2ffe1938:	6975 2ffd                                   ui./

2ffe193c <dummy_dev_info>:
2ffe193c:	1918 2ffe 0000 0000 7264 7669 7265 2f73     .../....drivers/
2ffe194c:	6f69 692f 5f6f 7473 726f 6761 2e65 0063     io/io_storage.c.
2ffe195c:	250a 3a73 6220 7375 2079 6974 656d 756f     .%s: busy timeou
2ffe196c:	0a74 6400 6972 6576 7372 732f 2f74 7263     t..drivers/st/cr
2ffe197c:	7079 6f74 732f 6d74 3233 685f 7361 2e68     ypto/stm32_hash.
2ffe198c:	0063 7473 732c 6d74 3233 3766 3635 682d     c.st,stm32f756-h
2ffe199c:	7361 0068                                   ash.

2ffe19a0 <__func__.7021>:
2ffe19a0:	6168 6873 775f 6961 5f74 7562 7973           hash_wait_busy.

2ffe19af <__func__.7029>:
2ffe19af:	6168 6873 775f 6961 5f74 6f63 706d 7475     hash_wait_comput
2ffe19bf:	7461 6f69 006e 5528 6973 676e 5320 4d44     ation.(Using SDM
2ffe19cf:	434d 000a 5528 6973 676e 4520 4d4d 0a43     MC..(Using EMMC.
2ffe19df:	2800 7355 6e69 2067 5351 4950 4e20 524f     .(Using QSPI NOR
2ffe19ef:	000a 5528 6973 676e 4620 434d 4e20 4e41     ..(Using FMC NAN
2ffe19ff:	0a44 2800 7355 6e69 2067 5053 2049 414e     D..(Using SPI NA
2ffe1a0f:	444e 000a 5528 6973 676e 5520 5241 0a54     ND..(Using UART.
2ffe1a1f:	2800 7355 6e69 2067 5355 0a42 0a00 6f42     .(Using USB...Bo
2ffe1a2f:	746f 6920 746e 7265 6166 6563 2520 2075     ot interface %u 
2ffe1a3f:	6f6e 2074 6f66 6e75 0a64 2800 2020 6e49     not found..(  In
2ffe1a4f:	7473 6e61 6563 2520 0a64 2800 6f42 746f     stance %d..(Boot
2ffe1a5f:	7520 6573 2064 6170 7472 7469 6f69 206e      used partition 
2ffe1a6f:	7366 6c62 6425 000a 6c70 7461 732f 2f74     fsbl%d..plat/st/
2ffe1a7f:	6f63 6d6d 6e6f 622f 326c 695f 5f6f 7473     common/bl2_io_st
2ffe1a8f:	726f 6761 2e65 0063 551e 5241 2054 6e69     orage.c..UART in
2ffe1a9f:	7473 6e61 6563 6e20 746f 6620 756f 646e     stance not found
2ffe1aaf:	202c 7375 6e69 2067 6564 6166 6c75 0a74     , using default.
2ffe1abf:	0a00 6f42 746f 6920 746e 7265 6166 6563     ..Boot interface
2ffe1acf:	2520 2064 6f6e 2074 7573 7070 726f 6574      %d not supporte
2ffe1adf:	0a64 0000                                    d....

2ffe1ae4 <bl2_block_spec>:
2ffe1ae4:	6000 2ffd 7000 0001                         .`./.p..

2ffe1aec <bl32_block_spec>:
2ffe1aec:	d000 2ffe 2000 0001                         .../. ..

2ffe1af4 <bl33_partition_spec>:
2ffe1af4:	7373 6c62 0000 0000 0000 0000 0000 0000     ssbl............
	...

2ffe1b28 <policies>:
	...
2ffe1b34:	70d4 2ffe 1ae4 2ffe 6fed 2ffd 0000 0000     .p./.../.o./....
	...
2ffe1b58:	70d4 2ffe 1aec 2ffe 6fed 2ffd 70d8 2ffe     .p./.../.o./.p./
2ffe1b68:	1af4 2ffe 6fdd 2ffd 0000 0000 0000 0000     .../.o./........
	...
2ffe1c84:	74b4 2ffe 74ac 2ffe 6fcd 2ffd 6c70 7461     .t./.t./.o./plat
2ffe1c94:	732f 2f74 7473 336d 6d32 3170 622f 326c     /st/stm32mp1/bl2
2ffe1ca4:	705f 616c 5f74 6573 7574 2e70 0063 490a     _plat_setup.c..I
2ffe1cb4:	766e 6c61 6469 4420 5244 6920 696e 3a74     nvalid DDR init:
2ffe1cc4:	6520 7272 726f 2520 0a64 2800 4c42 2032      error %d..(BL2 
2ffe1cd4:	7572 736e 5320 5f50 494d 204e 6573 7574     runs SP_MIN setu
2ffe1ce4:	0a70 6600 6961 656c 0064 7573 6363 6565     p..failed.succee
2ffe1cf4:	6564 0064 4d14 646f 6c65 203a 7325 000a     ded..Model: %s..
2ffe1d04:	4214 6f6f 7274 6d6f 6120 7475 6568 746e     .Bootrom authent
2ffe1d14:	6369 7461 6f69 206e 7325 000a 4928 4457     ication %s..(IWD
2ffe1d24:	3247 6620 6572 7a65 2065 7265 6f72 2072     G2 freeze error 
2ffe1d34:	203a 6925 000a 0a14 7325 0a00 6143 6e6e     : %i....%s..Cann
2ffe1d44:	746f 7320 7661 2065 6f62 746f 6920 746e     ot save boot int
2ffe1d54:	7265 6166 6563 000a 521e 7365 7465 7220     erface...Reset r
2ffe1d64:	6165 6f73 206e 6e75 6e6b 776f 0a6e 2800     eason unknown..(
2ffe1d74:	6552 6573 2074 6572 7361 6e6f 2820 7830     Reset reason (0x
2ffe1d84:	7825 3a29 000a 5328 7379 6574 206d 7865     %x):..(System ex
2ffe1d94:	7469 2073 7266 6d6f 5320 4154 444e 5942     its from STANDBY
2ffe1da4:	000a 4d28 5550 6520 6978 7374 6620 6f72     ..(MPU exits fro
2ffe1db4:	206d 5343 4154 444e 5942 000a 2028 5020     m CSTANDBY..(  P
2ffe1dc4:	776f 7265 6f2d 206e 6552 6573 2074 7228     ower-on Reset (r
2ffe1dd4:	7473 705f 726f 0a29 2800 2020 7242 776f     st_por)..(  Brow
2ffe1de4:	6f6e 7475 5220 7365 7465 2820 7372 5f74     nout Reset (rst_
2ffe1df4:	6f62 2972 000a 2028 5320 7379 6574 206d     bor)..(  System 
2ffe1e04:	6572 6573 2074 6567 656e 6172 6574 2064     reset generated 
2ffe1e14:	7962 4d20 5543 2820 434d 5953 5253 5453     by MCU (MCSYSRST
2ffe1e24:	0a29 2800 2020 6f4c 6163 206c 6572 6573     )..(  Local rese
2ffe1e34:	2074 6567 656e 6172 6574 2064 7962 4d20     t generated by M
2ffe1e44:	5543 2820 434d 5953 5253 5453 0a29 2800     CU (MCSYSRST)..(
2ffe1e54:	2020 7953 7473 6d65 7220 7365 7465 6720       System reset g
2ffe1e64:	6e65 7265 7461 6465 6220 2079 504d 2055     enerated by MPU 
2ffe1e74:	4d28 5350 5359 5352 2954 000a 2028 5220     (MPSYSRST)..(  R
2ffe1e84:	7365 7465 6420 6575 7420 206f 2061 6c63     eset due to a cl
2ffe1e94:	636f 206b 6166 6c69 7275 2065 6e6f 4820     ock failure on H
2ffe1ea4:	4553 000a 2028 4920 4457 3147 5220 7365     SE..(  IWDG1 Res
2ffe1eb4:	7465 2820 7372 5f74 7769 6764 2931 000a     et (rst_iwdg1)..
2ffe1ec4:	2028 4920 4457 3247 5220 7365 7465 2820     (  IWDG2 Reset (
2ffe1ed4:	7372 5f74 7769 6764 2932 000a 2028 4d20     rst_iwdg2)..(  M
2ffe1ee4:	5550 5020 6f72 6563 7373 726f 3020 5220     PU Processor 0 R
2ffe1ef4:	7365 7465 000a 2028 4d20 5550 5020 6f72     eset..(  MPU Pro
2ffe1f04:	6563 7373 726f 3120 5220 7365 7465 000a     cessor 1 Reset..
2ffe1f14:	2028 5020 6461 5220 7365 7465 6620 6f72     (  Pad Reset fro
2ffe1f24:	206d 524e 5453 000a 2028 5220 7365 7465     m NRST..(  Reset
2ffe1f34:	6420 6575 7420 206f 2061 6166 6c69 7275      due to a failur
2ffe1f44:	2065 666f 5620 4444 435f 524f 0a45 0a00     e of VDD_CORE...
2ffe1f54:	2020 6e55 6469 6e65 6974 6966 6465 7220       Unidentified r
2ffe1f64:	7365 7465 7220 6165 6f73 0a6e 6d00 6e6f     eset reason..mon
2ffe1f74:	746f 6e6f 6369 6f5f 7074 0a00 5342 4345     otonic_otp..BSEC
2ffe1f84:	203a 4f4d 4f4e 4f54 494e 5f43 544f 2050     : MONOTONIC_OTP 
2ffe1f94:	7270 676f 6172 206d 7245 6f72 2072 6925     program Error %i
2ffe1fa4:	000a 4d28 6e6f 746f 6e6f 6369 6320 756f     ..(Monotonic cou
2ffe1fb4:	746e 7265 6820 7361 6220 6565 206e 6e69     nter has been in
2ffe1fc4:	7263 6d65 6e65 6574 2064 7628 6c61 6575     cremented (value
2ffe1fd4:	3020 2578 2978 000a                          0x%x)..

2ffe1fdc <debug_msg>:
2ffe1fdc:	2a2a 2a2a 2a2a 2a2a 2a2a 2a2a 2a2a 2a2a     ****************
2ffe1fec:	2a2a 2a2a 2a2a 2a2a 2a2a 2a2a 2a2a 2a2a     ****************
2ffe1ffc:	2a2a 2a2a 2a2a 2a2a 2a2a 2a2a 2a2a 2a2a     ****************
2ffe200c:	2a2a 0a2a 2a2a 4e20 544f 4349 2045 2020     ***.** NOTICE   
2ffe201c:	4f4e 4954 4543 2020 4e20 544f 4349 2045     NOTICE   NOTICE 
2ffe202c:	2020 4f4e 4954 4543 2020 4e20 544f 4349       NOTICE   NOTIC
2ffe203c:	2045 2020 2a20 0a2a 2a2a 2020 2020 2020     E    **.**      
2ffe204c:	2020 2020 2020 2020 2020 2020 2020 2020                     
2ffe205c:	2020 2020 2020 2020 2020 2020 2020 2020                     
2ffe206c:	2020 2020 2020 2020 2a20 0a2a 2a2a 4420              **.** D
2ffe207c:	4245 4755 4120 4343 5345 2053 4f50 5452     EBUG ACCESS PORT
2ffe208c:	4920 2053 504f 4e45 2021 2020 2020 2020      IS OPEN!       
2ffe209c:	2020 2020 2020 2020 2020 2020 2a20 0a2a                  **.
2ffe20ac:	2a2a 5420 6968 2073 6f62 746f 6920 616d     ** This boot ima
2ffe20bc:	6567 6920 2073 6e6f 796c 6620 726f 6420     ge is only for d
2ffe20cc:	6265 6775 6967 676e 7020 7275 6f70 6573     ebugging purpose
2ffe20dc:	2a20 0a2a 2a2a 6120 646e 6920 2073 6e75      **.** and is un
2ffe20ec:	6173 6566 6620 726f 7020 6f72 7564 7463     safe for product
2ffe20fc:	6f69 206e 7375 2e65 2020 2020 2020 2020     ion use.        
2ffe210c:	2020 2020 2a20 0a2a 2a2a 2020 2020 2020          **.**      
2ffe211c:	2020 2020 2020 2020 2020 2020 2020 2020                     
2ffe212c:	2020 2020 2020 2020 2020 2020 2020 2020                     
2ffe213c:	2020 2020 2020 2020 2a20 0a2a 2a2a 4920              **.** I
2ffe214c:	2066 6f79 2075 6573 2065 6874 7369 6d20     f you see this m
2ffe215c:	7365 6173 6567 6120 646e 7920 756f 6120     essage and you a
2ffe216c:	6572 6e20 746f 2020 2020 2020 2a20 0a2a     re not       **.
2ffe217c:	2a2a 6420 6265 6775 6967 676e 7220 7065     ** debugging rep
2ffe218c:	726f 2074 6874 7369 6920 6d6d 6465 6169     ort this immedia
2ffe219c:	6574 796c 7420 206f 6f79 7275 2020 2020     tely to your    
2ffe21ac:	2a20 0a2a 2a2a 7620 6e65 6f64 2172 2020      **.** vendor!  
2ffe21bc:	2020 2020 2020 2020 2020 2020 2020 2020                     
2ffe21cc:	2020 2020 2020 2020 2020 2020 2020 2020                     
2ffe21dc:	2020 2020 2a20 0a2a 2a2a 2020 2020 2020          **.**      
2ffe21ec:	2020 2020 2020 2020 2020 2020 2020 2020                     
2ffe21fc:	2020 2020 2020 2020 2020 2020 2020 2020                     
2ffe220c:	2020 2020 2020 2020 2a20 0a2a 2a2a 2a2a              **.****
2ffe221c:	2a2a 2a2a 2a2a 2a2a 2a2a 2a2a 2a2a 2a2a     ****************
2ffe222c:	2a2a 2a2a 2a2a 2a2a 2a2a 2a2a 2a2a 2a2a     ****************
2ffe223c:	2a2a 2a2a 2a2a 2a2a 2a2a 2a2a 2a2a 0a2a     ***************.
2ffe224c:	0000 7264 7669 7265 2f73 7561 6874 612f     ..drivers/auth/a
2ffe225c:	7475 5f68 6f6d 2e64 0063 5214 544f 4b50     uth_mod.c..ROTPK
2ffe226c:	6920 2073 6f6e 2074 6564 6c70 796f 6465      is not deployed
2ffe227c:	6f20 206e 6c70 7461 6f66 6d72 202e 6b53      on platform. Sk
2ffe228c:	7069 6970 676e 5220 544f 4b50 7620 7265     ipping ROTPK ver
2ffe229c:	6669 6369 7461 6f69 2e6e 000a 7264 7669     ification...driv
2ffe22ac:	7265 2f73 7561 6874 632f 7972 7470 5f6f     ers/auth/crypto_
2ffe22bc:	6f6d 2e64 0063 5528 6973 676e 6320 7972     mod.c.(Using cry
2ffe22cc:	7470 206f 696c 7262 7261 2079 2527 2773     pto library '%s'
2ffe22dc:	000a 7264 7669 7265 2f73 7561 6874 692f     ..drivers/auth/i
2ffe22ec:	676d 705f 7261 6573 5f72 6f6d 2e64 0063     mg_parser_mod.c.

2ffe22fc <__compound_literal.0>:
	...

2ffe234c <__compound_literal.1>:
2ffe234c:	0002 0000 60d4 2ffe 60dc 2ffe 60e4 2ffe     .....`./.`./.`./
2ffe235c:	60ec 2ffe 0000 0000 0000 0000 0000 0000     .`./............
	...

2ffe239c <bl32_image>:
2ffe239c:	0004 0000 0000 0000 0000 0000 22fc 2ffe     ............."./
2ffe23ac:	0000 0000                                   ....

2ffe23b0 <bl33_image>:
2ffe23b0:	0005 0000 0001 0000 0000 0000 234c 2ffe     ............L#./
2ffe23c0:	0000 0000                                   ....

2ffe23c4 <cot_desc>:
	...
2ffe23d4:	239c 2ffe 23b0 2ffe                         .#./.#./

2ffe23dc <cot_desc_ptr>:
2ffe23dc:	23c4 2ffe 531e 696b 2070 6973 6e67 7461     .#./.Skip signat
2ffe23ec:	7275 2065 6863 6365 206b 6828 6165 6564     ure check (heade
2ffe23fc:	2072 706f 6974 6e6f 0a29 2800 6843 6365     r option)..(Chec
2ffe240c:	206b 6973 6e67 7461 7275 2065 6e6f 4f20     k signature on O
2ffe241c:	6570 206e 6564 6976 6563 000a 520a 544f     pen device...ROT
2ffe242c:	4b50 7620 7265 6669 6369 7461 6f69 206e     PK verification 
2ffe243c:	6166 6c69 6465 000a 5214 544f 4b50 7620     failed...ROTPK v
2ffe244c:	7265 6669 6369 7461 6f69 206e 6f66 6372     erification forc
2ffe245c:	6465 6120 646e 6320 6568 6b63 6465 4f20     ed and checked O
2ffe246c:	0a4b 7300 6d74 3233 635f 7972 7470 5f6f     K..stm32_crypto_
2ffe247c:	696c 0062                                   lib.

2ffe2480 <crypto_lib_desc>:
2ffe2480:	246f 2ffe 7ee9 2ffd 7de9 2ffd 7da1 2ffd     o$./.~./.}./.}./
2ffe2490:	7473 336d 5f32 6d69 5f67 6170 7372 7265     stm32_img_parser
2ffe24a0:	6c5f 6269 7000 686b 6f5f 7074 6400 6972     _lib.pkh_otp.dri
2ffe24b0:	6576 7372 732f 2f74 6175 7472 692f 5f6f     vers/st/uart/io_
2ffe24c0:	7270 676f 6172 6d6d 7265 755f 7261 2e74     programmer_uart.
2ffe24d0:	0063 551e 5241 3a54 4320 6d6f 616d 646e     c..UART: Command
2ffe24e0:	5820 524f 6320 6568 6b63 6620 6961 206c      XOR check fail 
2ffe24f0:	6228 7479 3d65 7830 7825 202c 6f78 3d72     (byte=0x%x, xor=
2ffe2500:	7830 7825 0a29 1e00 4155 5452 203a 6f43     0x%x)...UART: Co
2ffe2510:	6d6d 6e61 2064 6e75 6e6b 776f 206e 6228     mmand unknown (b
2ffe2520:	7479 3d65 7830 7825 0a29 1e00 4155 5452     yte=0x%x)...UART
2ffe2530:	203a 6564 6976 6563 6520 7272 726f 6f20     : device error o
2ffe2540:	206e 6f63 6d6d 6e61 2064 6572 6563 7669     n command receiv
2ffe2550:	0a65 1e00 4155 5452 203a 6142 2064 6170     e...UART: Bad pa
2ffe2560:	6b63 7465 6e20 6d75 6562 2072 6572 6563     cket number rece
2ffe2570:	7669 3a65 2520 0a69 1e00 4155 5452 203a     ive: %i...UART: 
2ffe2580:	6f44 6e77 6f6c 6461 4320 6d6f 616d 646e     Download Command
2ffe2590:	6820 6165 6564 2072 6863 6365 736b 6d75      header checksum
2ffe25a0:	6620 6961 3a6c 6320 6c61 7563 616c 6574      fail: calculate
2ffe25b0:	2064 6f78 3a72 2520 2c69 7220 6365 6965     d xor: %i, recei
2ffe25c0:	6576 2064 6f78 3a72 6925 000a 551e 5241     ved xor:%i...UAR
2ffe25d0:	3a54 4420 776f 6c6e 616f 2064 6f43 6d6d     T: Download Comm
2ffe25e0:	6e61 2064 6164 6174 6320 6568 6b63 7573     and data checksu
2ffe25f0:	206d 6166 6c69 203a 6163 636c 6c75 7461     m fail: calculat
2ffe2600:	6465 7820 726f 203a 7830 7825 202c 6572     ed xor: 0x%x, re
2ffe2610:	6563 7669 6465 7820 726f 303a 2578 0a78     ceived xor:0x%x.
2ffe2620:	1e00 4155 5452 203a 7453 7261 2074 6f63     ..UART: Start co
2ffe2630:	6d6d 6e61 2064 6863 6365 736b 6d75 6620     mmand checksum f
2ffe2640:	6961 3a6c 6320 6c61 7563 616c 6574 2064     ail: calculated 
2ffe2650:	6f78 3a72 2520 2c69 7220 6365 6965 6576     xor: %i, receive
2ffe2660:	2064 6f78 3a72 6925 000a 490a 766e 6c61     d xor:%i...Inval
2ffe2670:	6469 7020 6168 6573 4920 2044 203a 6925     id phase ID : %i
2ffe2680:	000a 551e 5241 3a54 5520 6b6e 6f6e 6e77     ...UART: Unknown
2ffe2690:	6320 6d6f 616d 646e 000a 5228 6165 2064      command..(Read 
2ffe26a0:	6c62 636f 206b 6e69 6220 6675 6566 2072     block in buffer 
2ffe26b0:	7830 6c25 2078 6973 657a 3020 2578 2078     0x%lx size 0x%x 
2ffe26c0:	6870 7361 2065 4449 2520 0a69 2800 6962     phase ID %i..(bi
2ffe26d0:	616e 7972 7320 7a69 2065 7830 7825 000a     nary size 0x%x..
2ffe26e0:	7373 6c62 1e00 2041 4155 5452 6420 7665     ssbl..A UART dev
2ffe26f0:	6369 2065 7369 6120 726c 6165 7964 6120     ice is already a
2ffe2700:	7463 7669 2e65 4320 6f6c 6573 6620 7269     ctive. Close fir
2ffe2710:	7473 0a2e 0000 0000                         st......

2ffe2718 <uart_dev_connector>:
2ffe2718:	8145 2ffd                                   E../

2ffe271c <uart_dev_funcs>:
2ffe271c:	807f 2ffd 8545 2ffd 0000 0000 84e1 2ffd     .../E../......./
2ffe272c:	8185 2ffd 0000 0000 808d 2ffd 8083 2ffd     .../......./.../
2ffe273c:	8087 2ffd                                   .../

2ffe2740 <uart_dev_info>:
2ffe2740:	271c 2ffe 0000 0000                         .'./....

2ffe2748 <presc_table>:
2ffe2748:	0001 0002 0004 0006 0008 000a 000c 0010     ................
2ffe2758:	0020 0040 0080 0100 690a 766e 6c61 6469      .@......invalid
2ffe2768:	7020 7261 6d61 7465 7265 6f20 6666 6573      parameter offse
2ffe2778:	2074 6f66 2072 7325 0a00 4444 2052 7974     t for %s..DDR ty
2ffe2788:	6570 6e20 746f 7320 7075 6f70 7472 6465     pe not supported
2ffe2798:	000a 7473 7461 6369 6400 3078 6c64 636c     ..static.dx0dllc
2ffe27a8:	0072 7864 6430 7471 0072 7864 6430 7371     r.dx0dqtr.dx0dqs
2ffe27b8:	7274 6400 3178 6c64 636c 0072 7864 6431     tr.dx1dllcr.dx1d
2ffe27c8:	7471 0072 7864 6431 7371 7274 6400 3278     qtr.dx1dqstr.dx2
2ffe27d8:	6c64 636c 0072 7864 6432 7471 0072 7864     dllcr.dx2dqtr.dx
2ffe27e8:	6432 7371 7274 6400 3378 6c64 636c 0072     2dqstr.dx3dllcr.
2ffe27f8:	7864 6433 7471 0072 7864 6433 7371 7274     dx3dqtr.dx3dqstr
2ffe2808:	7000 7274 0030 7470 3172 7000 7274 0032     .ptr0.ptr1.ptr2.
2ffe2818:	7464 7270 0030 7464 7270 0031 7464 7270     dtpr0.dtpr1.dtpr
2ffe2828:	0032 726d 0030 726d 0031 726d 0032 726d     2.mr0.mr1.mr2.mr
2ffe2838:	0033 6770 7263 6100 6963 636f 0072 7864     3.pgcr.aciocr.dx
2ffe2848:	6363 0072 7364 6367 0072 6364 0072 646f     ccr.dsgcr.dcr.od
2ffe2858:	6374 0072 717a 6330 3172 6400 3078 6367     tcr.zq0cr1.dx0gc
2ffe2868:	0072 7864 6731 7263 6400 3278 6367 0072     r.dx1gcr.dx2gcr.
2ffe2878:	7864 6733 7263 7300 6863 6465 7300 6863     dx3gcr.sched.sch
2ffe2888:	6465 0031 6570 6672 7068 3172 7000 7265     ed1.perfhpr1.per
2ffe2898:	6c66 7270 0031 6570 6672 7277 0031 6370     flpr1.perfwr1.pc
2ffe28a8:	6766 5f72 0030 6370 6766 5f77 0030 6370     fgr_0.pcfgw_0.pc
2ffe28b8:	6766 6f71 3073 305f 7000 6663 7167 736f     fgqos0_0.pcfgqos
2ffe28c8:	5f31 0030 6370 6766 7177 736f 5f30 0030     1_0.pcfgwqos0_0.
2ffe28d8:	6370 6766 7177 736f 5f31 0030 6370 6766     pcfgwqos1_0.pcfg
2ffe28e8:	5f72 0031 6370 6766 5f77 0031 6370 6766     r_1.pcfgw_1.pcfg
2ffe28f8:	6f71 3073 315f 7000 6663 7167 736f 5f31     qos0_1.pcfgqos1_
2ffe2908:	0031 6370 6766 7177 736f 5f30 0031 6370     1.pcfgwqos0_1.pc
2ffe2918:	6766 7177 736f 5f31 0031 6461 7264 616d     fgwqos1_1.addrma
2ffe2928:	3170 6100 6464 6d72 7061 0032 6461 7264     p1.addrmap2.addr
2ffe2938:	616d 3370 6100 6464 6d72 7061 0034 6461     map3.addrmap4.ad
2ffe2948:	7264 616d 3570 6100 6464 6d72 7061 0036     drmap5.addrmap6.
2ffe2958:	6461 7264 616d 3970 6100 6464 6d72 7061     addrmap9.addrmap
2ffe2968:	3031 6100 6464 6d72 7061 3131 7200 7366     10.addrmap11.rfs
2ffe2978:	7468 676d 6400 6172 746d 676d 0030 7264     htmg.dramtmg0.dr
2ffe2988:	6d61 6d74 3167 6400 6172 746d 676d 0032     amtmg1.dramtmg2.
2ffe2998:	7264 6d61 6d74 3367 6400 6172 746d 676d     dramtmg3.dramtmg
2ffe29a8:	0034 7264 6d61 6d74 3567 6400 6172 746d     4.dramtmg5.dramt
2ffe29b8:	676d 0036 7264 6d61 6d74 3767 6400 6172     mg6.dramtmg7.dra
2ffe29c8:	746d 676d 0038 7264 6d61 6d74 3167 0034     mtmg8.dramtmg14.
2ffe29d8:	646f 6374 6766 6d00 6372 7274 306c 6d00     odtcfg.mrctrl0.m
2ffe29e8:	6372 7274 316c 6400 7265 7461 6565 006e     rctrl1.derateen.
2ffe29f8:	6564 6172 6574 6e69 0074 7770 6372 6c74     derateint.pwrctl
2ffe2a08:	7000 7277 6d74 0067 7768 706c 7463 006c     .pwrtmg.hwlpctl.
2ffe2a18:	6672 6873 7463 306c 7200 7366 6368 6c74     rfshctl0.rfshctl
2ffe2a28:	0033 7263 7063 7261 7463 306c 7a00 6371     3.crcparctl0.zqc
2ffe2a38:	6c74 0030 6664 7469 676d 0030 6664 7469     tl0.dfitmg0.dfit
2ffe2a48:	676d 0031 6664 6c69 6370 6766 0030 6664     mg1.dfilpcfg0.df
2ffe2a58:	7569 6470 0030 6664 7569 6470 0031 6664     iupd0.dfiupd1.df
2ffe2a68:	7569 6470 0032 6664 7069 7968 736d 7274     iupd2.dfiphymstr
2ffe2a78:	6f00 7464 616d 0070 6264 3067 6400 6762     .odtmap.dbg0.dbg
2ffe2a88:	0031 6264 6367 646d 7000 696f 6f73 636e     1.dbgcmd.poisonc
2ffe2a98:	6766 7000 6363 6766 0000 0000               fg.pccfg....

2ffe2aa4 <ddr_map>:
2ffe2aa4:	2922 2ffe 0204 0000 292b 2ffe 0208 0004     ")./....+)./....
2ffe2ab4:	2934 2ffe 020c 0008 293d 2ffe 0210 000c     4)./....=)./....
2ffe2ac4:	2946 2ffe 0214 0010 294f 2ffe 0218 0014     F)./....O)./....
2ffe2ad4:	2958 2ffe 0224 0018 2961 2ffe 0228 001c     X)./$...a)./(...
2ffe2ae4:	296b 2ffe 022c 0020                         k)./,. .

2ffe2aec <ddr_perf>:
2ffe2aec:	287f 2ffe 0250 0000 2885 2ffe 0254 0004     .(./P....(./T...
2ffe2afc:	288c 2ffe 025c 0008 2895 2ffe 0264 000c     .(./\....(./d...
2ffe2b0c:	289e 2ffe 026c 0010 28a6 2ffe 0404 0014     .(./l....(./....
2ffe2b1c:	28ae 2ffe 0408 0018 28b6 2ffe 0494 001c     .(./.....(./....
2ffe2b2c:	28c1 2ffe 0498 0020 28cc 2ffe 049c 0024     .(./.. ..(./..$.
2ffe2b3c:	28d8 2ffe 04a0 0028 28e4 2ffe 04b4 002c     .(./..(..(./..,.
2ffe2b4c:	28ec 2ffe 04b8 0030 28f4 2ffe 0544 0034     .(./..0..(./D.4.
2ffe2b5c:	28ff 2ffe 0548 0038 290a 2ffe 054c 003c     .(./H.8..)./L.<.
2ffe2b6c:	2916 2ffe 0550 0040                         .)./P.@.

2ffe2b74 <ddr_reg>:
2ffe2b74:	2a74 2ffe 0000 0000 29df 2ffe 0010 0004     t*./.....)./....
2ffe2b84:	29e7 2ffe 0014 0008 29ef 2ffe 0020 000c     .)./.....)./ ...
2ffe2b94:	29f8 2ffe 0024 0010 2a02 2ffe 0030 0014     .)./$....*./0...
2ffe2ba4:	2a09 2ffe 0034 0018 2a10 2ffe 0038 001c     .*./4....*./8...
2ffe2bb4:	2a18 2ffe 0050 0020 2a21 2ffe 0060 0024     .*./P. .!*./`.$.
2ffe2bc4:	2a2a 2ffe 00c0 0028 2a35 2ffe 0180 002c     **./..(.5*./..,.
2ffe2bd4:	2a3c 2ffe 0190 0030 2a44 2ffe 0194 0034     <*./..0.D*./..4.
2ffe2be4:	2a4c 2ffe 0198 0038 2a56 2ffe 01a0 003c     L*./..8.V*./..<.
2ffe2bf4:	2a5e 2ffe 01a4 0040 2a66 2ffe 01a8 0044     ^*./..@.f*./..D.
2ffe2c04:	2a6e 2ffe 01c4 0048 2a79 2ffe 0244 004c     n*./..H.y*./D.L.
2ffe2c14:	2a80 2ffe 0300 0050 2a85 2ffe 0304 0054     .*./..P..*./..T.
2ffe2c24:	2a8a 2ffe 030c 0058 2a91 2ffe 036c 005c     .*./..X..*./l.\.
2ffe2c34:	2a9b 2ffe 0400 0060                         .*./..`.

2ffe2c3c <ddr_registers>:
2ffe2c3c:	279a 2ffe 2b74 2ffe 0019 0000 0000 0000     .'./t+./........
2ffe2c4c:	2e26 2ffe 2cac 2ffe 000c 0000 0000 0000     &../.,./........
2ffe2c5c:	2e3f 2ffe 2aec 2ffe 0011 0000 0000 0000     ?../.*./........
2ffe2c6c:	2e34 2ffe 2aa4 2ffe 0009 0000 0000 0000     4../.*./........
2ffe2c7c:	279a 2ffe 2d6c 2ffe 000b 0000 0001 0000     .'./l-./........
2ffe2c8c:	2e26 2ffe 2dc4 2ffe 000a 0000 0001 0000     &../.-./........
2ffe2c9c:	2e64 2ffe 2d0c 2ffe 000c 0000 0001 0000     d../.-./........

2ffe2cac <ddr_timing>:
2ffe2cac:	2975 2ffe 0064 0000 297d 2ffe 0100 0004     u)./d...})./....
2ffe2cbc:	2986 2ffe 0104 0008 298f 2ffe 0108 000c     .)./.....)./....
2ffe2ccc:	2998 2ffe 010c 0010 29a1 2ffe 0110 0014     .)./.....)./....
2ffe2cdc:	29aa 2ffe 0114 0018 29b3 2ffe 0118 001c     .)./.....)./....
2ffe2cec:	29bc 2ffe 011c 0020 29c5 2ffe 0120 0024     .)./.. ..)./ .$.
2ffe2cfc:	29ce 2ffe 0138 0028 29d8 2ffe 0240 002c     .)./8.(..)./@.,.

2ffe2d0c <ddrphy_cal>:
2ffe2d0c:	27a1 2ffe 01cc 0000 27aa 2ffe 01d0 0004     .'./.....'./....
2ffe2d1c:	27b2 2ffe 01d4 0008 27bb 2ffe 020c 000c     .'./.....'./....
2ffe2d2c:	27c4 2ffe 0210 0010 27cc 2ffe 0214 0014     .'./.....'./....
2ffe2d3c:	27d5 2ffe 024c 0018 27de 2ffe 0250 001c     .'./L....'./P...
2ffe2d4c:	27e6 2ffe 0254 0020 27ef 2ffe 028c 0024     .'./T. ..'./..$.
2ffe2d5c:	27f8 2ffe 0290 0028 2800 2ffe 0294 002c     .'./..(..(./..,.

2ffe2d6c <ddrphy_reg>:
2ffe2d6c:	283a 2ffe 0008 0000 283f 2ffe 0024 0004     :(./....?(./$...
2ffe2d7c:	2846 2ffe 0028 0008 284c 2ffe 002c 000c     F(./(...L(./,...
2ffe2d8c:	2852 2ffe 0030 0010 2856 2ffe 0050 0014     R(./0...V(./P...
2ffe2d9c:	285c 2ffe 0184 0018 2863 2ffe 01c0 001c     \(./....c(./....
2ffe2dac:	286a 2ffe 0200 0020 2871 2ffe 0240 0024     j(./.. .q(./@.$.
2ffe2dbc:	2878 2ffe 0280 0028                         x(./..(.

2ffe2dc4 <ddrphy_timing>:
2ffe2dc4:	2809 2ffe 0018 0000 280e 2ffe 001c 0004     .(./.....(./....
2ffe2dd4:	2813 2ffe 0020 0008 2818 2ffe 0034 000c     .(./ ....(./4...
2ffe2de4:	281e 2ffe 0038 0010 2824 2ffe 003c 0014     .(./8...$(./<...
2ffe2df4:	282a 2ffe 0040 0018 282e 2ffe 0044 001c     *(./@....(./D...
2ffe2e04:	2832 2ffe 0048 0020 2836 2ffe 004c 0024     2(./H. .6(./L.$.
2ffe2e14:	7473 632c 6c74 722d 6765 7300 2c74 7463     st,ctl-reg.st,ct
2ffe2e24:	2d6c 6974 696d 676e 7300 2c74 7463 2d6c     l-timing.st,ctl-
2ffe2e34:	616d 0070 7473 632c 6c74 702d 7265 0066     map.st,ctl-perf.
2ffe2e44:	7473 702c 7968 722d 6765 7300 2c74 6870     st,phy-reg.st,ph
2ffe2e54:	2d79 6974 696d 676e 7300 2c74 6870 2d79     y-timing.st,phy-
2ffe2e64:	6163 006c 7473 732c 6d74 3233 706d 2d31     cal.st,stm32mp1-
2ffe2e74:	6464 0072 7473 6d2c 6d65 732d 6570 6465     ddr.st,mem-speed
2ffe2e84:	7300 2c74 656d 2d6d 6973 657a 7300 2c74     .st,mem-size.st,
2ffe2e94:	656d 2d6d 616e 656d 2800 4152 3a4d 2520     mem-name.(RAM: %
2ffe2ea4:	0a73 0a00 7325 203a 6143 6e6e 746f 7220     s...%s: Cannot r
2ffe2eb4:	6165 2064 7325 202c 7265 6f72 3d72 6425     ead %s, error=%d
2ffe2ec4:	000a 440a 5244 7220 2077 6574 7473 203a     ...DDR rw test: 
2ffe2ed4:	6143 276e 2074 6361 6563 7373 6d20 6d65     Can't access mem
2ffe2ee4:	726f 2079 2040 7830 7825 000a 440a 5244     ory @ 0x%x...DDR
2ffe2ef4:	6120 6464 2072 7562 2073 6574 7473 203a      addr bus test: 
2ffe2f04:	6163 276e 2074 6361 6563 7373 6d20 6d65     can't access mem
2ffe2f14:	726f 2079 2040 7830 7825 000a 4d28 6d65     ory @ 0x%x..(Mem
2ffe2f24:	726f 2079 6973 657a 3d20 3020 2578 2078     ory size = 0x%x 
2ffe2f34:	2528 2064 424d 0a29 0a00 4444 2052 6973     (%d MB)...DDR si
2ffe2f44:	657a 203a 7830 7825 6420 656f 2073 6f6e     ze: 0x%x does no
2ffe2f54:	2074 616d 6374 2068 5444 6320 6e6f 6966     t match DT confi
2ffe2f64:	3a67 3020 2578 0a78 0a00 4444 2052 6164     g: 0x%x...DDR da
2ffe2f74:	6174 6220 7375 7420 7365 3a74 6320 6e61     ta bus test: can
2ffe2f84:	7427 6120 6363 7365 2073 656d 6f6d 7972     't access memory
2ffe2f94:	4020 3020 2578 0a78 0a00 4444 2052 7865      @ 0x%x...DDR ex
2ffe2fa4:	6570 7463 6465 6620 6572 2071 6425 6b20     pected freq %d k
2ffe2fb4:	7a48 202c 7563 7272 6e65 2074 7369 2520     Hz, current is %
2ffe2fc4:	646c 6b20 7a48 000a                         ld kHz..

2ffe2fcc <__func__.6742>:
2ffe2fcc:	7473 336d 6d32 3170 645f 7264 735f 7465     stm32mp1_ddr_set
2ffe2fdc:	7075 6300 6d6f 6f6d 2f6e 6564 6373 695f     up.common/desc_i
2ffe2fec:	616d 6567 6c5f 616f 2e64 0063 250a 2073     mage_load.c..%s 
2ffe2ffc:	6572 6461 6920 2073 6f6e 2074 7573 7070     read is not supp
2ffe300c:	726f 6574 2064 7273 2063 7830 6c25 2078     orted src 0x%lx 
2ffe301c:	6564 7473 3020 2578 786c 6c20 6e65 2520     dest 0x%lx len %
2ffe302c:	0a69 2800 7325 203a 6170 7472 7469 6f69     i..(%s: partitio
2ffe303c:	206e 6973 657a 3a20 3020 2578 0a78 6400     n size : 0x%x..d
2ffe304c:	6972 6576 7372 732f 2f74 6f69 692f 5f6f     rivers/st/io/io_
2ffe305c:	7270 676f 6172 6d6d 7265 735f 5f74 7375     programmer_st_us
2ffe306c:	2e62 0063 550a 4253 7520 6b6e 6f6e 6e77     b.c..USB unknown
2ffe307c:	7320 6174 6574 000a 5328 6174 7472 4420      state..(Start D
2ffe308c:	776f 6c6e 616f 2064 6170 7472 7469 6f69     ownload partitio
2ffe309c:	206e 6925 7420 206f 6461 7264 7365 2073     n %i to address 
2ffe30ac:	7830 6c25 2078 656c 676e 6874 2520 0a69     0x%lx length %i.
2ffe30bc:	0a00 6548 6461 7265 6320 6568 6b63 6620     ..Header check f
2ffe30cc:	6961 656c 0a64                               ailed..

2ffe30d3 <__func__.6780>:
2ffe30d3:	7375 5f62 6163 6c6c 6162 6b63 725f 6165     usb_callback_rea
2ffe30e3:	0064                                        d.

2ffe30e5 <__func__.6822>:
2ffe30e5:	7375 5f62 6170 7472 7469 6f69 5f6e 6973     usb_partition_si
2ffe30f5:	657a                                         ze.

2ffe30f8 <usb_dev_connector>:
2ffe30f8:	9781 2ffd                                   .../

2ffe30fc <usb_dev_funcs>:
2ffe30fc:	96c1 2ffd 9925 2ffd 96dd 2ffd 9711 2ffd     .../%../.../.../
2ffe310c:	9809 2ffd 0000 0000 96e1 2ffd 96d5 2ffd     .../......./.../
2ffe311c:	96d9 2ffd 6828 6e61 6c64 2065 5355 2042     .../(handle USB 
2ffe312c:	203a 6552 7573 656d 000a 6828 6e61 6c64     : Resume..(handl
2ffe313c:	2065 5355 2042 203a 7553 7073 6e65 2064     e USB : Suspend 
2ffe314c:	6e69 0a74 2800 6168 646e 656c 5520 4253     int..(handle USB
2ffe315c:	3a20 4c20 4d50 6920 746e 6520 746e 7265      : LPM int enter
2ffe316c:	6920 206e 7573 7073 6e65 0a64 2800 6168      in suspend..(ha
2ffe317c:	646e 656c 5520 4253 3a20 5220 7365 7465     ndle USB : Reset
2ffe318c:	000a 6828 6e61 6c64 2065 5355 2042 203a     ..(handle USB : 
2ffe319c:	4f53 0a46 2800 6168 646e 656c 5520 4253     SOF..(handle USB
2ffe31ac:	3a20 4920 4f53 4920 0a4e 2800 6168 646e      : ISO IN..(hand
2ffe31bc:	656c 5520 4253 3a20 4920 4f53 4f20 5455     le USB : ISO OUT
2ffe31cc:	000a 6828 6e61 6c64 2065 5355 2042 203a     ..(handle USB : 
2ffe31dc:	6f43 6e6e 6365 0a74 2800 6168 646e 656c     Connect..(handle
2ffe31ec:	5520 4253 3a20 4420 7369 6f63 6e6e 6365      USB : Disconnec
2ffe31fc:	0a74 0000                                   t...

2ffe3200 <usb_dwc2driver>:
2ffe3200:	9a11 2ffd 9a21 2ffd 9a71 2ffd 9fb5 2ffd     .../!../q../.../
2ffe3210:	9a35 2ffd 9b75 2ffd a039 2ffd 9ba1 2ffd     5../u../9../.../
2ffe3220:	9bdd 2ffd 9bf9 2ffd 9c0d 2ffd 9cad 2ffd     .../.../.../.../
2ffe3230:	250a 2073 203a 6553 646e 6120 206e 5245     .%s : Send an ER
2ffe3240:	4f52 0a52 0a00 6f4e 2074 7573 7070 726f     ROR...Not suppor
2ffe3250:	6574 0064 7228 6365 6965 6576 7220 7165     ted.(receive req
2ffe3260:	6575 7473 2520 0a69 0a00 6e55 6e6b 776f     uest %i...Unknow
2ffe3270:	206e 6572 7571 7365 2074 6925 000a 4e0a     n request %i...N
2ffe3280:	544f 5320 5055 4f50 5452 4445 2520 0a69     OT SUPPORTED %i.
2ffe3290:	0a00 6572 6563 7669 2065 6e75 7573 7070     ..receive unsupp
2ffe32a0:	726f 6574 2064 6572 7571 7365 2074 6925     orted request %i
2ffe32b0:	2800 5355 2042 6552 7573 656d 000a 5528     .(USB Resume..(U
2ffe32c0:	4253 5320 7375 6570 646e 6d20 646f 0a65     SB Suspend mode.
	...

2ffe32d1 <__func__.4167>:
2ffe32d1:	7375 5f62 6f63 6572 635f 6c74 655f 7272     usb_core_ctl_err
2ffe32e1:	726f 2800 5055 4f4c 4441 3a20 000a 0928     or.(UPLOAD :..(.
2ffe32f1:	5009 6168 6573 4920 2044 203a 6925 000a     .Phase ID : %i..
2ffe3301:	0928 6109 6464 6572 7373 3020 2578 786c     (..address 0x%lx
2ffe3311:	000a 5328 6e65 2064 6564 6174 6863 7220     ..(Send detach r
2ffe3321:	7165 6575 7473 000a 550a 4c50 414f 2044     equest...UPLOAD 
2ffe3331:	203a 6e55 7573 7070 726f 6574 2064 6c62     : Unsupported bl
2ffe3341:	636f 206b 203a 6925 000a 550a 4c50 414f     ock : %i...UPLOA
2ffe3351:	2044 203a 6e55 7573 7070 726f 6574 2064     D : Unsupported 
2ffe3361:	7453 7461 0a65 2800 5355 2042 203a 4644     State..(USB : DF
2ffe3371:	2055 203a 6f4e 6874 6e69 2067 6f74 6420     U : Nothing to d
2ffe3381:	0a6f 2800 5355 2042 203a 4644 2055 203a     o..(USB : DFU : 
2ffe3391:	6e65 2064 666f 6420 776f 6c6e 616f 2064     end of download 
2ffe33a1:	6170 7472 7469 6f69 206e 203a 6925 000a     partition : %i..
2ffe33b1:	5228 6365 6965 6576 4420 7465 6361 0a68     (Receive Detach.
2ffe33c1:	0a00 6870 7361 2065 4449 3a20 6925 000a     ..phase ID :%i..
2ffe33d1:	4728 5445 5453 5441 5355 3a20 000a 0928     (GETSTATUS :..(.
2ffe33e1:	4109 5050 535f 4154 4554 495f 4c44 0a45     .APP_STATE_IDLE.
2ffe33f1:	2800 0909 5041 5f50 5453 5441 5f45 4544     .(..APP_STATE_DE
2ffe3401:	4154 4843 000a 0928 4409 5546 535f 4154     TACH..(..DFU_STA
2ffe3411:	4554 495f 4c44 0a45 2800 0909 4644 5f55     TE_IDLE..(..DFU_
2ffe3421:	5453 5441 5f45 4e44 4f4c 4441 535f 4e59     STATE_DNLOAD_SYN
2ffe3431:	0a43 2800 0909 4644 5f55 5453 5441 5f45     C..(..DFU_STATE_
2ffe3441:	4e44 4f4c 4441 425f 5355 0a59 2800 0909     DNLOAD_BUSY..(..
2ffe3451:	4644 5f55 5453 5441 5f45 4e44 4f4c 4441     DFU_STATE_DNLOAD
2ffe3461:	495f 4c44 0a45 2800 0909 4644 5f55 5453     _IDLE..(..DFU_ST
2ffe3471:	5441 5f45 414d 494e 4546 5453 535f 4e59     ATE_MANIFEST_SYN
2ffe3481:	0a43 2800 0909 4644 5f55 5453 5441 5f45     C..(..DFU_STATE_
2ffe3491:	414d 494e 4546 5453 000a 0928 4409 5546     MANIFEST..(..DFU
2ffe34a1:	535f 4154 4554 4d5f 4e41 4649 5345 5f54     _STATE_MANIFEST_
2ffe34b1:	4157 5449 525f 5345 5445 000a 0928 4409     WAIT_RESET..(..D
2ffe34c1:	5546 535f 4154 4554 555f 4c50 414f 5f44     FU_STATE_UPLOAD_
2ffe34d1:	4449 454c 000a 090a 4409 5546 535f 4154     IDLE.....DFU_STA
2ffe34e1:	4554 455f 5252 524f 000a 5228 6365 6965     TE_ERROR..(Recei
2ffe34f1:	6576 4420 5546 6320 656c 7261 7320 6174     ve DFU clear sta
2ffe3501:	7574 0a73 2800 4547 5354 4154 4554 3a20     tus..(GETSTATE :
2ffe3511:	000a 5228 6365 6965 6576 4420 5546 6120     ..(Receive DFU a
2ffe3521:	6f62 7472 000a 550a 6b6e 6f6e 6e77 6120     bort...Unknown a
2ffe3531:	746c 7265 616e 6574 3a20 2520 0a69           lternate : %i..

2ffe3540 <USBD_DFU_initvalue>:
2ffe3540:	a70b 2ffd a9d5 2ffd a9e5 2ffd a8b1 2ffd     .../.../.../.../
2ffe3550:	a70f 2ffd a9d9 2ffd a9d1 2ffd a9e1 2ffd     .../.../.../.../
2ffe3560:	a9dd 2ffd a9cd 2ffd 0000 0000 5453 694d     .../.../....STMi
2ffe3570:	7263 656f 656c 7463 6f72 696e 7363 4400     croelectronics.D
2ffe3580:	5546 6920 206e 5348 4d20 646f 2065 4440     FU in HS Mode @D
2ffe3590:	7665 6369 2065 4449 2f20 7830 3035 2c30     evice ID /0x500,
2ffe35a0:	4020 6552 6976 6973 6e6f 4920 2044 302f      @Revision ID /0
2ffe35b0:	3078 3030 0030 4644 2055 6f43 666e 6769     x0000.DFU Config
2ffe35c0:	4400 5546 4920 746e 7265 6166 6563 4000     .DFU Interface.@
2ffe35d0:	6150 7472 7469 6f69 306e 2f20 7830 3030     Partition0 /0x00
2ffe35e0:	312f 322a 3635 654b 4000 5346 4c42 2f20     /1*256Ke.@FSBL /
2ffe35f0:	7830 3130 312f 312a 654d 4000 6150 7472     0x01/1*1Me.@Part
2ffe3600:	7469 6f69 326e 2f20 7830 3230 312f 312a     ition2 /0x02/1*1
2ffe3610:	654d 4000 6150 7472 7469 6f69 336e 2f20     Me.@Partition3 /
2ffe3620:	7830 3330 312f 312a 4d36 0065 5040 7261     0x03/1*16Me.@Par
2ffe3630:	6974 6974 6e6f 2034 302f 3078 2f34 2a31     tition4 /0x04/1*
2ffe3640:	3631 654d 4000 6976 7472 6175 206c 302f     16Me.@virtual /0
2ffe3650:	4678 2f31 2a31 3135 4232 0061 6975 5f64     xF1/1*512Ba.uid_
2ffe3660:	746f 0070 420a 4553 3a43 4720 7465 5520     otp..BSEC: Get U
2ffe3670:	4449 4f5f 5054 6e20 6d75 6562 2072 7245     ID_OTP number Er
2ffe3680:	6f72 0a72 0a00 5342 4345 203a 6547 2074     ror...BSEC: Get 
2ffe3690:	4955 5f44 544f 2050 656c 676e 6874 4520     UID_OTP length E
2ffe36a0:	7272 726f 000a 420a 4553 3a43 5520 4449     rror...BSEC: UID
2ffe36b0:	6425 4520 7272 726f 000a 0000               %d Error....

2ffe36bc <dfu_desc>:
2ffe36bc:	ad19 2ffd ad25 2ffd ad6d 2ffd ad85 2ffd     .../%../m../.../
2ffe36cc:	ae49 2ffd ad9d 2ffd adb5 2ffd adcd 2ffd     I../.../.../.../
2ffe36dc:	ad0d 2ffd ad0d 2ffd ad0d 2ffd acf5 2ffd     .../.../.../.../
2ffe36ec:	ad01 2ffd                                   .../

2ffe36f0 <usb_stm32mp1_desc>:
2ffe36f0:	0112 0200 0000 4000 0483 df11 0200 0201     .......@........
2ffe3700:	0103                                        ..

2ffe3702 <usb_stm32mp1_lang_id_desc>:
2ffe3702:	0304 0409                                   ....

2ffe3706 <usbd_stm32mp1_qualifier_desc>:
2ffe3706:	060a 0200 0000 4000 0001 6c62 2f32 6c62     .......@..bl2/bl
2ffe3716:	5f32 6d69 6761 5f65 6f6c 6461 765f 2e32     2_image_load_v2.
2ffe3726:	0063 421e 324c 203a 6c50 7461 6f66 6d72     c..BL2: Platform
2ffe3736:	7320 7465 7075 6120 726c 6165 7964 6420      setup already d
2ffe3746:	6e6f 2165 0a21 2800 4c42 3a32 4420 696f     one!!..(BL2: Doi
2ffe3756:	676e 7020 616c 6674 726f 206d 6573 7574     ng platform setu
2ffe3766:	0a70 0a00 4c42 3a32 4620 6961 756c 6572     p...BL2: Failure
2ffe3776:	6920 206e 7270 2065 6d69 6761 2065 6f6c      in pre image lo
2ffe3786:	6461 6820 6e61 6c64 6e69 2067 2528 2969     ad handling (%i)
2ffe3796:	000a 4228 324c 203a 6f4c 6461 6e69 2067     ..(BL2: Loading 
2ffe37a6:	6d69 6761 2065 6469 2520 0a64 0a00 4c42     image id %d...BL
2ffe37b6:	3a32 4620 6961 656c 2064 6f74 6c20 616f     2: Failed to loa
2ffe37c6:	2064 6d69 6761 2065 2528 2969 000a 420a     d image (%i)...B
2ffe37d6:	324c 203a 6146 6c69 7275 2065 6e69 7020     L2: Failure in p
2ffe37e6:	736f 2074 6d69 6761 2065 6f6c 6461 6820     ost image load h
2ffe37f6:	6e61 6c64 6e69 2067 2528 2969 000a 4228     andling (%i)..(B
2ffe3806:	324c 203a 6b53 7069 6c20 616f 6964 676e     L2: Skip loading
2ffe3816:	6920 616d 6567 6920 2064 6425 000a 4214      image id %d...B
2ffe3826:	324c 203a 7325 000a 4214 324c 203a 6f42     L2: %s...BL2: Bo
2ffe3836:	746f 6e69 2067 4c42 3233 000a 6f63 6d6d     oting BL32..comm
2ffe3846:	6e6f 622f 5f6c 6f63 6d6d 6e6f 632e 1e00     on/bl_common.c..
2ffe3856:	6146 6c69 6465 7420 206f 626f 6174 6e69     Failed to obtain
2ffe3866:	7220 6665 7265 6e65 6563 7420 206f 6d69      reference to im
2ffe3876:	6761 2065 6469 253d 2075 2528 2969 000a     age id=%u (%i)..
2ffe3886:	461e 6961 656c 2064 6f74 6120 6363 7365     .Failed to acces
2ffe3896:	2073 6d69 6761 2065 6469 253d 2075 2528     s image id=%u (%
2ffe38a6:	2969 000a 4c28 616f 6964 676e 6920 616d     i)..(Loading ima
2ffe38b6:	6567 6920 3d64 7525 6120 2074 6461 7264     ge id=%u at addr
2ffe38c6:	7365 2073 7830 6c25 0a78 1e00 6146 6c69     ess 0x%lx...Fail
2ffe38d6:	6465 7420 206f 6564 6574 6d72 6e69 2065     ed to determine 
2ffe38e6:	6874 2065 6973 657a 6f20 2066 6874 2065     the size of the 
2ffe38f6:	6d69 6761 2065 6469 253d 2075 2528 2969     image id=%u (%i)
2ffe3906:	000a 491e 616d 6567 6920 3d64 7525 7320     ...Image id=%u s
2ffe3916:	7a69 2065 756f 2074 666f 6220 756f 646e     ize out of bound
2ffe3926:	0a73 1e00 6146 6c69 6465 7420 206f 6f6c     s...Failed to lo
2ffe3936:	6461 6920 616d 6567 6920 3d64 7525 2820     ad image id=%u (
2ffe3946:	6925 0a29 2800 6d49 6761 2065 6469 253d     %i)..(Image id=%
2ffe3956:	2075 6f6c 6461 6465 203a 7830 6c25 2078     u loaded: 0x%lx 
2ffe3966:	202d 7830 6c25 0a78 2800 6e45 7274 2079     - 0x%lx..(Entry 
2ffe3976:	6f70 6e69 2074 6461 7264 7365 2073 203d     point address = 
2ffe3986:	7830 6c25 0a78 2800 5053 5253 3d20 3020     0x%lx..(SPSR = 0
2ffe3996:	2578 0a78 6300 6d6f 6f6d 2f6e 6674 6c5f     x%x..common/tf_l
2ffe39a6:	676f 632e 6400 6972 6576 7372 632f 6e6f     og.c.drivers/con
2ffe39b6:	6f73 656c 6d2f 6c75 6974 635f 6e6f 6f73     sole/multi_conso
2ffe39c6:	656c 632e 4500 5252 524f 203a 2020 4e00     le.c.ERROR:   .N
2ffe39d6:	544f 4349 3a45 2020 5700 5241 494e 474e     OTICE:  .WARNING
2ffe39e6:	203a 4900 464e 3a4f 2020 2020 5600 5245     : .INFO:    .VER
2ffe39f6:	4f42 4553 203a 0000 0000                    BOSE: ....

2ffe3a00 <plat_prefix_str>:
2ffe3a00:	39cb 2ffe 39d5 2ffe 39df 2ffe 39e9 2ffe     .9./.9./.9./.9./
2ffe3a10:	39f3 2ffe 6c70 7461 732f 2f74 6f63 6d6d     .9./plat/st/comm
2ffe3a20:	6e6f 732f 6d74 3233 706d 635f 6d6f 6f6d     on/stm32mp_commo
2ffe3a30:	2e6e 0063 480a 6165 6564 2072 616d 6967     n.c..Header magi
2ffe3a40:	0a63 0a00 6548 6461 7265 7620 7265 6973     c...Header versi
2ffe3a50:	6e6f 000a 430a 6568 6b63 7573 3a6d 3020     on...Checksum: 0
2ffe3a60:	2578 2078 6128 6177 7469 6465 203a 7830     x%x (awaited: 0x
2ffe3a70:	7825 0a29 7000 616c 2f74 7473 732f 6d74     %x)..plat/st/stm
2ffe3a80:	3233 706d 2f31 7473 336d 6d32 3170 705f     32mp1/stm32mp1_p
2ffe3a90:	6972 6176 6574 632e 0a00 5342 4345 203a     rivate.c..BSEC: 
2ffe3aa0:	6469 3d78 6425 5220 6165 2064 7245 6f72     idx=%d Read Erro
2ffe3ab0:	0a72 0a00 5342 4345 203a 7325 5220 6165     r...BSEC: %s Rea
2ffe3ac0:	2064 7245 6f72 0a72 2800 7355 2065 6564     d Error..(Use de
2ffe3ad0:	6166 6c75 2074 6863 7069 4920 2c44 6420     fault chip ID, d
2ffe3ae0:	6265 6775 6420 7369 6261 656c 0a64 7000     ebug disabled..p
2ffe3af0:	7261 5f74 756e 626d 7265 6f5f 7074 3f00     art_number_otp.?
2ffe3b00:	3f3f 003f 3531 4337 3100 3335 0046 3531     ???.157C.153F.15
2ffe3b10:	4133 3100 3135 0043 3531 4131 3100 3735     3A.151C.151A.157
2ffe3b20:	0046 3531 4333 3100 3735 0041 3531 4433     F.153C.157A.153D
2ffe3b30:	3100 3135 0046 3531 4431 3100 3735 0044     .151F.151D.157D.
2ffe3b40:	005a 6170 6b63 6761 5f65 746f 0070 4328     Z.package_otp.(C
2ffe3b50:	6e61 6f6e 2074 6567 2074 5043 2055 6576     annot get CPU ve
2ffe3b60:	7372 6f69 2c6e 6420 6265 6775 6420 7369     rsion, debug dis
2ffe3b70:	6261 656c 0a64 1400 5043 3a55 5320 4d54     abled...CPU: STM
2ffe3b80:	3233 504d 7325 7325 5220 7665 252e 0a73     32MP%s%s Rev.%s.
2ffe3b90:	6200 616f 6472 695f 0064 4214 616f 6472     .board_id..Board
2ffe3ba0:	203a 424d 3025 7834 5620 7261 6425 252e     : MB%04x Var%d.%
2ffe3bb0:	2064 6552 2e76 7325 252d 3230 0a64 6300     d Rev.%s-%02d..c
2ffe3bc0:	6766 5f30 746f 0070 7768 5f32 746f 0070     fg0_otp.hw2_otp.
2ffe3bd0:	4441 4100 0043 4241 4100 0041               AD.AC.AB.AA.

2ffe3bdc <CSWTCH.53>:
2ffe3bdc:	3bd0 2ffe 3bd3 2ffe 3bd6 2ffe 3bd9 2ffe     .;./.;./.;./.;./
2ffe3bec:	0000 0000                                   ....

2ffe3bf0 <stm32mp1_mmap>:
2ffe3bf0:	0000 2ffc 0000 0000 0000 2ffc 0000 0004     .../......./....
2ffe3c00:	002a 0000 0000 4000 0000 3000 0000 0000     *......@...0....
2ffe3c10:	0000 3000 0000 0006 003a 0000 0000 4000     ...0....:......@
2ffe3c20:	0000 4000 0000 0000 0000 4000 0000 4000     ...@.......@...@
2ffe3c30:	0028 0000 0000 4000 0000 8000 0000 0000     (......@........
2ffe3c40:	0000 8000 0000 4000 0028 0000 0000 4000     .......@(......@
	...

2ffe3c68 <stm32mp1_uart_addresses>:
2ffe3c68:	0000 5c00 e000 4000 f000 4000 0000 4001     ...\...@...@...@
2ffe3c78:	1000 4001 3000 4400 8000 4001 9000 4001     ...@.0.D...@...@
2ffe3c88:	696c 2f62 6c78 7461 745f 6261 656c 5f73     lib/xlat_tables_
2ffe3c98:	3276 612f 7261 6863 3233 782f 616c 5f74     v2/aarch32/xlat_
2ffe3ca8:	6174 6c62 7365 615f 6372 2e68 0063 696c     tables_arch.c.li
2ffe3cb8:	2f62 6c78 7461 745f 6261 656c 5f73 3276     b/xlat_tables_v2
2ffe3cc8:	782f 616c 5f74 6174 6c62 7365 635f 6e6f     /xlat_tables_con
2ffe3cd8:	6574 7478 632e 6c00 6269 782f 616c 5f74     text.c.lib/xlat_
2ffe3ce8:	6174 6c62 7365 765f 2f32 6c78 7461 745f     tables_v2/xlat_t
2ffe3cf8:	6261 656c 5f73 6f63 6572 632e 0a00 6d6d     ables_core.c..mm
2ffe3d08:	7061 615f 6464 725f 6765 6f69 5f6e 6863     ap_add_region_ch
2ffe3d18:	6365 286b 2029 6166 6c69 6465 202e 7265     eck() failed. er
2ffe3d28:	6f72 2072 6425 000a 4e0a 746f 6520 6f6e     ror %d...Not eno
2ffe3d38:	6775 2068 656d 6f6d 7972 7420 206f 616d     ugh memory to ma
2ffe3d48:	2070 6572 6967 6e6f 0a3a 5620 3a41 7830     p region:. VA:0x
2ffe3d58:	6c25 2078 5020 3a41 7830 6c25 786c 2020     %lx  PA:0x%llx  
2ffe3d68:	6973 657a 303a 2578 787a 2020 7461 7274     size:0x%zx  attr
2ffe3d78:	303a 2578 0a78 6400 6972 6576 7372 612f     :0x%x..drivers/a
2ffe3d88:	6d72 742f 637a 742f 637a 3034 2e30 0063     rm/tzc/tzc400.c.
2ffe3d98:	540a 435a 342d 3030 3a20 5720 6f72 676e     .TZC-400 : Wrong
2ffe3da8:	6420 7665 6369 2065 4449 2820 7830 7825      device ID (0x%x
2ffe3db8:	2e29 000a 540a 435a 342d 3030 203a 6946     )....TZC-400: Fi
2ffe3dc8:	746c 7265 2520 2064 6147 6574 656b 7065     lter %d Gatekeep
2ffe3dd8:	7265 6120 726c 6165 7964 6520 616e 6c62     er already enabl
2ffe3de8:	6465 000a 7264 7669 7265 2f73 6564 616c     ed..drivers/dela
2ffe3df8:	5f79 6974 656d 2f72 6564 616c 5f79 6974     y_timer/delay_ti
2ffe3e08:	656d 2e72 0063 7264 7669 7265 2f73 6564     mer.c.drivers/de
2ffe3e18:	616c 5f79 6974 656d 2f72 6567 656e 6972     lay_timer/generi
2ffe3e28:	5f63 6564 616c 5f79 6974 656d 2e72 0063     c_delay_timer.c.
2ffe3e38:	7264 7669 7265 2f73 7473 622f 6573 2f63     drivers/st/bsec/
2ffe3e48:	7362 6365 2e32 0063 7473 732c 6d74 3233     bsec2.c.st,stm32
2ffe3e58:	6e2d 6d76 6d65 6c2d 7961 756f 0074 766e     -nvmem-layout.nv
2ffe3e68:	656d 2d6d 6563 6c6c 6e2d 6d61 7365 6e00     mem-cell-names.n
2ffe3e78:	6d76 6d65 632d 6c65 736c 0a00 614d 666c     vmem-cells..Malf
2ffe3e88:	726f 656d 2064 766e 656d 5f6d 616c 6f79     ormed nvmem_layo
2ffe3e98:	7475 6e20 646f 3a65 6920 6e67 726f 6465     ut node: ignored
2ffe3ea8:	000a 4d0a 7369 6c61 6769 656e 2064 766e     ...Misaligned nv
2ffe3eb8:	656d 5f6d 616c 6f79 7475 6520 656c 656d     mem_layout eleme
2ffe3ec8:	746e 203a 6769 6f6e 6572 0a64 7300 2c74     nt: ignored..st,
2ffe3ed8:	7473 336d 6d32 3170 2d35 7362 6365 0a00     stm32mp15-bsec..
2ffe3ee8:	5342 4345 203a 7525 5320 6974 6b63 2d79     BSEC: %u Sticky-
2ffe3ef8:	6572 6461 6220 7469 7220 6165 2064 7245     read bit read Er
2ffe3f08:	6f72 2072 6925 000a 420a 4553 3a43 2520     ror %i...BSEC: %
2ffe3f18:	2075 7453 6369 796b 772d 6972 6574 6220     u Sticky-write b
2ffe3f28:	7469 7220 6165 2064 7245 6f72 2072 6925     it read Error %i
2ffe3f38:	000a 420a 4553 3a43 2520 2075 7453 6369     ...BSEC: %u Stic
2ffe3f48:	796b 702d 6f72 2067 6962 2074 6572 6461     ky-prog bit read
2ffe3f58:	4520 7272 726f 2520 0a69 0a00 5342 4345      Error %i...BSEC
2ffe3f68:	203a 7525 7020 7265 616d 656e 746e 6220     : %u permanent b
2ffe3f78:	7469 7220 6165 2064 7245 6f72 2072 6925     it read Error %i
2ffe3f88:	000a 421e 4553 3a43 4f20 5054 6c20 636f     ...BSEC: OTP loc
2ffe3f98:	656b 2c64 7020 6f72 2067 6977 6c6c 6220     ked, prog will b
2ffe3fa8:	2065 6769 6f6e 6572 0a64 1e00 5342 4345     e ignored...BSEC
2ffe3fb8:	203a 5047 4f4c 4b43 6120 7463 7669 7461     : GPLOCK activat
2ffe3fc8:	6465 202c 7270 676f 7720 6c69 206c 6562     ed, prog will be
2ffe3fd8:	6920 6e67 726f 6465 000a 420a 4553 3a43      ignored...BSEC:
2ffe3fe8:	2520 2075 6853 6461 776f 6e69 2067 7245      %u Shadowing Er
2ffe3ff8:	6f72 2072 6925 000a 420a 4553 3a43 2520     ror %i...BSEC: %
2ffe4008:	2075 6552 6461 4520 7272 726f 2520 0a69     u Read Error %i.
2ffe4018:	2f00 6c63 636f 736b 6300 6f6c 6b63 662d     ./clocks.clock-f
2ffe4028:	6572 7571 6e65 7963 7300 2c74 7473 336d     requency.st,stm3
2ffe4038:	6d32 3170 722d 6363 7300 2c74 7473 336d     2mp1-rcc.st,stm3
2ffe4048:	6832 2d37 6175 7472 7300 2c74 6c70 406c     2h7-uart.st,pll@
2ffe4058:	0030 500a 4c4c 6425 7320 6f74 2070 6166     0..PLL%d stop fa
2ffe4068:	6c69 6465 4020 3020 2578 786c 203a 7830     iled @ 0x%lx: 0x
2ffe4078:	7825 000a 7266 6361 0a00 7325 203a 6c63     %x..frac..%s: cl
2ffe4088:	206b 6469 2520 2064 6f6e 2074 6f66 6e75     k id %d not foun
2ffe4098:	0a64 0a00 6c43 636f 206b 6425 6320 6e61     d...Clock %d can
2ffe40a8:	7427 6220 2065 6e65 6261 656c 0a64 0a00     't be enabled...
2ffe40b8:	6c43 636f 206b 6425 6320 6e61 7427 6220     Clock %d can't b
2ffe40c8:	2065 6964 6173 6c62 6465 000a 430a 4b4c     e disabled...CLK
2ffe40d8:	4944 2056 7825 7320 6174 7472 6620 6961     DIV %x start fai
2ffe40e8:	656c 2064 2040 7830 6c25 3a78 3020 2578     led @ 0x%lx: 0x%
2ffe40f8:	0a78 0a00 534f 2043 7825 4020 2520 786c     x...OSC %x @ %lx
2ffe4108:	7420 6d69 6f65 7475 6620 726f 6520 616e      timeout for ena
2ffe4118:	6c62 3d65 6425 3a20 3020 2578 0a78 0a00     ble=%d : 0x%x...
2ffe4128:	4c43 534b 4352 2520 2078 7473 7261 2074     CLKSRC %x start 
2ffe4138:	6166 6c69 6465 4020 3020 2578 786c 203a     failed @ 0x%lx: 
2ffe4148:	7830 7825 000a 500a 4c4c 6425 7320 6174     0x%x...PLL%d sta
2ffe4158:	7472 6620 6961 656c 2064 2040 7830 6c25     rt failed @ 0x%l
2ffe4168:	3a78 3020 2578 0a78 6400 6972 6576 7372     x: 0x%x..drivers
2ffe4178:	732f 2f74 6c63 2f6b 7473 336d 6d32 3170     /st/clk/stm32mp1
2ffe4188:	635f 6b6c 632e 7300 2c74 6c63 736b 6372     _clk.c.st,clksrc
2ffe4198:	7300 2c74 6c63 646b 7669 7300 2c74 6c70     .st,clkdiv.st,pl
2ffe41a8:	406c 6425 6300 6773 7300 2c74 7962 6170     l@%d.csg.st,bypa
2ffe41b8:	7373 7300 2c74 6964 6267 7079 7361 0073     ss.st,digbypass.
2ffe41c8:	7473 632c 7373 7300 2c74 7264 7669 0065     st,css.st,drive.
2ffe41d8:	480a 4953 4944 2056 6166 6c69 6465 4020     .HSIDIV failed @
2ffe41e8:	3020 2578 786c 203a 7830 7825 000a 7473      0x%lx: 0x%x..st
2ffe41f8:	702c 636b 0073 490a 766e 6c61 6469 6320     ,pkcs..Invalid c
2ffe4208:	6b6c 682d 6973 6620 6572 7571 6e65 7963     lk-hsi frequency
2ffe4218:	000a 6c63 2d6b 7368 0069 6c63 2d6b 7368     ..clk-hsi.clk-hs
2ffe4228:	0065 6c63 2d6b 7363 0069 6c63 2d6b 736c     e.clk-csi.clk-ls
2ffe4238:	0069 6c63 2d6b 736c 0065 3269 5f73 6b63     i.clk-lse.i2s_ck
2ffe4248:	6e69                                         in.

2ffe424b <__func__.7252>:
2ffe424b:	7473 336d 6d32 3170 635f 6b6c 675f 7465     stm32mp1_clk_get
2ffe425b:	675f 7461 6465 695f 0064                    _gated_id.

2ffe4265 <axiss_parents>:
2ffe4265:	0100                                         ...

2ffe4268 <fmc_parents>:
2ffe4268:	1216 1e13                                   ....

2ffe426c <i2c12_parents>:
2ffe426c:	1517 0906                                   ....

2ffe4270 <i2c35_parents>:
2ffe4270:	1517 0906                                   ....

2ffe4274 <i2c46_parents>:
2ffe4274:	111b 0906                                   ....

2ffe4278 <mcuss_parents>:
2ffe4278:	0100 1002                                   ....

2ffe427c <mpu_parents>:
2ffe427c:	0100 0a0a                                   ....

2ffe4280 <parent_id_clock_id>:
2ffe4280:	0004 0201 ff03 0004 0105 b5b4 b7b6 b9b8     ................
2ffe4290:	bbba bdbc bfbe c3c3 c3c3 c3c3 0000 c2c1     ................
2ffe42a0:	ffc4                                        ..

2ffe42a2 <per_parents>:
2ffe42a2:	0100                                         ...

2ffe42a5 <pllncfgr2>:
2ffe42a5:	0800                                         ...

2ffe42a8 <qspi_parents>:
2ffe42a8:	1216 1e13                                   ....

2ffe42ac <rng1_parents>:
2ffe42ac:	1502 0304                                   ....

2ffe42b0 <rtc_parents>:
2ffe42b0:	04ff 0103                                   ....

2ffe42b4 <sdmmc12_parents>:
2ffe42b4:	121c 0613                                   ....

2ffe42b8 <sdmmc3_parents>:
2ffe42b8:	121d 0613                                   ....

2ffe42bc <spi6_parents>:
2ffe42bc:	141b 0906 1107                              ......

2ffe42c2 <stgen_parents>:
2ffe42c2:	0706                                        ..

2ffe42c4 <stm32mp1_axi_div>:
2ffe42c4:	0201 0403 0404 0404                         ........

2ffe42cc <stm32mp1_clk_gate>:
2ffe42cc:	00d8 dc00 0100 16ff 00d8 dd01 0100 16ff     ................
2ffe42dc:	00d8 de02 0100 16ff 00d8 df03 0100 16ff     ................
2ffe42ec:	00d8 e004 0100 0fff 00d8 e105 0100 0fff     ................
2ffe42fc:	00d8 e206 0100 1aff 00d8 e307 0100 1aff     ................
2ffe430c:	00d8 e408 0100 16ff 00d8 e509 0100 1aff     ................
2ffe431c:	00d8 e60a 0100 1aff 0a00 950e 0001 ff08     ................
2ffe432c:	0a00 960f 0001 ff09 0a00 9710 0001 ff08     ................
2ffe433c:	0a00 9811 0001 ff09 0a00 9a12 0001 ff0a     ................
2ffe434c:	0a00 9b13 0001 ff0a 0a08 990d 0001 ff07     ................
2ffe435c:	0a10 330b 0001 ffff 0200 e708 0001 ffff     ...3............
2ffe436c:	0200 3a0f 0001 ffff 0200 7f10 0001 ff11     ...:............
2ffe437c:	0208 8700 0101 ff04 0208 8c02 0101 ff03     ................
2ffe438c:	0208 8e03 0101 ff03 0208 9404 0101 ff05     ................
2ffe439c:	0208 4108 0101 1bff 0208 420b 0101 1bff     ...A.......B....
2ffe43ac:	0208 710c 0101 1bff 0208 430d 0101 1bff     ...q.......C....
2ffe43bc:	0208 440f 0101 1bff 0208 4510 0101 1bff     ...D.......E....
2ffe43cc:	0208 8014 0101 ff02 0140 c014 0100 ff13     ........@.......
2ffe43dc:	0a28 5400 0001 ffff 0a28 5501 0001 ffff     (..T....(..U....
2ffe43ec:	0a28 5602 0001 ffff 0a28 5703 0001 ffff     (..V....(..W....
2ffe43fc:	0a28 5804 0001 ffff 0a28 5905 0001 ffff     (..X....(..Y....
2ffe440c:	0a28 5a06 0001 ffff 0a28 5b07 0001 ffff     (..Z....(..[....
2ffe441c:	0a28 5c08 0001 ffff 0a28 5d09 0001 ffff     (..\....(..]....
2ffe442c:	0a28 5e0a 0001 ffff 0210 5f00 0101 1bff     (..^......._....
2ffe443c:	0210 6004 0101 1bff 0210 6105 0101 1bff     ...`.......a....
2ffe444c:	0210 7c06 0101 ff06 0210 6308 0101 1bff     ...|.......c....
2ffe445c:	0218 790c 0001 ff0e 0218 7a0e 0001 ff0d     ...y.......z....
2ffe446c:	0218 7610 0001 ff0b 0218 7711 0001 ff0b     ...v.......w....
2ffe447c:	080c d608 0000 ffff                         ........

2ffe4484 <stm32mp1_clk_pll>:
2ffe4484:	0001 0000 0028 0084 0088 008c 0080 0090     ....(...........
2ffe4494:	0000 0000 0001 0000 00ff 0000 00ff 0000     ................
2ffe44a4:	0001 0000 0028 0098 009c 00a0 0094 00a4     ....(...........
2ffe44b4:	0000 0000 0001 0000 00ff 0000 00ff 0000     ................
2ffe44c4:	0000 0000 0820 0884 0888 088c 0880 0890     .... ...........
2ffe44d4:	0000 0000 0001 0000 0002 0000 00ff 0000     ................
2ffe44e4:	0000 0000 0824 0898 089c 08a0 0894 08a4     ....$...........
2ffe44f4:	0000 0000 0001 0000 0002 0000 0005 0000     ................

2ffe4504 <stm32mp1_clk_sel>:
2ffe4504:	08c0 0700 0004 0000 426c 2ffe 08c4 0700     ........lB./....
2ffe4514:	0004 0000 4270 2ffe 00d4 0300 0002 0000     ....pB./........
2ffe4524:	42c2 2ffe 00c0 0700 0004 0000 4274 2ffe     .B./........tB./
2ffe4534:	00c4 0700 0006 0000 42bc 2ffe 00c8 0700     .........B./....
2ffe4544:	0006 0000 4634 2ffe 00cc 0300 0004 0000     ....4F./........
2ffe4554:	42ac 2ffe 08e4 0700 0005 0000 462f 2ffe     .B./......../F./
2ffe4564:	08e8 0700 0005 0000 462a 2ffe 08ec 0700     ........*F./....
2ffe4574:	0005 0000 462a 2ffe 08f0 0700 0005 0000     ....*F./........
2ffe4584:	462a 2ffe 08f4 0700 0004 0000 42b4 2ffe     *F./.........B./
2ffe4594:	08f8 0700 0004 0000 42b8 2ffe 0900 0300     .........B./....
2ffe45a4:	0004 0000 42a8 2ffe 0904 0300 0004 0000     .....B./........
2ffe45b4:	4268 2ffe 0024 0700 0003 0000 4265 2ffe     hB./$.......eB./
2ffe45c4:	0048 0300 0004 0000 4278 2ffe 091c 0300     H.......xB./....
2ffe45d4:	0003 0000 463c 2ffe 091c 0104 0002 0000     ....<F./........
2ffe45e4:	463a 2ffe 0140 0310 0004 0000 42b0 2ffe     :F./@........B./
2ffe45f4:	0020 0300 0004 0000 427c 2ffe 00d0 0300      .......|B./....
2ffe4604:	0003 0000 42a2 2ffe                         .....B./

2ffe460c <stm32mp1_mcu_div>:
2ffe460c:	0100 0302 0604 0807 0909 0909 0909 0909     ................

2ffe461c <stm32mp1_mpu_apbx_div>:
2ffe461c:	0100 0302 0404 0404                         ........

2ffe4624 <stm32mp1_pll>:
2ffe4624:	1004 0863 c710                              ..c...

2ffe462a <uart234578_parents>:
2ffe462a:	1417 0906                                    .....

2ffe462f <uart6_parents>:
2ffe462f:	1418 0906                                    .....

2ffe4634 <usart1_parents>:
2ffe4634:	111b 0906 0714                              ......

2ffe463a <usbo_parents>:
2ffe463a:	2115                                        .!

2ffe463c <usbphy_parents>:
2ffe463c:	1507 0a08 6e55 6e6b 776f 206e 6553 666c     ....Unknown Self
2ffe464c:	5220 6665 6572 6873 6d20 646f 0a65            Refresh mode..

2ffe465b <CSWTCH.26>:
2ffe465b:	0001 0000 0000 0000 0302 7264 7669 7265     ..........driver
2ffe466b:	2f73 7473 672f 6970 2f6f 7473 336d 5f32     s/st/gpio/stm32_
2ffe467b:	7067 6f69 632e 7000 6e69 7463 6c72 302d     gpio.c.pinctrl-0
2ffe468b:	7000 6e69 756d 0078 6c73 7765 722d 7461     .pinmux.slew-rat
2ffe469b:	0065 6962 7361 702d 6c75 2d6c 7075 6200     e.bias-pull-up.b
2ffe46ab:	6169 2d73 7570 6c6c 642d 776f 006e 7264     ias-pull-down.dr
2ffe46bb:	7669 2d65 706f 6e65 642d 6172 6e69 6700     ive-open-drain.g
2ffe46cb:	6970 2d6f 6f63 746e 6f72 6c6c 7265 0a00     pio-controller..
2ffe46db:	4950 434e 5254 204c 6e69 6f63 736e 7369     PINCTRL inconsis
2ffe46eb:	6574 746e 6920 206e 5444 000a 3269 2d63     tent in DT..i2c-
2ffe46fb:	6373 2d6c 6972 6973 676e 742d 6d69 2d65     scl-rising-time-
2ffe470b:	736e 6900 6332 732d 6c63 662d 6c61 696c     ns.i2c-scl-falli
2ffe471b:	676e 742d 6d69 2d65 736e 0a00 6e49 6176     ng-time-ns..Inva
2ffe472b:	696c 2064 7562 2073 7073 6565 2064 2528     lid bus speed (%
2ffe473b:	2069 203e 6925 0a29 0a00 3249 2043 6c63     i > %i)...I2C cl
2ffe474b:	636f 206b 6172 6574 6920 2073 0a30 0a00     ock rate is 0...
2ffe475b:	3249 2043 7073 6565 2064 756f 2074 666f     I2C speed out of
2ffe476b:	6220 756f 646e 7b20 6425 0a7d 0a00 4920      bound {%d}... I
2ffe477b:	4332 7420 6d69 6e69 7367 6f20 7475 6f20     2C timings out o
2ffe478b:	2066 6f62 6e75 2064 6952 6573 257b 3e64     f bound Rise{%d>
2ffe479b:	6425 2f7d 6146 6c6c 257b 3e64 6425 0a7d     %d}/Fall{%d>%d}.
2ffe47ab:	0a00 4e44 2046 756f 2074 666f 6220 756f     ..DNF out of bou
2ffe47bb:	646e 2520 2f64 6425 000a 200a 3249 2043     nd %d/%d... I2C 
2ffe47cb:	6f6e 5020 6572 6373 6c61 7265 7320 6c6f     no Prescaler sol
2ffe47db:	7475 6f69 0a6e 0a00 4920 4332 6e20 206f     ution... I2C no 
2ffe47eb:	6f73 756c 6974 6e6f 6120 2074 6c61 0a6c     solution at all.
2ffe47fb:	0a00 6146 6c69 6465 7420 206f 6f63 706d     ..Failed to comp
2ffe480b:	7475 2065 3249 2043 6974 696d 676e 0a73     ute I2C timings.
2ffe481b:	1e00 6f44 6e77 7267 6461 2065 3249 2043     ..Downgrade I2C 
2ffe482b:	7073 6565 2064 6f74 2520 4875 297a 000a     speed to %uHz)..
2ffe483b:	430a 6e61 6f6e 2074 6e69 7469 6169 696c     .Cannot initiali
2ffe484b:	657a 4920 4332 6120 616e 6f6c 2067 6966     ze I2C analog fi
2ffe485b:	746c 7265 2820 6425 0a29 0a00 6d49 6f70     lter (%d)...Impo
2ffe486b:	7373 6269 656c 7420 206f 6f63 706d 7475     ssible to comput
2ffe487b:	2065 3249 2043 6974 696d 676e 0a73 0000     e I2C timings...
	...

2ffe488c <i2c_specs>:
2ffe488c:	86a0 0001 012c 0000 03e8 0000 0000 0000     ....,...........
2ffe489c:	0d7a 0000 00fa 0000 125c 0000 0fa0 0000     z.......\.......
2ffe48ac:	1a80 0006 012c 0000 012c 0000 0000 0000     ....,...,.......
2ffe48bc:	0384 0000 0064 0000 0514 0000 0258 0000     ....d.......X...
2ffe48cc:	4240 000f 0064 0000 0078 0000 0000 0000     @B..d...x.......
2ffe48dc:	01c2 0000 0032 0000 01f4 0000 0104 0000     ....2...........
2ffe48ec:	7473 732c 6d74 3233 706d 2d31 7769 6764     st,stm32mp1-iwdg
2ffe48fc:	7300 6d74 3233 652c 616e 6c62 2d65 6e6f     .stm32,enable-on
2ffe490c:	732d 6f74 0070 7473 336d 2c32 6e65 6261     -stop.stm32,enab
2ffe491c:	656c 6f2d 2d6e 7473 6e61 6264 0079 4f0a     le-on-standby..O
2ffe492c:	5054 6520 616e 6c62 6465 6220 7475 6920     TP enabled but i
2ffe493c:	6477 2567 2075 5444 642d 7369 6261 656c     wdg%u DT-disable
2ffe494c:	0a64 7300 2c74 7473 6d70 6369 0031 6572     d..st,stpmic1.re
2ffe495c:	7567 616c 6f74 2d72 696d 2d6e 696d 7263     gulator-min-micr
2ffe496c:	766f 6c6f 0074 6572 7567 616c 6f74 2d72     ovolt.regulator-
2ffe497c:	616d 2d78 696d 7263 766f 6c6f 0074 6572     max-microvolt.re
2ffe498c:	7567 616c 6f74 7372 6400 6972 6576 7372     gulators.drivers
2ffe499c:	732f 2f74 6d70 6369 732f 6d74 3233 706d     /st/pmic/stm32mp
2ffe49ac:	705f 696d 2e63 0063 6572 7567 616c 6f74     _pmic.c.regulato
2ffe49bc:	2d72 6f62 746f 6f2d 006e 6572 7567 616c     r-boot-on.regula
2ffe49cc:	6f74 2d72 6c61 6177 7379 6f2d 006e 6572     tor-always-on.re
2ffe49dc:	7567 616c 6f74 2d72 7570 6c6c 642d 776f     gulator-pull-dow
2ffe49ec:	006e 7473 6d2c 7361 2d6b 6572 6573 0074     n.st,mask-reset.
2ffe49fc:	6572 7567 616c 6f74 2d72 616e 656d 0a00     regulator-name..
2ffe4a0c:	3249 2043 6f63 666e 6769 7275 7461 6f69     I2C configuratio
2ffe4a1c:	206e 6166 6c69 6465 2520 0a64 0a00 6143     n failed %d...Ca
2ffe4a2c:	6e6e 746f 6920 696e 6974 6c61 7a69 2065     nnot initialize 
2ffe4a3c:	3249 2043 7825 2820 6425 0a29 0a00 3249     I2C %x (%d)...I2
2ffe4a4c:	2043 6564 6976 6563 6e20 746f 7220 6165     C device not rea
2ffe4a5c:	7964 000a 460a 6961 656c 2064 6f74 6120     dy...Failed to a
2ffe4a6c:	6363 7365 2073 4d50 4349 000a 5028 494d     ccess PMIC..(PMI
2ffe4a7c:	2043 6576 7372 6f69 206e 203d 7830 3025     C version = 0x%0
2ffe4a8c:	6c32 0a78 6200 6375 326b 7600 6572 5f66     2lx..buck2.vref_
2ffe4a9c:	6464 0072 646c 336f 6200 6375 006b 646c     ddr.ldo3.buck.ld
2ffe4aac:	006f 646c 346f 6200 6375 316b 6200 6375     o.ldo4.buck1.buc
2ffe4abc:	336b 6200 6375 346b 6c00 6f64 0031 646c     k3.buck4.ldo1.ld
2ffe4acc:	326f 6c00 6f64 0035 646c 366f 6200 6f6f     o2.ldo5.ldo6.boo
2ffe4adc:	7473 7000 7277 735f 3177 7000 7277 735f     st.pwr_sw1.pwr_s
2ffe4aec:	3277 0000                                   w2..

2ffe4af0 <buck1_voltage_table>:
2ffe4af0:	02d5 02d5 02d5 02d5 02d5 02d5 02ee 0307     ................
2ffe4b00:	0320 0339 0352 036b 0384 039d 03b6 03cf      .9.R.k.........
2ffe4b10:	03e8 0401 041a 0433 044c 0465 047e 0497     ......3.L.e.~...
2ffe4b20:	04b0 04c9 04e2 04fb 0514 052d 0546 055f     ..........-.F._.
2ffe4b30:	0578 0591 05aa 05c3 05dc 05dc 05dc 05dc     x...............
2ffe4b40:	05dc 05dc 05dc 05dc 05dc 05dc 05dc 05dc     ................
2ffe4b50:	05dc 05dc 05dc 05dc 05dc 05dc 05dc 05dc     ................
2ffe4b60:	05dc 05dc 05dc 05dc 05dc 05dc 05dc 05dc     ................

2ffe4b70 <buck2_voltage_table>:
2ffe4b70:	03e8 03e8 03e8 03e8 03e8 03e8 03e8 03e8     ................
2ffe4b80:	03e8 03e8 03e8 03e8 03e8 03e8 03e8 03e8     ................
2ffe4b90:	03e8 03e8 041a 041a 044c 044c 047e 047e     ........L.L.~.~.
2ffe4ba0:	04b0 04b0 04e2 04e2 0514 0514 0546 0546     ............F.F.
2ffe4bb0:	0578 0578 05aa 05aa 05dc                    x.x.......

2ffe4bba <buck3_voltage_table>:
2ffe4bba:	03e8 03e8 03e8 03e8 03e8 03e8 03e8 03e8     ................
2ffe4bca:	03e8 03e8 03e8 03e8 03e8 03e8 03e8 03e8     ................
2ffe4bda:	03e8 03e8 03e8 03e8 044c 044c 044c 044c     ........L.L.L.L.
2ffe4bea:	04b0 04b0 04b0 04b0 0514 0514 0514 0514     ................
2ffe4bfa:	0578 0578 0578 0578 05dc 0640 06a4 0708     x.x.x.x...@.....
2ffe4c0a:	076c 07d0 0834 0898 08fc 0960 09c4 0a28     l...4.....`...(.
2ffe4c1a:	0a8c 0af0 0b54 0bb8 0c1c 0c80 0ce4 0d48     ....T.........H.

2ffe4c2a <buck4_voltage_table>:
2ffe4c2a:	0258 0271 028a 02a3 02bc 02d5 02ee 0307     X.q.............
2ffe4c3a:	0320 0339 0352 036b 0384 039d 03b6 03cf      .9.R.k.........
2ffe4c4a:	03e8 0401 041a 0433 044c 0465 047e 0497     ......3.L.e.~...
2ffe4c5a:	04b0 04c9 04e2 04fb 0514 0514 0546 0546     ............F.F.
2ffe4c6a:	0578 0578 05aa 05aa 05dc 0640 06a4 0708     x.x.......@.....
2ffe4c7a:	076c 07d0 0834 0898 08fc 0960 09c4 0a28     l...4.....`...(.
2ffe4c8a:	0a8c 0af0 0b54 0bb8 0c1c 0c80 0ce4 0d48     ....T.........H.
2ffe4c9a:	0dac 0e10 0e74 0ed8 0f3c                    ....t...<.

2ffe4ca4 <fixed_5v_voltage_table>:
2ffe4ca4:	1388                                        ..

2ffe4ca6 <ldo1_voltage_table>:
2ffe4ca6:	06a4 06a4 06a4 06a4 06a4 06a4 06a4 06a4     ................
2ffe4cb6:	06a4 0708 076c 07d0 0834 0898 08fc 0960     ....l...4.....`.
2ffe4cc6:	09c4 0a28 0a8c 0af0 0b54 0bb8 0c1c 0c80     ..(.....T.......
2ffe4cd6:	0ce4                                        ..

2ffe4cd8 <ldo2_voltage_table>:
2ffe4cd8:	06a4 06a4 06a4 06a4 06a4 06a4 06a4 06a4     ................
2ffe4ce8:	06a4 0708 076c 07d0 0834 0898 08fc 0960     ....l...4.....`.
2ffe4cf8:	09c4 0a28 0a8c 0af0 0b54 0bb8 0c1c 0c80     ..(.....T.......
2ffe4d08:	0ce4                                        ..

2ffe4d0a <ldo3_voltage_table>:
2ffe4d0a:	06a4 06a4 06a4 06a4 06a4 06a4 06a4 06a4     ................
2ffe4d1a:	06a4 0708 076c 07d0 0834 0898 08fc 0960     ....l...4.....`.
2ffe4d2a:	09c4 0a28 0a8c 0af0 0b54 0bb8 0c1c 0c80     ..(.....T.......
2ffe4d3a:	0ce4 0ce4 0ce4 0ce4 0ce4 0ce4 0ce4 01f4     ................
2ffe4d4a:	ffff                                        ..

2ffe4d4c <ldo4_voltage_table>:
2ffe4d4c:	0ce4                                        ..

2ffe4d4e <ldo5_voltage_table>:
2ffe4d4e:	06a4 06a4 06a4 06a4 06a4 06a4 06a4 06a4     ................
2ffe4d5e:	06a4 0708 076c 07d0 0834 0898 08fc 0960     ....l...4.....`.
2ffe4d6e:	09c4 0a28 0a8c 0af0 0b54 0bb8 0c1c 0c80     ..(.....T.......
2ffe4d7e:	0ce4 0d48 0dac 0e10 0e74 0ed8 0f3c          ..H.....t...<.

2ffe4d8c <ldo6_voltage_table>:
2ffe4d8c:	0384 03e8 044c 04b0 0514 0578 05dc 0640     ....L.....x...@.
2ffe4d9c:	06a4 0708 076c 07d0 0834 0898 08fc 0960     ....l...4.....`.
2ffe4dac:	09c4 0a28 0a8c 0af0 0b54 0bb8 0c1c 0c80     ..(.....T.......
2ffe4dbc:	0ce4 0000                                   ....

2ffe4dc0 <regulators_table>:
2ffe4dc0:	4ab3 2ffe 4af0 2ffe 2040 1230 1800 0000     .J./.J./@ 0.....
2ffe4dd0:	4a91 2ffe 4b70 2ffe 2125 1231 1802 0001     .J./pK./%!1.....
2ffe4de0:	4ab9 2ffe 4bba 2ffe 2238 1232 1804 0002     .J./.K./8"2.....
2ffe4df0:	4abf 2ffe 4c2a 2ffe 233d 1233 1806 0003     .J./*L./=#3.....
2ffe4e00:	4ac5 2ffe 4ca6 2ffe 2519 0035 1a00 0000     .J./.L./.%5.....
2ffe4e10:	4aca 2ffe 4cd8 2ffe 2619 0036 1a00 0001     .J./.L./.&6.....
2ffe4e20:	4aa0 2ffe 4d0a 2ffe 2721 0037 1a00 0002     .J./.M./!'7.....
2ffe4e30:	4aae 2ffe 4d4c 2ffe 2801 0038 1a00 0003     .J./LM./.(8.....
2ffe4e40:	4acf 2ffe 4d4e 2ffe 291f 0039 1a00 0004     .J./NM./.)9.....
2ffe4e50:	4ad4 2ffe 4d8c 2ffe 2a19 003a 1a00 0005     .J./.M./.*:.....
2ffe4e60:	4a97 2ffe 4ea0 2ffe 2401 0034 1a00 0006     .J./.N./.$4.....
2ffe4e70:	4ad9 2ffe 4ca4 2ffe 4001 0000 0000 0001     .J./.L./.@......
2ffe4e80:	4adf 2ffe 4ca4 2ffe 4001 0000 0000 0002     .J./.L./.@......
2ffe4e90:	4ae7 2ffe 4ca4 2ffe 4001 0000 0000 0004     .J./.L./.@......

2ffe4ea0 <vref_ddr_voltage_table>:
2ffe4ea0:	0ce4 732f 6365 7275 2d65 6863 736f 6e65     ../secure-chosen
2ffe4eb0:	2f00 6863 736f 6e65 7300 6474 756f 2d74     ./chosen.stdout-
2ffe4ec0:	6170 6874 3a00 6f00 7070 732d 7075 6f70     path.:.opp-suppo
2ffe4ed0:	7472 6465 682d 0077 706f 2d70 7a68 6f00     rted-hw.opp-hz.o
2ffe4ee0:	7070 6d2d 6369 6f72 6f76 746c 6f00 616b     pp-microvolt.oka
2ffe4ef0:	0079 6573 7563 6572 732d 6174 7574 0073     y.secure-status.
2ffe4f00:	6c70 7461 732f 2f74 6f63 6d6d 6e6f 732f     plat/st/common/s
2ffe4f10:	6d74 3233 706d 645f 2e74 0063 6572 2d67     tm32mp_dt.c.reg-
2ffe4f20:	616e 656d 0073 6572 6573 7374 2800 6143     names.resets.(Ca
2ffe4f30:	6e6e 746f 6620 6e69 2064 7325 6e20 646f     nnot find %s nod
2ffe4f40:	2065 6e69 4420 0a54 6f00 6570 6172 6974     e in DT..operati
2ffe4f50:	676e 702d 696f 746e 2d73 3276 7300 2c74     ng-points-v2.st,
2ffe4f60:	7473 336d 6d32 3170 702c 7277 722d 6765     stm32mp1,pwr-reg
2ffe4f70:	7600 6464 732d 7075 6c70 0079 632f 7570     .vdd-supply./cpu
2ffe4f80:	2f73 7063 4075 0030 7063 2d75 7573 7070     s/cpu@0.cpu-supp
2ffe4f90:	796c 2f00 6d00 646f 6c65 2800 6f53 7466     ly./.model.(Soft
2ffe4fa0:	6177 6572 6120 6363 7365 2073 6f74 6120     ware access to a
2ffe4fb0:	6c6c 6420 6265 6775 6320 6d6f 6f70 656e     ll debug compone
2ffe4fc0:	746e 2073 7369 6420 7369 6261 656c 0a64     nts is disabled.
2ffe4fd0:	7000 616c 2f74 7473 732f 6d74 3233 706d     .plat/st/stm32mp
2ffe4fe0:	2f31 7473 336d 6d32 3170 645f 6762 636d     1/stm32mp1_dbgmc
2ffe4ff0:	2e75 0063 491e 204f 6f63 706d 6e65 6173     u.c..IO compensa
2ffe5000:	6974 6e6f 6320 6c65 206c 6f6e 2074 6572     tion cell not re
2ffe5010:	6461 0a79 1e00 4456 2044 6e75 6e6b 776f     ady...VDD unknow
2ffe5020:	006e 5028 6f72 7564 7463 625f 6c65 776f     n.(Product_below
2ffe5030:	325f 3576 303d 203a 5348 564c 4e45 7020     _2v5=0: HSLVEN p
2ffe5040:	6f72 6574 7463 6465 6220 2079 5748 000a     rotected by HW..
2ffe5050:	500a 6f72 7564 7463 625f 6c65 776f 325f     .Product_below_2
2ffe5060:	3576 313d 0a3a 0a00 4809 4c53 4556 204e     v5=1:....HSLVEN 
2ffe5070:	7075 6164 6574 6920 2073 6564 7473 7572     update is destru
2ffe5080:	7463 7669 2c65 000a 090a 6f6e 7520 6470     ctive,....no upd
2ffe5090:	7461 2065 7361 5620 4444 3e20 3220 372e     ate as VDD > 2.7
2ffe50a0:	0a56 6900 636e 756c 6564 612f 6372 2f68     V..include/arch/
2ffe50b0:	6161 6372 3368 2f32 6c65 5f33 6f63 6d6d     aarch32/el3_comm
2ffe50c0:	6e6f 6d5f 6361 6f72 2e73 0053 696c 2f62     on_macros.S.lib/
2ffe50d0:	7063 7375 612f 7261 6863 3233 632f 7570     cpus/aarch32/cpu
2ffe50e0:	685f 6c65 6570 7372 532e                     _helpers.S.

2ffe50eb <panic_msg>:
2ffe50eb:	50          	.byte	0x50
2ffe50ec:	43494e41 	.word	0x43494e41
2ffe50f0:	20746120 	.word	0x20746120
2ffe50f4:	3a204350 	.word	0x3a204350
2ffe50f8:	00783020 	.word	0x00783020

2ffe50fc <panic_end>:
2ffe50fc:	0a0d      	.short	0x0a0d
	...

2ffe50ff <assert_msg1>:
2ffe50ff:	41          	.byte	0x41
2ffe5100:	52455353 	.word	0x52455353
2ffe5104:	46203a54 	.word	0x46203a54
2ffe5108:	20656c69 	.word	0x20656c69
	...

2ffe510d <assert_msg2>:
2ffe510d:	20          	.byte	0x20
2ffe510e:	694c      	.short	0x694c
2ffe5110:	0020656e 	.word	0x0020656e
2ffe5114:	76697264 	.word	0x76697264
2ffe5118:	2f737265 	.word	0x2f737265
2ffe511c:	752f7473 	.word	0x752f7473
2ffe5120:	2f747261 	.word	0x2f747261
2ffe5124:	63726161 	.word	0x63726161
2ffe5128:	2f323368 	.word	0x2f323368
2ffe512c:	336d7473 	.word	0x336d7473
2ffe5130:	6f635f32 	.word	0x6f635f32
2ffe5134:	6c6f736e 	.word	0x6c6f736e
2ffe5138:	00532e65 	.word	0x00532e65
2ffe513c:	2f62696c 	.word	0x2f62696c
2ffe5140:	74616c78 	.word	0x74616c78
2ffe5144:	6261745f 	.word	0x6261745f
2ffe5148:	5f73656c 	.word	0x5f73656c
2ffe514c:	612f3276 	.word	0x612f3276
2ffe5150:	68637261 	.word	0x68637261
2ffe5154:	652f3233 	.word	0x652f3233
2ffe5158:	6c62616e 	.word	0x6c62616e
2ffe515c:	6d6d5f65 	.word	0x6d6d5f65
2ffe5160:	00532e75 	.word	0x00532e75

2ffe5164 <abort_str>:
2ffe5164:	6f62410a 	.word	0x6f62410a
2ffe5168:	61207472 	.word	0x61207472
2ffe516c:	30203a74 	.word	0x30203a74
2ffe5170:	0078      	.short	0x0078

2ffe5172 <prefetch_abort_str>:
2ffe5172:	500a      	.short	0x500a
2ffe5174:	65666572 	.word	0x65666572
2ffe5178:	20686374 	.word	0x20686374
2ffe517c:	726f6241 	.word	0x726f6241
2ffe5180:	74612074 	.word	0x74612074
2ffe5184:	7830203a 	.word	0x7830203a
	...

2ffe5189 <data_abort_str>:
2ffe5189:	0a          	.byte	0x0a
2ffe518a:	6144      	.short	0x6144
2ffe518c:	41206174 	.word	0x41206174
2ffe5190:	74726f62 	.word	0x74726f62
2ffe5194:	3a746120 	.word	0x3a746120
2ffe5198:	00783020 	.word	0x00783020

2ffe519c <undefined_str>:
2ffe519c:	646e550a 	.word	0x646e550a
2ffe51a0:	6e696665 	.word	0x6e696665
2ffe51a4:	69206465 	.word	0x69206465
2ffe51a8:	7274736e 	.word	0x7274736e
2ffe51ac:	69746375 	.word	0x69746375
2ffe51b0:	61206e6f 	.word	0x61206e6f
2ffe51b4:	30203a74 	.word	0x30203a74
2ffe51b8:	0078      	.short	0x0078

2ffe51ba <exception_start_str>:
2ffe51ba:	450a      	.short	0x450a
2ffe51bc:	70656378 	.word	0x70656378
2ffe51c0:	6e6f6974 	.word	0x6e6f6974
2ffe51c4:	646f6d20 	.word	0x646f6d20
2ffe51c8:	78303d65 	.word	0x78303d65
	...

2ffe51cd <exception_end_str>:
2ffe51cd:	20          	.byte	0x20
2ffe51ce:	7461      	.short	0x7461
2ffe51d0:	7830203a 	.word	0x7830203a
	...

2ffe51d5 <dfsr_str>:
2ffe51d5:	20          	.byte	0x20
2ffe51d6:	4644      	.short	0x4644
2ffe51d8:	3d205253 	.word	0x3d205253
2ffe51dc:	00783020 	.word	0x00783020

2ffe51e0 <dfar_str>:
2ffe51e0:	41464420 	.word	0x41464420
2ffe51e4:	203d2052 	.word	0x203d2052
2ffe51e8:	7830      	.short	0x7830
	...

2ffe51eb <ifsr_str>:
2ffe51eb:	20          	.byte	0x20
2ffe51ec:	52534649 	.word	0x52534649
2ffe51f0:	30203d20 	.word	0x30203d20
2ffe51f4:	0078      	.short	0x0078

2ffe51f6 <ifar_str>:
2ffe51f6:	4920      	.short	0x4920
2ffe51f8:	20524146 	.word	0x20524146
2ffe51fc:	7830203d 	.word	0x7830203d
	...

2ffe5201 <end_error_str>:
2ffe5201:	0a          	.byte	0x0a
2ffe5202:	000d      	.short	0x000d
2ffe5204:	64646123 	.word	0x64646123
2ffe5208:	73736572 	.word	0x73736572
2ffe520c:	6c65632d 	.word	0x6c65632d
2ffe5210:	736c      	.short	0x736c
2ffe5212:	00          	.byte	0x00
2ffe5213:	6c          	.byte	0x6c
2ffe5214:	78756e69 	.word	0x78756e69
2ffe5218:	6168702c 	.word	0x6168702c
2ffe521c:	656c646e 	.word	0x656c646e
2ffe5220:	00          	.byte	0x00
2ffe5221:	2f          	.byte	0x2f
2ffe5222:	6c61      	.short	0x6c61
2ffe5224:	65736169 	.word	0x65736169
2ffe5228:	0073      	.short	0x0073
2ffe522a:	6f63      	.short	0x6f63
2ffe522c:	7461706d 	.word	0x7461706d
2ffe5230:	656c6269 	.word	0x656c6269
2ffe5234:	00          	.byte	0x00
2ffe5235:	41          	.byte	0x41
2ffe5236:	5353      	.short	0x5353
2ffe5238:	3a545245 	.word	0x3a545245
2ffe523c:	3a732520 	.word	0x3a732520
2ffe5240:	000a6425 	.word	0x000a6425
2ffe5244:	2f62696c 	.word	0x2f62696c
2ffe5248:	6362696c 	.word	0x6362696c
2ffe524c:	6972702f 	.word	0x6972702f
2ffe5250:	2e66746e 	.word	0x2e66746e
2ffe5254:	78300063 	.word	0x78300063
2ffe5258:	00          	.byte	0x00
2ffe5259:	0a          	.byte	0x0a
2ffe525a:	6e73      	.short	0x6e73
2ffe525c:	6e697270 	.word	0x6e697270
2ffe5260:	203a6674 	.word	0x203a6674
2ffe5264:	63657073 	.word	0x63657073
2ffe5268:	65696669 	.word	0x65696669
2ffe526c:	69772072 	.word	0x69772072
2ffe5270:	41206874 	.word	0x41206874
2ffe5274:	49494353 	.word	0x49494353
2ffe5278:	646f6320 	.word	0x646f6320
2ffe527c:	25272065 	.word	0x25272065
2ffe5280:	6e202764 	.word	0x6e202764
2ffe5284:	7320746f 	.word	0x7320746f
2ffe5288:	6f707075 	.word	0x6f707075
2ffe528c:	64657472 	.word	0x64657472
2ffe5290:	0000002e 	.word	0x0000002e
2ffe5294:	00000000 	.word	0x00000000

2ffe5298 <__CPU_OPS_START__>:
2ffe5298:	410fc070 	.word	0x410fc070
2ffe529c:	2ffd670c 	.word	0x2ffd670c

2ffe52a0 <__CPU_OPS_END__>:
2ffe52a0:	00000001 	.word	0x00000001
2ffe52a4:	2ffe2490 	.word	0x2ffe2490
2ffe52a8:	2ffd7f49 	.word	0x2ffd7f49
2ffe52ac:	2ffd7fbf 	.word	0x2ffd7fbf
2ffe52b0:	2ffd7f4b 	.word	0x2ffd7f4b

2ffe52b4 <__PARSER_LIB_DESCS_END__>:
	...

2ffe52c0 <bl2_vector_table>:
2ffe52c0:	eaffc34e 	b	2ffd6000 <bl2_entrypoint>
2ffe52c4:	eaffc3f9 	b	2ffd62b0 <report_undef_inst>
2ffe52c8:	eaffc3f3 	b	2ffd629c <report_exception>
2ffe52cc:	eaffc3fb 	b	2ffd62c0 <report_prefetch_abort>
2ffe52d0:	eaffc3fe 	b	2ffd62d0 <report_data_abort>
2ffe52d4:	eaffc3f0 	b	2ffd629c <report_exception>
2ffe52d8:	eaffc3ef 	b	2ffd629c <report_exception>
2ffe52dc:	eaffc3ee 	b	2ffd629c <report_exception>

2ffe52e0 <__zeromem_from_thumb>:
2ffe52e0:	4778      	bx	pc
2ffe52e2:	e7fd      	b.n	2ffe52e0 <__zeromem_from_thumb>
2ffe52e4:	eaffc45d 	b	2ffd6460 <zero_normalmem>

2ffe52e8 <__spin_unlock_from_thumb>:
2ffe52e8:	4778      	bx	pc
2ffe52ea:	e7fd      	b.n	2ffe52e8 <__spin_unlock_from_thumb>
2ffe52ec:	eaffc3b2 	b	2ffd61bc <spin_unlock>

2ffe52f0 <__enable_mmu_direct_svc_mon_from_thumb>:
2ffe52f0:	4778      	bx	pc
2ffe52f2:	e7fd      	b.n	2ffe52f0 <__enable_mmu_direct_svc_mon_from_thumb>
2ffe52f4:	eaffc4df 	b	2ffd6678 <enable_mmu_direct_svc_mon>

2ffe52f8 <__clean_dcache_range_from_thumb>:
2ffe52f8:	4778      	bx	pc
2ffe52fa:	e7fd      	b.n	2ffe52f8 <__clean_dcache_range_from_thumb>
2ffe52fc:	eaffc439 	b	2ffd63e8 <clean_dcache_range>

2ffe5300 <__console_register_from_arm>:
2ffe5300:	e51ff004 	ldr	pc, [pc, #-4]	; 2ffe5304 <__console_register_from_arm+0x4>
2ffe5304:	2ffdb25d 	.word	0x2ffdb25d

2ffe5308 <__bl2_run_next_image_from_thumb>:
2ffe5308:	4778      	bx	pc
2ffe530a:	e7fd      	b.n	2ffe5308 <__bl2_run_next_image_from_thumb>
2ffe530c:	eaffc391 	b	2ffd6158 <bl2_run_next_image>

2ffe5310 <__flush_dcache_range_from_thumb>:
2ffe5310:	4778      	bx	pc
2ffe5312:	e7fd      	b.n	2ffe5310 <__flush_dcache_range_from_thumb>
2ffe5314:	eaffc424 	b	2ffd63ac <flush_dcache_range>

2ffe5318 <__spin_lock_from_thumb>:
2ffe5318:	4778      	bx	pc
2ffe531a:	e7fd      	b.n	2ffe5318 <__spin_lock_from_thumb>
2ffe531c:	eaffc39d 	b	2ffd6198 <spin_lock>

2ffe5320 <__RO_END_UNALIGNED__>:
	...
